
FW-NixieClock3-L031F6P6.elf:     file format elf32-littlearm

Sections:
Idx Name          Size      VMA       LMA       File off  Algn
  0 .isr_vector   000000c0  08000000  08000000  00010000  2**0
                  CONTENTS, ALLOC, LOAD, READONLY, DATA
  1 .text         000071ec  080000c0  080000c0  000100c0  2**2
                  CONTENTS, ALLOC, LOAD, READONLY, CODE
  2 .rodata       00000034  080072ac  080072ac  000172ac  2**2
                  CONTENTS, ALLOC, LOAD, READONLY, DATA
  3 .ARM.extab    00000000  080072e0  080072e0  00020034  2**0
                  CONTENTS
  4 .ARM          00000008  080072e0  080072e0  000172e0  2**2
                  CONTENTS, ALLOC, LOAD, READONLY, DATA
  5 .preinit_array 00000000  080072e8  080072e8  00020034  2**0
                  CONTENTS, ALLOC, LOAD, DATA
  6 .init_array   00000004  080072e8  080072e8  000172e8  2**2
                  CONTENTS, ALLOC, LOAD, DATA
  7 .fini_array   00000004  080072ec  080072ec  000172ec  2**2
                  CONTENTS, ALLOC, LOAD, DATA
  8 .data         00000034  20000000  080072f0  00020000  2**2
                  CONTENTS, ALLOC, LOAD, DATA
  9 .bss          00000588  20000034  08007324  00020034  2**2
                  ALLOC
 10 ._user_heap_stack 00000604  200005bc  08007324  000205bc  2**0
                  ALLOC
 11 .ARM.attributes 00000028  00000000  00000000  00020034  2**0
                  CONTENTS, READONLY
 12 .comment      00000043  00000000  00000000  0002005c  2**0
                  CONTENTS, READONLY
 13 .debug_info   00010e8d  00000000  00000000  0002009f  2**0
                  CONTENTS, READONLY, DEBUGGING, OCTETS
 14 .debug_abbrev 0000368d  00000000  00000000  00030f2c  2**0
                  CONTENTS, READONLY, DEBUGGING, OCTETS
 15 .debug_aranges 000010d8  00000000  00000000  000345c0  2**3
                  CONTENTS, READONLY, DEBUGGING, OCTETS
 16 .debug_rnglists 00000ce8  00000000  00000000  00035698  2**0
                  CONTENTS, READONLY, DEBUGGING, OCTETS
 17 .debug_macro  00013962  00000000  00000000  00036380  2**0
                  CONTENTS, READONLY, DEBUGGING, OCTETS
 18 .debug_line   000177c8  00000000  00000000  00049ce2  2**0
                  CONTENTS, READONLY, DEBUGGING, OCTETS
 19 .debug_str    00069f06  00000000  00000000  000614aa  2**0
                  CONTENTS, READONLY, DEBUGGING, OCTETS
 20 .debug_frame  00003aac  00000000  00000000  000cb3b0  2**2
                  CONTENTS, READONLY, DEBUGGING, OCTETS
 21 .debug_line_str 00000068  00000000  00000000  000cee5c  2**0
                  CONTENTS, READONLY, DEBUGGING, OCTETS

Disassembly of section .text:

080000c0 <__do_global_dtors_aux>:
 80000c0:	b510      	push	{r4, lr}
 80000c2:	4c06      	ldr	r4, [pc, #24]	; (80000dc <__do_global_dtors_aux+0x1c>)
 80000c4:	7823      	ldrb	r3, [r4, #0]
 80000c6:	2b00      	cmp	r3, #0
 80000c8:	d107      	bne.n	80000da <__do_global_dtors_aux+0x1a>
 80000ca:	4b05      	ldr	r3, [pc, #20]	; (80000e0 <__do_global_dtors_aux+0x20>)
 80000cc:	2b00      	cmp	r3, #0
 80000ce:	d002      	beq.n	80000d6 <__do_global_dtors_aux+0x16>
 80000d0:	4804      	ldr	r0, [pc, #16]	; (80000e4 <__do_global_dtors_aux+0x24>)
 80000d2:	e000      	b.n	80000d6 <__do_global_dtors_aux+0x16>
 80000d4:	bf00      	nop
 80000d6:	2301      	movs	r3, #1
 80000d8:	7023      	strb	r3, [r4, #0]
 80000da:	bd10      	pop	{r4, pc}
 80000dc:	20000034 	.word	0x20000034
 80000e0:	00000000 	.word	0x00000000
 80000e4:	08007294 	.word	0x08007294

080000e8 <frame_dummy>:
 80000e8:	4b04      	ldr	r3, [pc, #16]	; (80000fc <frame_dummy+0x14>)
 80000ea:	b510      	push	{r4, lr}
 80000ec:	2b00      	cmp	r3, #0
 80000ee:	d003      	beq.n	80000f8 <frame_dummy+0x10>
 80000f0:	4903      	ldr	r1, [pc, #12]	; (8000100 <frame_dummy+0x18>)
 80000f2:	4804      	ldr	r0, [pc, #16]	; (8000104 <frame_dummy+0x1c>)
 80000f4:	e000      	b.n	80000f8 <frame_dummy+0x10>
 80000f6:	bf00      	nop
 80000f8:	bd10      	pop	{r4, pc}
 80000fa:	46c0      	nop			; (mov r8, r8)
 80000fc:	00000000 	.word	0x00000000
 8000100:	20000038 	.word	0x20000038
 8000104:	08007294 	.word	0x08007294

08000108 <__udivsi3>:
 8000108:	2200      	movs	r2, #0
 800010a:	0843      	lsrs	r3, r0, #1
 800010c:	428b      	cmp	r3, r1
 800010e:	d374      	bcc.n	80001fa <__udivsi3+0xf2>
 8000110:	0903      	lsrs	r3, r0, #4
 8000112:	428b      	cmp	r3, r1
 8000114:	d35f      	bcc.n	80001d6 <__udivsi3+0xce>
 8000116:	0a03      	lsrs	r3, r0, #8
 8000118:	428b      	cmp	r3, r1
 800011a:	d344      	bcc.n	80001a6 <__udivsi3+0x9e>
 800011c:	0b03      	lsrs	r3, r0, #12
 800011e:	428b      	cmp	r3, r1
 8000120:	d328      	bcc.n	8000174 <__udivsi3+0x6c>
 8000122:	0c03      	lsrs	r3, r0, #16
 8000124:	428b      	cmp	r3, r1
 8000126:	d30d      	bcc.n	8000144 <__udivsi3+0x3c>
 8000128:	22ff      	movs	r2, #255	; 0xff
 800012a:	0209      	lsls	r1, r1, #8
 800012c:	ba12      	rev	r2, r2
 800012e:	0c03      	lsrs	r3, r0, #16
 8000130:	428b      	cmp	r3, r1
 8000132:	d302      	bcc.n	800013a <__udivsi3+0x32>
 8000134:	1212      	asrs	r2, r2, #8
 8000136:	0209      	lsls	r1, r1, #8
 8000138:	d065      	beq.n	8000206 <__udivsi3+0xfe>
 800013a:	0b03      	lsrs	r3, r0, #12
 800013c:	428b      	cmp	r3, r1
 800013e:	d319      	bcc.n	8000174 <__udivsi3+0x6c>
 8000140:	e000      	b.n	8000144 <__udivsi3+0x3c>
 8000142:	0a09      	lsrs	r1, r1, #8
 8000144:	0bc3      	lsrs	r3, r0, #15
 8000146:	428b      	cmp	r3, r1
 8000148:	d301      	bcc.n	800014e <__udivsi3+0x46>
 800014a:	03cb      	lsls	r3, r1, #15
 800014c:	1ac0      	subs	r0, r0, r3
 800014e:	4152      	adcs	r2, r2
 8000150:	0b83      	lsrs	r3, r0, #14
 8000152:	428b      	cmp	r3, r1
 8000154:	d301      	bcc.n	800015a <__udivsi3+0x52>
 8000156:	038b      	lsls	r3, r1, #14
 8000158:	1ac0      	subs	r0, r0, r3
 800015a:	4152      	adcs	r2, r2
 800015c:	0b43      	lsrs	r3, r0, #13
 800015e:	428b      	cmp	r3, r1
 8000160:	d301      	bcc.n	8000166 <__udivsi3+0x5e>
 8000162:	034b      	lsls	r3, r1, #13
 8000164:	1ac0      	subs	r0, r0, r3
 8000166:	4152      	adcs	r2, r2
 8000168:	0b03      	lsrs	r3, r0, #12
 800016a:	428b      	cmp	r3, r1
 800016c:	d301      	bcc.n	8000172 <__udivsi3+0x6a>
 800016e:	030b      	lsls	r3, r1, #12
 8000170:	1ac0      	subs	r0, r0, r3
 8000172:	4152      	adcs	r2, r2
 8000174:	0ac3      	lsrs	r3, r0, #11
 8000176:	428b      	cmp	r3, r1
 8000178:	d301      	bcc.n	800017e <__udivsi3+0x76>
 800017a:	02cb      	lsls	r3, r1, #11
 800017c:	1ac0      	subs	r0, r0, r3
 800017e:	4152      	adcs	r2, r2
 8000180:	0a83      	lsrs	r3, r0, #10
 8000182:	428b      	cmp	r3, r1
 8000184:	d301      	bcc.n	800018a <__udivsi3+0x82>
 8000186:	028b      	lsls	r3, r1, #10
 8000188:	1ac0      	subs	r0, r0, r3
 800018a:	4152      	adcs	r2, r2
 800018c:	0a43      	lsrs	r3, r0, #9
 800018e:	428b      	cmp	r3, r1
 8000190:	d301      	bcc.n	8000196 <__udivsi3+0x8e>
 8000192:	024b      	lsls	r3, r1, #9
 8000194:	1ac0      	subs	r0, r0, r3
 8000196:	4152      	adcs	r2, r2
 8000198:	0a03      	lsrs	r3, r0, #8
 800019a:	428b      	cmp	r3, r1
 800019c:	d301      	bcc.n	80001a2 <__udivsi3+0x9a>
 800019e:	020b      	lsls	r3, r1, #8
 80001a0:	1ac0      	subs	r0, r0, r3
 80001a2:	4152      	adcs	r2, r2
 80001a4:	d2cd      	bcs.n	8000142 <__udivsi3+0x3a>
 80001a6:	09c3      	lsrs	r3, r0, #7
 80001a8:	428b      	cmp	r3, r1
 80001aa:	d301      	bcc.n	80001b0 <__udivsi3+0xa8>
 80001ac:	01cb      	lsls	r3, r1, #7
 80001ae:	1ac0      	subs	r0, r0, r3
 80001b0:	4152      	adcs	r2, r2
 80001b2:	0983      	lsrs	r3, r0, #6
 80001b4:	428b      	cmp	r3, r1
 80001b6:	d301      	bcc.n	80001bc <__udivsi3+0xb4>
 80001b8:	018b      	lsls	r3, r1, #6
 80001ba:	1ac0      	subs	r0, r0, r3
 80001bc:	4152      	adcs	r2, r2
 80001be:	0943      	lsrs	r3, r0, #5
 80001c0:	428b      	cmp	r3, r1
 80001c2:	d301      	bcc.n	80001c8 <__udivsi3+0xc0>
 80001c4:	014b      	lsls	r3, r1, #5
 80001c6:	1ac0      	subs	r0, r0, r3
 80001c8:	4152      	adcs	r2, r2
 80001ca:	0903      	lsrs	r3, r0, #4
 80001cc:	428b      	cmp	r3, r1
 80001ce:	d301      	bcc.n	80001d4 <__udivsi3+0xcc>
 80001d0:	010b      	lsls	r3, r1, #4
 80001d2:	1ac0      	subs	r0, r0, r3
 80001d4:	4152      	adcs	r2, r2
 80001d6:	08c3      	lsrs	r3, r0, #3
 80001d8:	428b      	cmp	r3, r1
 80001da:	d301      	bcc.n	80001e0 <__udivsi3+0xd8>
 80001dc:	00cb      	lsls	r3, r1, #3
 80001de:	1ac0      	subs	r0, r0, r3
 80001e0:	4152      	adcs	r2, r2
 80001e2:	0883      	lsrs	r3, r0, #2
 80001e4:	428b      	cmp	r3, r1
 80001e6:	d301      	bcc.n	80001ec <__udivsi3+0xe4>
 80001e8:	008b      	lsls	r3, r1, #2
 80001ea:	1ac0      	subs	r0, r0, r3
 80001ec:	4152      	adcs	r2, r2
 80001ee:	0843      	lsrs	r3, r0, #1
 80001f0:	428b      	cmp	r3, r1
 80001f2:	d301      	bcc.n	80001f8 <__udivsi3+0xf0>
 80001f4:	004b      	lsls	r3, r1, #1
 80001f6:	1ac0      	subs	r0, r0, r3
 80001f8:	4152      	adcs	r2, r2
 80001fa:	1a41      	subs	r1, r0, r1
 80001fc:	d200      	bcs.n	8000200 <__udivsi3+0xf8>
 80001fe:	4601      	mov	r1, r0
 8000200:	4152      	adcs	r2, r2
 8000202:	4610      	mov	r0, r2
 8000204:	4770      	bx	lr
 8000206:	e7ff      	b.n	8000208 <__udivsi3+0x100>
 8000208:	b501      	push	{r0, lr}
 800020a:	2000      	movs	r0, #0
 800020c:	f000 f806 	bl	800021c <__aeabi_idiv0>
 8000210:	bd02      	pop	{r1, pc}
 8000212:	46c0      	nop			; (mov r8, r8)

08000214 <__aeabi_uidivmod>:
 8000214:	2900      	cmp	r1, #0
 8000216:	d0f7      	beq.n	8000208 <__udivsi3+0x100>
 8000218:	e776      	b.n	8000108 <__udivsi3>
 800021a:	4770      	bx	lr

0800021c <__aeabi_idiv0>:
 800021c:	4770      	bx	lr
 800021e:	46c0      	nop			; (mov r8, r8)

08000220 <__aeabi_uldivmod>:
 8000220:	2b00      	cmp	r3, #0
 8000222:	d111      	bne.n	8000248 <__aeabi_uldivmod+0x28>
 8000224:	2a00      	cmp	r2, #0
 8000226:	d10f      	bne.n	8000248 <__aeabi_uldivmod+0x28>
 8000228:	2900      	cmp	r1, #0
 800022a:	d100      	bne.n	800022e <__aeabi_uldivmod+0xe>
 800022c:	2800      	cmp	r0, #0
 800022e:	d002      	beq.n	8000236 <__aeabi_uldivmod+0x16>
 8000230:	2100      	movs	r1, #0
 8000232:	43c9      	mvns	r1, r1
 8000234:	0008      	movs	r0, r1
 8000236:	b407      	push	{r0, r1, r2}
 8000238:	4802      	ldr	r0, [pc, #8]	; (8000244 <__aeabi_uldivmod+0x24>)
 800023a:	a102      	add	r1, pc, #8	; (adr r1, 8000244 <__aeabi_uldivmod+0x24>)
 800023c:	1840      	adds	r0, r0, r1
 800023e:	9002      	str	r0, [sp, #8]
 8000240:	bd03      	pop	{r0, r1, pc}
 8000242:	46c0      	nop			; (mov r8, r8)
 8000244:	ffffffd9 	.word	0xffffffd9
 8000248:	b403      	push	{r0, r1}
 800024a:	4668      	mov	r0, sp
 800024c:	b501      	push	{r0, lr}
 800024e:	9802      	ldr	r0, [sp, #8]
 8000250:	f000 f834 	bl	80002bc <__udivmoddi4>
 8000254:	9b01      	ldr	r3, [sp, #4]
 8000256:	469e      	mov	lr, r3
 8000258:	b002      	add	sp, #8
 800025a:	bc0c      	pop	{r2, r3}
 800025c:	4770      	bx	lr
 800025e:	46c0      	nop			; (mov r8, r8)

08000260 <__aeabi_lmul>:
 8000260:	b5f0      	push	{r4, r5, r6, r7, lr}
 8000262:	46ce      	mov	lr, r9
 8000264:	4699      	mov	r9, r3
 8000266:	0c03      	lsrs	r3, r0, #16
 8000268:	469c      	mov	ip, r3
 800026a:	0413      	lsls	r3, r2, #16
 800026c:	4647      	mov	r7, r8
 800026e:	0c1b      	lsrs	r3, r3, #16
 8000270:	001d      	movs	r5, r3
 8000272:	000e      	movs	r6, r1
 8000274:	4661      	mov	r1, ip
 8000276:	0404      	lsls	r4, r0, #16
 8000278:	0c24      	lsrs	r4, r4, #16
 800027a:	b580      	push	{r7, lr}
 800027c:	0007      	movs	r7, r0
 800027e:	0c10      	lsrs	r0, r2, #16
 8000280:	434b      	muls	r3, r1
 8000282:	4365      	muls	r5, r4
 8000284:	4341      	muls	r1, r0
 8000286:	4360      	muls	r0, r4
 8000288:	0c2c      	lsrs	r4, r5, #16
 800028a:	18c0      	adds	r0, r0, r3
 800028c:	1820      	adds	r0, r4, r0
 800028e:	468c      	mov	ip, r1
 8000290:	4283      	cmp	r3, r0
 8000292:	d903      	bls.n	800029c <__aeabi_lmul+0x3c>
 8000294:	2380      	movs	r3, #128	; 0x80
 8000296:	025b      	lsls	r3, r3, #9
 8000298:	4698      	mov	r8, r3
 800029a:	44c4      	add	ip, r8
 800029c:	4649      	mov	r1, r9
 800029e:	4379      	muls	r1, r7
 80002a0:	4356      	muls	r6, r2
 80002a2:	0c03      	lsrs	r3, r0, #16
 80002a4:	042d      	lsls	r5, r5, #16
 80002a6:	0c2d      	lsrs	r5, r5, #16
 80002a8:	1989      	adds	r1, r1, r6
 80002aa:	4463      	add	r3, ip
 80002ac:	0400      	lsls	r0, r0, #16
 80002ae:	1940      	adds	r0, r0, r5
 80002b0:	18c9      	adds	r1, r1, r3
 80002b2:	bcc0      	pop	{r6, r7}
 80002b4:	46b9      	mov	r9, r7
 80002b6:	46b0      	mov	r8, r6
 80002b8:	bdf0      	pop	{r4, r5, r6, r7, pc}
 80002ba:	46c0      	nop			; (mov r8, r8)

080002bc <__udivmoddi4>:
 80002bc:	b5f0      	push	{r4, r5, r6, r7, lr}
 80002be:	4657      	mov	r7, sl
 80002c0:	464e      	mov	r6, r9
 80002c2:	4645      	mov	r5, r8
 80002c4:	46de      	mov	lr, fp
 80002c6:	b5e0      	push	{r5, r6, r7, lr}
 80002c8:	0004      	movs	r4, r0
 80002ca:	000d      	movs	r5, r1
 80002cc:	4692      	mov	sl, r2
 80002ce:	4699      	mov	r9, r3
 80002d0:	b083      	sub	sp, #12
 80002d2:	428b      	cmp	r3, r1
 80002d4:	d830      	bhi.n	8000338 <__udivmoddi4+0x7c>
 80002d6:	d02d      	beq.n	8000334 <__udivmoddi4+0x78>
 80002d8:	4649      	mov	r1, r9
 80002da:	4650      	mov	r0, sl
 80002dc:	f000 f8ba 	bl	8000454 <__clzdi2>
 80002e0:	0029      	movs	r1, r5
 80002e2:	0006      	movs	r6, r0
 80002e4:	0020      	movs	r0, r4
 80002e6:	f000 f8b5 	bl	8000454 <__clzdi2>
 80002ea:	1a33      	subs	r3, r6, r0
 80002ec:	4698      	mov	r8, r3
 80002ee:	3b20      	subs	r3, #32
 80002f0:	d434      	bmi.n	800035c <__udivmoddi4+0xa0>
 80002f2:	469b      	mov	fp, r3
 80002f4:	4653      	mov	r3, sl
 80002f6:	465a      	mov	r2, fp
 80002f8:	4093      	lsls	r3, r2
 80002fa:	4642      	mov	r2, r8
 80002fc:	001f      	movs	r7, r3
 80002fe:	4653      	mov	r3, sl
 8000300:	4093      	lsls	r3, r2
 8000302:	001e      	movs	r6, r3
 8000304:	42af      	cmp	r7, r5
 8000306:	d83b      	bhi.n	8000380 <__udivmoddi4+0xc4>
 8000308:	42af      	cmp	r7, r5
 800030a:	d100      	bne.n	800030e <__udivmoddi4+0x52>
 800030c:	e079      	b.n	8000402 <__udivmoddi4+0x146>
 800030e:	465b      	mov	r3, fp
 8000310:	1ba4      	subs	r4, r4, r6
 8000312:	41bd      	sbcs	r5, r7
 8000314:	2b00      	cmp	r3, #0
 8000316:	da00      	bge.n	800031a <__udivmoddi4+0x5e>
 8000318:	e076      	b.n	8000408 <__udivmoddi4+0x14c>
 800031a:	2200      	movs	r2, #0
 800031c:	2300      	movs	r3, #0
 800031e:	9200      	str	r2, [sp, #0]
 8000320:	9301      	str	r3, [sp, #4]
 8000322:	2301      	movs	r3, #1
 8000324:	465a      	mov	r2, fp
 8000326:	4093      	lsls	r3, r2
 8000328:	9301      	str	r3, [sp, #4]
 800032a:	2301      	movs	r3, #1
 800032c:	4642      	mov	r2, r8
 800032e:	4093      	lsls	r3, r2
 8000330:	9300      	str	r3, [sp, #0]
 8000332:	e029      	b.n	8000388 <__udivmoddi4+0xcc>
 8000334:	4282      	cmp	r2, r0
 8000336:	d9cf      	bls.n	80002d8 <__udivmoddi4+0x1c>
 8000338:	2200      	movs	r2, #0
 800033a:	2300      	movs	r3, #0
 800033c:	9200      	str	r2, [sp, #0]
 800033e:	9301      	str	r3, [sp, #4]
 8000340:	9b0c      	ldr	r3, [sp, #48]	; 0x30
 8000342:	2b00      	cmp	r3, #0
 8000344:	d001      	beq.n	800034a <__udivmoddi4+0x8e>
 8000346:	601c      	str	r4, [r3, #0]
 8000348:	605d      	str	r5, [r3, #4]
 800034a:	9800      	ldr	r0, [sp, #0]
 800034c:	9901      	ldr	r1, [sp, #4]
 800034e:	b003      	add	sp, #12
 8000350:	bcf0      	pop	{r4, r5, r6, r7}
 8000352:	46bb      	mov	fp, r7
 8000354:	46b2      	mov	sl, r6
 8000356:	46a9      	mov	r9, r5
 8000358:	46a0      	mov	r8, r4
 800035a:	bdf0      	pop	{r4, r5, r6, r7, pc}
 800035c:	4642      	mov	r2, r8
 800035e:	469b      	mov	fp, r3
 8000360:	2320      	movs	r3, #32
 8000362:	1a9b      	subs	r3, r3, r2
 8000364:	4652      	mov	r2, sl
 8000366:	40da      	lsrs	r2, r3
 8000368:	4641      	mov	r1, r8
 800036a:	0013      	movs	r3, r2
 800036c:	464a      	mov	r2, r9
 800036e:	408a      	lsls	r2, r1
 8000370:	0017      	movs	r7, r2
 8000372:	4642      	mov	r2, r8
 8000374:	431f      	orrs	r7, r3
 8000376:	4653      	mov	r3, sl
 8000378:	4093      	lsls	r3, r2
 800037a:	001e      	movs	r6, r3
 800037c:	42af      	cmp	r7, r5
 800037e:	d9c3      	bls.n	8000308 <__udivmoddi4+0x4c>
 8000380:	2200      	movs	r2, #0
 8000382:	2300      	movs	r3, #0
 8000384:	9200      	str	r2, [sp, #0]
 8000386:	9301      	str	r3, [sp, #4]
 8000388:	4643      	mov	r3, r8
 800038a:	2b00      	cmp	r3, #0
 800038c:	d0d8      	beq.n	8000340 <__udivmoddi4+0x84>
 800038e:	07fb      	lsls	r3, r7, #31
 8000390:	0872      	lsrs	r2, r6, #1
 8000392:	431a      	orrs	r2, r3
 8000394:	4646      	mov	r6, r8
 8000396:	087b      	lsrs	r3, r7, #1
 8000398:	e00e      	b.n	80003b8 <__udivmoddi4+0xfc>
 800039a:	42ab      	cmp	r3, r5
 800039c:	d101      	bne.n	80003a2 <__udivmoddi4+0xe6>
 800039e:	42a2      	cmp	r2, r4
 80003a0:	d80c      	bhi.n	80003bc <__udivmoddi4+0x100>
 80003a2:	1aa4      	subs	r4, r4, r2
 80003a4:	419d      	sbcs	r5, r3
 80003a6:	2001      	movs	r0, #1
 80003a8:	1924      	adds	r4, r4, r4
 80003aa:	416d      	adcs	r5, r5
 80003ac:	2100      	movs	r1, #0
 80003ae:	3e01      	subs	r6, #1
 80003b0:	1824      	adds	r4, r4, r0
 80003b2:	414d      	adcs	r5, r1
 80003b4:	2e00      	cmp	r6, #0
 80003b6:	d006      	beq.n	80003c6 <__udivmoddi4+0x10a>
 80003b8:	42ab      	cmp	r3, r5
 80003ba:	d9ee      	bls.n	800039a <__udivmoddi4+0xde>
 80003bc:	3e01      	subs	r6, #1
 80003be:	1924      	adds	r4, r4, r4
 80003c0:	416d      	adcs	r5, r5
 80003c2:	2e00      	cmp	r6, #0
 80003c4:	d1f8      	bne.n	80003b8 <__udivmoddi4+0xfc>
 80003c6:	9800      	ldr	r0, [sp, #0]
 80003c8:	9901      	ldr	r1, [sp, #4]
 80003ca:	465b      	mov	r3, fp
 80003cc:	1900      	adds	r0, r0, r4
 80003ce:	4169      	adcs	r1, r5
 80003d0:	2b00      	cmp	r3, #0
 80003d2:	db24      	blt.n	800041e <__udivmoddi4+0x162>
 80003d4:	002b      	movs	r3, r5
 80003d6:	465a      	mov	r2, fp
 80003d8:	4644      	mov	r4, r8
 80003da:	40d3      	lsrs	r3, r2
 80003dc:	002a      	movs	r2, r5
 80003de:	40e2      	lsrs	r2, r4
 80003e0:	001c      	movs	r4, r3
 80003e2:	465b      	mov	r3, fp
 80003e4:	0015      	movs	r5, r2
 80003e6:	2b00      	cmp	r3, #0
 80003e8:	db2a      	blt.n	8000440 <__udivmoddi4+0x184>
 80003ea:	0026      	movs	r6, r4
 80003ec:	409e      	lsls	r6, r3
 80003ee:	0033      	movs	r3, r6
 80003f0:	0026      	movs	r6, r4
 80003f2:	4647      	mov	r7, r8
 80003f4:	40be      	lsls	r6, r7
 80003f6:	0032      	movs	r2, r6
 80003f8:	1a80      	subs	r0, r0, r2
 80003fa:	4199      	sbcs	r1, r3
 80003fc:	9000      	str	r0, [sp, #0]
 80003fe:	9101      	str	r1, [sp, #4]
 8000400:	e79e      	b.n	8000340 <__udivmoddi4+0x84>
 8000402:	42a3      	cmp	r3, r4
 8000404:	d8bc      	bhi.n	8000380 <__udivmoddi4+0xc4>
 8000406:	e782      	b.n	800030e <__udivmoddi4+0x52>
 8000408:	4642      	mov	r2, r8
 800040a:	2320      	movs	r3, #32
 800040c:	2100      	movs	r1, #0
 800040e:	1a9b      	subs	r3, r3, r2
 8000410:	2200      	movs	r2, #0
 8000412:	9100      	str	r1, [sp, #0]
 8000414:	9201      	str	r2, [sp, #4]
 8000416:	2201      	movs	r2, #1
 8000418:	40da      	lsrs	r2, r3
 800041a:	9201      	str	r2, [sp, #4]
 800041c:	e785      	b.n	800032a <__udivmoddi4+0x6e>
 800041e:	4642      	mov	r2, r8
 8000420:	2320      	movs	r3, #32
 8000422:	1a9b      	subs	r3, r3, r2
 8000424:	002a      	movs	r2, r5
 8000426:	4646      	mov	r6, r8
 8000428:	409a      	lsls	r2, r3
 800042a:	0023      	movs	r3, r4
 800042c:	40f3      	lsrs	r3, r6
 800042e:	4644      	mov	r4, r8
 8000430:	4313      	orrs	r3, r2
 8000432:	002a      	movs	r2, r5
 8000434:	40e2      	lsrs	r2, r4
 8000436:	001c      	movs	r4, r3
 8000438:	465b      	mov	r3, fp
 800043a:	0015      	movs	r5, r2
 800043c:	2b00      	cmp	r3, #0
 800043e:	dad4      	bge.n	80003ea <__udivmoddi4+0x12e>
 8000440:	4642      	mov	r2, r8
 8000442:	002f      	movs	r7, r5
 8000444:	2320      	movs	r3, #32
 8000446:	0026      	movs	r6, r4
 8000448:	4097      	lsls	r7, r2
 800044a:	1a9b      	subs	r3, r3, r2
 800044c:	40de      	lsrs	r6, r3
 800044e:	003b      	movs	r3, r7
 8000450:	4333      	orrs	r3, r6
 8000452:	e7cd      	b.n	80003f0 <__udivmoddi4+0x134>

08000454 <__clzdi2>:
 8000454:	b510      	push	{r4, lr}
 8000456:	2900      	cmp	r1, #0
 8000458:	d103      	bne.n	8000462 <__clzdi2+0xe>
 800045a:	f000 f807 	bl	800046c <__clzsi2>
 800045e:	3020      	adds	r0, #32
 8000460:	e002      	b.n	8000468 <__clzdi2+0x14>
 8000462:	0008      	movs	r0, r1
 8000464:	f000 f802 	bl	800046c <__clzsi2>
 8000468:	bd10      	pop	{r4, pc}
 800046a:	46c0      	nop			; (mov r8, r8)

0800046c <__clzsi2>:
 800046c:	211c      	movs	r1, #28
 800046e:	2301      	movs	r3, #1
 8000470:	041b      	lsls	r3, r3, #16
 8000472:	4298      	cmp	r0, r3
 8000474:	d301      	bcc.n	800047a <__clzsi2+0xe>
 8000476:	0c00      	lsrs	r0, r0, #16
 8000478:	3910      	subs	r1, #16
 800047a:	0a1b      	lsrs	r3, r3, #8
 800047c:	4298      	cmp	r0, r3
 800047e:	d301      	bcc.n	8000484 <__clzsi2+0x18>
 8000480:	0a00      	lsrs	r0, r0, #8
 8000482:	3908      	subs	r1, #8
 8000484:	091b      	lsrs	r3, r3, #4
 8000486:	4298      	cmp	r0, r3
 8000488:	d301      	bcc.n	800048e <__clzsi2+0x22>
 800048a:	0900      	lsrs	r0, r0, #4
 800048c:	3904      	subs	r1, #4
 800048e:	a202      	add	r2, pc, #8	; (adr r2, 8000498 <__clzsi2+0x2c>)
 8000490:	5c10      	ldrb	r0, [r2, r0]
 8000492:	1840      	adds	r0, r0, r1
 8000494:	4770      	bx	lr
 8000496:	46c0      	nop			; (mov r8, r8)
 8000498:	02020304 	.word	0x02020304
 800049c:	01010101 	.word	0x01010101
	...

080004a8 <MX_DMA_Init>:

/**
  * Enable DMA controller clock
  */
void MX_DMA_Init(void)
{
 80004a8:	b580      	push	{r7, lr}
 80004aa:	b082      	sub	sp, #8
 80004ac:	af00      	add	r7, sp, #0

  /* DMA controller clock enable */
  __HAL_RCC_DMA1_CLK_ENABLE();
 80004ae:	4b0c      	ldr	r3, [pc, #48]	; (80004e0 <MX_DMA_Init+0x38>)
 80004b0:	6b1a      	ldr	r2, [r3, #48]	; 0x30
 80004b2:	4b0b      	ldr	r3, [pc, #44]	; (80004e0 <MX_DMA_Init+0x38>)
 80004b4:	2101      	movs	r1, #1
 80004b6:	430a      	orrs	r2, r1
 80004b8:	631a      	str	r2, [r3, #48]	; 0x30
 80004ba:	4b09      	ldr	r3, [pc, #36]	; (80004e0 <MX_DMA_Init+0x38>)
 80004bc:	6b1b      	ldr	r3, [r3, #48]	; 0x30
 80004be:	2201      	movs	r2, #1
 80004c0:	4013      	ands	r3, r2
 80004c2:	607b      	str	r3, [r7, #4]
 80004c4:	687b      	ldr	r3, [r7, #4]

  /* DMA interrupt init */
  /* DMA1_Channel1_IRQn interrupt configuration */
  HAL_NVIC_SetPriority(DMA1_Channel1_IRQn, 0, 0);
 80004c6:	2200      	movs	r2, #0
 80004c8:	2100      	movs	r1, #0
 80004ca:	2009      	movs	r0, #9
 80004cc:	f002 ffdc 	bl	8003488 <HAL_NVIC_SetPriority>
  HAL_NVIC_EnableIRQ(DMA1_Channel1_IRQn);
 80004d0:	2009      	movs	r0, #9
 80004d2:	f002 ffee 	bl	80034b2 <HAL_NVIC_EnableIRQ>

}
 80004d6:	46c0      	nop			; (mov r8, r8)
 80004d8:	46bd      	mov	sp, r7
 80004da:	b002      	add	sp, #8
 80004dc:	bd80      	pop	{r7, pc}
 80004de:	46c0      	nop			; (mov r8, r8)
 80004e0:	40021000 	.word	0x40021000

080004e4 <MX_GPIO_Init>:
        * Output
        * EVENT_OUT
        * EXTI
*/
void MX_GPIO_Init(void)
{
 80004e4:	b590      	push	{r4, r7, lr}
 80004e6:	b089      	sub	sp, #36	; 0x24
 80004e8:	af00      	add	r7, sp, #0

  GPIO_InitTypeDef GPIO_InitStruct = {0};
 80004ea:	240c      	movs	r4, #12
 80004ec:	193b      	adds	r3, r7, r4
 80004ee:	0018      	movs	r0, r3
 80004f0:	2314      	movs	r3, #20
 80004f2:	001a      	movs	r2, r3
 80004f4:	2100      	movs	r1, #0
 80004f6:	f006 fea1 	bl	800723c <memset>

  /* GPIO Ports Clock Enable */
  __HAL_RCC_GPIOA_CLK_ENABLE();
 80004fa:	4b2f      	ldr	r3, [pc, #188]	; (80005b8 <MX_GPIO_Init+0xd4>)
 80004fc:	6ada      	ldr	r2, [r3, #44]	; 0x2c
 80004fe:	4b2e      	ldr	r3, [pc, #184]	; (80005b8 <MX_GPIO_Init+0xd4>)
 8000500:	2101      	movs	r1, #1
 8000502:	430a      	orrs	r2, r1
 8000504:	62da      	str	r2, [r3, #44]	; 0x2c
 8000506:	4b2c      	ldr	r3, [pc, #176]	; (80005b8 <MX_GPIO_Init+0xd4>)
 8000508:	6adb      	ldr	r3, [r3, #44]	; 0x2c
 800050a:	2201      	movs	r2, #1
 800050c:	4013      	ands	r3, r2
 800050e:	60bb      	str	r3, [r7, #8]
 8000510:	68bb      	ldr	r3, [r7, #8]
  __HAL_RCC_GPIOB_CLK_ENABLE();
 8000512:	4b29      	ldr	r3, [pc, #164]	; (80005b8 <MX_GPIO_Init+0xd4>)
 8000514:	6ada      	ldr	r2, [r3, #44]	; 0x2c
 8000516:	4b28      	ldr	r3, [pc, #160]	; (80005b8 <MX_GPIO_Init+0xd4>)
 8000518:	2102      	movs	r1, #2
 800051a:	430a      	orrs	r2, r1
 800051c:	62da      	str	r2, [r3, #44]	; 0x2c
 800051e:	4b26      	ldr	r3, [pc, #152]	; (80005b8 <MX_GPIO_Init+0xd4>)
 8000520:	6adb      	ldr	r3, [r3, #44]	; 0x2c
 8000522:	2202      	movs	r2, #2
 8000524:	4013      	ands	r3, r2
 8000526:	607b      	str	r3, [r7, #4]
 8000528:	687b      	ldr	r3, [r7, #4]

  /*Configure GPIO pin Output Level */
  HAL_GPIO_WritePin(sr_shift_output_GPIO_Port, sr_shift_output_Pin, GPIO_PIN_RESET);
 800052a:	23a0      	movs	r3, #160	; 0xa0
 800052c:	05db      	lsls	r3, r3, #23
 800052e:	2200      	movs	r2, #0
 8000530:	2140      	movs	r1, #64	; 0x40
 8000532:	0018      	movs	r0, r3
 8000534:	f003 fd09 	bl	8003f4a <HAL_GPIO_WritePin>

  /*Configure GPIO pin Output Level */
  HAL_GPIO_WritePin(enable_hv_GPIO_Port, enable_hv_Pin, GPIO_PIN_RESET);
 8000538:	4b20      	ldr	r3, [pc, #128]	; (80005bc <MX_GPIO_Init+0xd8>)
 800053a:	2200      	movs	r2, #0
 800053c:	2102      	movs	r1, #2
 800053e:	0018      	movs	r0, r3
 8000540:	f003 fd03 	bl	8003f4a <HAL_GPIO_WritePin>

  /*Configure GPIO pins : PAPin PAPin PAPin PAPin */
  GPIO_InitStruct.Pin = rot_b_Pin|rot_a_Pin|sens_size_Pin|rot_push_Pin;
 8000544:	193b      	adds	r3, r7, r4
 8000546:	221b      	movs	r2, #27
 8000548:	601a      	str	r2, [r3, #0]
  GPIO_InitStruct.Mode = GPIO_MODE_INPUT;
 800054a:	193b      	adds	r3, r7, r4
 800054c:	2200      	movs	r2, #0
 800054e:	605a      	str	r2, [r3, #4]
  GPIO_InitStruct.Pull = GPIO_PULLDOWN;
 8000550:	193b      	adds	r3, r7, r4
 8000552:	2202      	movs	r2, #2
 8000554:	609a      	str	r2, [r3, #8]
  HAL_GPIO_Init(GPIOA, &GPIO_InitStruct);
 8000556:	193a      	adds	r2, r7, r4
 8000558:	23a0      	movs	r3, #160	; 0xa0
 800055a:	05db      	lsls	r3, r3, #23
 800055c:	0011      	movs	r1, r2
 800055e:	0018      	movs	r0, r3
 8000560:	f003 fb68 	bl	8003c34 <HAL_GPIO_Init>

  /*Configure GPIO pin : PtPin */
  GPIO_InitStruct.Pin = sr_shift_output_Pin;
 8000564:	193b      	adds	r3, r7, r4
 8000566:	2240      	movs	r2, #64	; 0x40
 8000568:	601a      	str	r2, [r3, #0]
  GPIO_InitStruct.Mode = GPIO_MODE_OUTPUT_PP;
 800056a:	193b      	adds	r3, r7, r4
 800056c:	2201      	movs	r2, #1
 800056e:	605a      	str	r2, [r3, #4]
  GPIO_InitStruct.Pull = GPIO_NOPULL;
 8000570:	193b      	adds	r3, r7, r4
 8000572:	2200      	movs	r2, #0
 8000574:	609a      	str	r2, [r3, #8]
  GPIO_InitStruct.Speed = GPIO_SPEED_FREQ_LOW;
 8000576:	193b      	adds	r3, r7, r4
 8000578:	2200      	movs	r2, #0
 800057a:	60da      	str	r2, [r3, #12]
  HAL_GPIO_Init(sr_shift_output_GPIO_Port, &GPIO_InitStruct);
 800057c:	193a      	adds	r2, r7, r4
 800057e:	23a0      	movs	r3, #160	; 0xa0
 8000580:	05db      	lsls	r3, r3, #23
 8000582:	0011      	movs	r1, r2
 8000584:	0018      	movs	r0, r3
 8000586:	f003 fb55 	bl	8003c34 <HAL_GPIO_Init>

  /*Configure GPIO pin : PtPin */
  GPIO_InitStruct.Pin = enable_hv_Pin;
 800058a:	0021      	movs	r1, r4
 800058c:	187b      	adds	r3, r7, r1
 800058e:	2202      	movs	r2, #2
 8000590:	601a      	str	r2, [r3, #0]
  GPIO_InitStruct.Mode = GPIO_MODE_OUTPUT_PP;
 8000592:	187b      	adds	r3, r7, r1
 8000594:	2201      	movs	r2, #1
 8000596:	605a      	str	r2, [r3, #4]
  GPIO_InitStruct.Pull = GPIO_NOPULL;
 8000598:	187b      	adds	r3, r7, r1
 800059a:	2200      	movs	r2, #0
 800059c:	609a      	str	r2, [r3, #8]
  GPIO_InitStruct.Speed = GPIO_SPEED_FREQ_LOW;
 800059e:	187b      	adds	r3, r7, r1
 80005a0:	2200      	movs	r2, #0
 80005a2:	60da      	str	r2, [r3, #12]
  HAL_GPIO_Init(enable_hv_GPIO_Port, &GPIO_InitStruct);
 80005a4:	187b      	adds	r3, r7, r1
 80005a6:	4a05      	ldr	r2, [pc, #20]	; (80005bc <MX_GPIO_Init+0xd8>)
 80005a8:	0019      	movs	r1, r3
 80005aa:	0010      	movs	r0, r2
 80005ac:	f003 fb42 	bl	8003c34 <HAL_GPIO_Init>

}
 80005b0:	46c0      	nop			; (mov r8, r8)
 80005b2:	46bd      	mov	sp, r7
 80005b4:	b009      	add	sp, #36	; 0x24
 80005b6:	bd90      	pop	{r4, r7, pc}
 80005b8:	40021000 	.word	0x40021000
 80005bc:	50000400 	.word	0x50000400

080005c0 <MX_I2C1_Init>:

I2C_HandleTypeDef hi2c1;

/* I2C1 init function */
void MX_I2C1_Init(void)
{
 80005c0:	b580      	push	{r7, lr}
 80005c2:	af00      	add	r7, sp, #0
  /* USER CODE END I2C1_Init 0 */

  /* USER CODE BEGIN I2C1_Init 1 */

  /* USER CODE END I2C1_Init 1 */
  hi2c1.Instance = I2C1;
 80005c4:	4b1b      	ldr	r3, [pc, #108]	; (8000634 <MX_I2C1_Init+0x74>)
 80005c6:	4a1c      	ldr	r2, [pc, #112]	; (8000638 <MX_I2C1_Init+0x78>)
 80005c8:	601a      	str	r2, [r3, #0]
  hi2c1.Init.Timing = 0x0060112F;
 80005ca:	4b1a      	ldr	r3, [pc, #104]	; (8000634 <MX_I2C1_Init+0x74>)
 80005cc:	4a1b      	ldr	r2, [pc, #108]	; (800063c <MX_I2C1_Init+0x7c>)
 80005ce:	605a      	str	r2, [r3, #4]
  hi2c1.Init.OwnAddress1 = 0;
 80005d0:	4b18      	ldr	r3, [pc, #96]	; (8000634 <MX_I2C1_Init+0x74>)
 80005d2:	2200      	movs	r2, #0
 80005d4:	609a      	str	r2, [r3, #8]
  hi2c1.Init.AddressingMode = I2C_ADDRESSINGMODE_7BIT;
 80005d6:	4b17      	ldr	r3, [pc, #92]	; (8000634 <MX_I2C1_Init+0x74>)
 80005d8:	2201      	movs	r2, #1
 80005da:	60da      	str	r2, [r3, #12]
  hi2c1.Init.DualAddressMode = I2C_DUALADDRESS_DISABLE;
 80005dc:	4b15      	ldr	r3, [pc, #84]	; (8000634 <MX_I2C1_Init+0x74>)
 80005de:	2200      	movs	r2, #0
 80005e0:	611a      	str	r2, [r3, #16]
  hi2c1.Init.OwnAddress2 = 0;
 80005e2:	4b14      	ldr	r3, [pc, #80]	; (8000634 <MX_I2C1_Init+0x74>)
 80005e4:	2200      	movs	r2, #0
 80005e6:	615a      	str	r2, [r3, #20]
  hi2c1.Init.OwnAddress2Masks = I2C_OA2_NOMASK;
 80005e8:	4b12      	ldr	r3, [pc, #72]	; (8000634 <MX_I2C1_Init+0x74>)
 80005ea:	2200      	movs	r2, #0
 80005ec:	619a      	str	r2, [r3, #24]
  hi2c1.Init.GeneralCallMode = I2C_GENERALCALL_DISABLE;
 80005ee:	4b11      	ldr	r3, [pc, #68]	; (8000634 <MX_I2C1_Init+0x74>)
 80005f0:	2200      	movs	r2, #0
 80005f2:	61da      	str	r2, [r3, #28]
  hi2c1.Init.NoStretchMode = I2C_NOSTRETCH_DISABLE;
 80005f4:	4b0f      	ldr	r3, [pc, #60]	; (8000634 <MX_I2C1_Init+0x74>)
 80005f6:	2200      	movs	r2, #0
 80005f8:	621a      	str	r2, [r3, #32]
  if (HAL_I2C_Init(&hi2c1) != HAL_OK)
 80005fa:	4b0e      	ldr	r3, [pc, #56]	; (8000634 <MX_I2C1_Init+0x74>)
 80005fc:	0018      	movs	r0, r3
 80005fe:	f003 fcc1 	bl	8003f84 <HAL_I2C_Init>
 8000602:	1e03      	subs	r3, r0, #0
 8000604:	d001      	beq.n	800060a <MX_I2C1_Init+0x4a>
  {
    Error_Handler();
 8000606:	f000 fcd1 	bl	8000fac <Error_Handler>
  }

  /** Configure Analogue filter
  */
  if (HAL_I2CEx_ConfigAnalogFilter(&hi2c1, I2C_ANALOGFILTER_ENABLE) != HAL_OK)
 800060a:	4b0a      	ldr	r3, [pc, #40]	; (8000634 <MX_I2C1_Init+0x74>)
 800060c:	2100      	movs	r1, #0
 800060e:	0018      	movs	r0, r3
 8000610:	f004 fa14 	bl	8004a3c <HAL_I2CEx_ConfigAnalogFilter>
 8000614:	1e03      	subs	r3, r0, #0
 8000616:	d001      	beq.n	800061c <MX_I2C1_Init+0x5c>
  {
    Error_Handler();
 8000618:	f000 fcc8 	bl	8000fac <Error_Handler>
  }

  /** Configure Digital filter
  */
  if (HAL_I2CEx_ConfigDigitalFilter(&hi2c1, 0) != HAL_OK)
 800061c:	4b05      	ldr	r3, [pc, #20]	; (8000634 <MX_I2C1_Init+0x74>)
 800061e:	2100      	movs	r1, #0
 8000620:	0018      	movs	r0, r3
 8000622:	f004 fa57 	bl	8004ad4 <HAL_I2CEx_ConfigDigitalFilter>
 8000626:	1e03      	subs	r3, r0, #0
 8000628:	d001      	beq.n	800062e <MX_I2C1_Init+0x6e>
  {
    Error_Handler();
 800062a:	f000 fcbf 	bl	8000fac <Error_Handler>
  }
  /* USER CODE BEGIN I2C1_Init 2 */

  /* USER CODE END I2C1_Init 2 */

}
 800062e:	46c0      	nop			; (mov r8, r8)
 8000630:	46bd      	mov	sp, r7
 8000632:	bd80      	pop	{r7, pc}
 8000634:	20000050 	.word	0x20000050
 8000638:	40005400 	.word	0x40005400
 800063c:	0060112f 	.word	0x0060112f

08000640 <HAL_I2C_MspInit>:

void HAL_I2C_MspInit(I2C_HandleTypeDef* i2cHandle)
{
 8000640:	b590      	push	{r4, r7, lr}
 8000642:	b089      	sub	sp, #36	; 0x24
 8000644:	af00      	add	r7, sp, #0
 8000646:	6078      	str	r0, [r7, #4]

  GPIO_InitTypeDef GPIO_InitStruct = {0};
 8000648:	240c      	movs	r4, #12
 800064a:	193b      	adds	r3, r7, r4
 800064c:	0018      	movs	r0, r3
 800064e:	2314      	movs	r3, #20
 8000650:	001a      	movs	r2, r3
 8000652:	2100      	movs	r1, #0
 8000654:	f006 fdf2 	bl	800723c <memset>
  if(i2cHandle->Instance==I2C1)
 8000658:	687b      	ldr	r3, [r7, #4]
 800065a:	681b      	ldr	r3, [r3, #0]
 800065c:	4a18      	ldr	r2, [pc, #96]	; (80006c0 <HAL_I2C_MspInit+0x80>)
 800065e:	4293      	cmp	r3, r2
 8000660:	d12a      	bne.n	80006b8 <HAL_I2C_MspInit+0x78>
  {
  /* USER CODE BEGIN I2C1_MspInit 0 */

  /* USER CODE END I2C1_MspInit 0 */

    __HAL_RCC_GPIOA_CLK_ENABLE();
 8000662:	4b18      	ldr	r3, [pc, #96]	; (80006c4 <HAL_I2C_MspInit+0x84>)
 8000664:	6ada      	ldr	r2, [r3, #44]	; 0x2c
 8000666:	4b17      	ldr	r3, [pc, #92]	; (80006c4 <HAL_I2C_MspInit+0x84>)
 8000668:	2101      	movs	r1, #1
 800066a:	430a      	orrs	r2, r1
 800066c:	62da      	str	r2, [r3, #44]	; 0x2c
 800066e:	4b15      	ldr	r3, [pc, #84]	; (80006c4 <HAL_I2C_MspInit+0x84>)
 8000670:	6adb      	ldr	r3, [r3, #44]	; 0x2c
 8000672:	2201      	movs	r2, #1
 8000674:	4013      	ands	r3, r2
 8000676:	60bb      	str	r3, [r7, #8]
 8000678:	68bb      	ldr	r3, [r7, #8]
    /**I2C1 GPIO Configuration
    PA9     ------> I2C1_SCL
    PA10     ------> I2C1_SDA
    */
    GPIO_InitStruct.Pin = GPIO_PIN_9|GPIO_PIN_10;
 800067a:	193b      	adds	r3, r7, r4
 800067c:	22c0      	movs	r2, #192	; 0xc0
 800067e:	00d2      	lsls	r2, r2, #3
 8000680:	601a      	str	r2, [r3, #0]
    GPIO_InitStruct.Mode = GPIO_MODE_AF_OD;
 8000682:	0021      	movs	r1, r4
 8000684:	187b      	adds	r3, r7, r1
 8000686:	2212      	movs	r2, #18
 8000688:	605a      	str	r2, [r3, #4]
    GPIO_InitStruct.Pull = GPIO_NOPULL;
 800068a:	187b      	adds	r3, r7, r1
 800068c:	2200      	movs	r2, #0
 800068e:	609a      	str	r2, [r3, #8]
    GPIO_InitStruct.Speed = GPIO_SPEED_FREQ_VERY_HIGH;
 8000690:	187b      	adds	r3, r7, r1
 8000692:	2203      	movs	r2, #3
 8000694:	60da      	str	r2, [r3, #12]
    GPIO_InitStruct.Alternate = GPIO_AF1_I2C1;
 8000696:	187b      	adds	r3, r7, r1
 8000698:	2201      	movs	r2, #1
 800069a:	611a      	str	r2, [r3, #16]
    HAL_GPIO_Init(GPIOA, &GPIO_InitStruct);
 800069c:	187a      	adds	r2, r7, r1
 800069e:	23a0      	movs	r3, #160	; 0xa0
 80006a0:	05db      	lsls	r3, r3, #23
 80006a2:	0011      	movs	r1, r2
 80006a4:	0018      	movs	r0, r3
 80006a6:	f003 fac5 	bl	8003c34 <HAL_GPIO_Init>

    /* I2C1 clock enable */
    __HAL_RCC_I2C1_CLK_ENABLE();
 80006aa:	4b06      	ldr	r3, [pc, #24]	; (80006c4 <HAL_I2C_MspInit+0x84>)
 80006ac:	6b9a      	ldr	r2, [r3, #56]	; 0x38
 80006ae:	4b05      	ldr	r3, [pc, #20]	; (80006c4 <HAL_I2C_MspInit+0x84>)
 80006b0:	2180      	movs	r1, #128	; 0x80
 80006b2:	0389      	lsls	r1, r1, #14
 80006b4:	430a      	orrs	r2, r1
 80006b6:	639a      	str	r2, [r3, #56]	; 0x38
  /* USER CODE BEGIN I2C1_MspInit 1 */

  /* USER CODE END I2C1_MspInit 1 */
  }
}
 80006b8:	46c0      	nop			; (mov r8, r8)
 80006ba:	46bd      	mov	sp, r7
 80006bc:	b009      	add	sp, #36	; 0x24
 80006be:	bd90      	pop	{r4, r7, pc}
 80006c0:	40005400 	.word	0x40005400
 80006c4:	40021000 	.word	0x40021000

080006c8 <_Z17run_input_handlerv>:
 * 	b0 HIGH: decoder turned right one click
 * 	b1 HIGH: decoder turned left one click
 * 	b2 HIGH: push button short pushed and released	>50ms
 * 	b3 HIGH: push button long pushed and NOT released >2000ms
 */
uint8_t run_input_handler(void){
 80006c8:	b580      	push	{r7, lr}
 80006ca:	b082      	sub	sp, #8
 80006cc:	af00      	add	r7, sp, #0
	static uint8_t test_byte=0;
	uint8_t calculated_input_byte=0;
 80006ce:	1dfb      	adds	r3, r7, #7
 80006d0:	2200      	movs	r2, #0
 80006d2:	701a      	strb	r2, [r3, #0]
	static uint8_t input_data=0;
	input_data=debouncer();											//debouncing
 80006d4:	f000 f844 	bl	8000760 <_Z9debouncerv>
 80006d8:	0003      	movs	r3, r0
 80006da:	001a      	movs	r2, r3
 80006dc:	4b1e      	ldr	r3, [pc, #120]	; (8000758 <_Z17run_input_handlerv+0x90>)
 80006de:	701a      	strb	r2, [r3, #0]
	calculated_input_byte |= decoder(input_data&DECODE_FILTER);		//rotary decoding
 80006e0:	4b1d      	ldr	r3, [pc, #116]	; (8000758 <_Z17run_input_handlerv+0x90>)
 80006e2:	781b      	ldrb	r3, [r3, #0]
 80006e4:	2203      	movs	r2, #3
 80006e6:	4013      	ands	r3, r2
 80006e8:	b2db      	uxtb	r3, r3
 80006ea:	0018      	movs	r0, r3
 80006ec:	f000 f8ec 	bl	80008c8 <_Z7decoderh>
 80006f0:	0003      	movs	r3, r0
 80006f2:	0019      	movs	r1, r3
 80006f4:	1dfb      	adds	r3, r7, #7
 80006f6:	1dfa      	adds	r2, r7, #7
 80006f8:	7812      	ldrb	r2, [r2, #0]
 80006fa:	430a      	orrs	r2, r1
 80006fc:	701a      	strb	r2, [r3, #0]
	calculated_input_byte |= push_handler(input_data&PUSH_FILTER);	//handling long press for push button
 80006fe:	4b16      	ldr	r3, [pc, #88]	; (8000758 <_Z17run_input_handlerv+0x90>)
 8000700:	781b      	ldrb	r3, [r3, #0]
 8000702:	220c      	movs	r2, #12
 8000704:	4013      	ands	r3, r2
 8000706:	b2db      	uxtb	r3, r3
 8000708:	0018      	movs	r0, r3
 800070a:	f000 f943 	bl	8000994 <_Z12push_handlerh>
 800070e:	0003      	movs	r3, r0
 8000710:	0019      	movs	r1, r3
 8000712:	1dfb      	adds	r3, r7, #7
 8000714:	1dfa      	adds	r2, r7, #7
 8000716:	7812      	ldrb	r2, [r2, #0]
 8000718:	430a      	orrs	r2, r1
 800071a:	701a      	strb	r2, [r3, #0]

	if((calculated_input_byte&DECODE_FILTER) == DECODER_CW){
 800071c:	1dfb      	adds	r3, r7, #7
 800071e:	781b      	ldrb	r3, [r3, #0]
 8000720:	2203      	movs	r2, #3
 8000722:	4013      	ands	r3, r2
 8000724:	2b01      	cmp	r3, #1
 8000726:	d105      	bne.n	8000734 <_Z17run_input_handlerv+0x6c>
		test_byte++;
 8000728:	4b0c      	ldr	r3, [pc, #48]	; (800075c <_Z17run_input_handlerv+0x94>)
 800072a:	781b      	ldrb	r3, [r3, #0]
 800072c:	3301      	adds	r3, #1
 800072e:	b2da      	uxtb	r2, r3
 8000730:	4b0a      	ldr	r3, [pc, #40]	; (800075c <_Z17run_input_handlerv+0x94>)
 8000732:	701a      	strb	r2, [r3, #0]
	}
	if((calculated_input_byte&DECODE_FILTER) == DECODER_CCW){
 8000734:	1dfb      	adds	r3, r7, #7
 8000736:	781b      	ldrb	r3, [r3, #0]
 8000738:	2203      	movs	r2, #3
 800073a:	4013      	ands	r3, r2
 800073c:	2b02      	cmp	r3, #2
 800073e:	d105      	bne.n	800074c <_Z17run_input_handlerv+0x84>
		test_byte--;
 8000740:	4b06      	ldr	r3, [pc, #24]	; (800075c <_Z17run_input_handlerv+0x94>)
 8000742:	781b      	ldrb	r3, [r3, #0]
 8000744:	3b01      	subs	r3, #1
 8000746:	b2da      	uxtb	r2, r3
 8000748:	4b04      	ldr	r3, [pc, #16]	; (800075c <_Z17run_input_handlerv+0x94>)
 800074a:	701a      	strb	r2, [r3, #0]
	}

	return calculated_input_byte;
 800074c:	1dfb      	adds	r3, r7, #7
 800074e:	781b      	ldrb	r3, [r3, #0]
}
 8000750:	0018      	movs	r0, r3
 8000752:	46bd      	mov	sp, r7
 8000754:	b002      	add	sp, #8
 8000756:	bd80      	pop	{r7, pc}
 8000758:	200000a5 	.word	0x200000a5
 800075c:	200000a4 	.word	0x200000a4

08000760 <_Z9debouncerv>:
 * @return debounced input states in one byte
 * 	b0: HIGH: rotary_a high
 * 	b1: HIGH: rotary_b high
 * 	b2: HIGH: rotary_push high
 */
uint8_t debouncer(void){
 8000760:	b580      	push	{r7, lr}
 8000762:	af00      	add	r7, sp, #0
	static uint8_t debounced_data=0;
	static input_debounce_timer debounce_timer;
	//let's debounce some inputs
	if(HAL_GPIO_ReadPin(rot_a_GPIO_Port, rot_a_Pin)==true){
 8000764:	23a0      	movs	r3, #160	; 0xa0
 8000766:	05db      	lsls	r3, r3, #23
 8000768:	2102      	movs	r1, #2
 800076a:	0018      	movs	r0, r3
 800076c:	f003 fbd0 	bl	8003f10 <HAL_GPIO_ReadPin>
 8000770:	0003      	movs	r3, r0
 8000772:	3b01      	subs	r3, #1
 8000774:	425a      	negs	r2, r3
 8000776:	4153      	adcs	r3, r2
 8000778:	b2db      	uxtb	r3, r3
 800077a:	2b00      	cmp	r3, #0
 800077c:	d00a      	beq.n	8000794 <_Z9debouncerv+0x34>
		if(debounce_timer.rotary_a<DEBOUNCE_TIME)
 800077e:	4b50      	ldr	r3, [pc, #320]	; (80008c0 <_Z9debouncerv+0x160>)
 8000780:	781b      	ldrb	r3, [r3, #0]
 8000782:	2b04      	cmp	r3, #4
 8000784:	d810      	bhi.n	80007a8 <_Z9debouncerv+0x48>
			debounce_timer.rotary_a++;
 8000786:	4b4e      	ldr	r3, [pc, #312]	; (80008c0 <_Z9debouncerv+0x160>)
 8000788:	781b      	ldrb	r3, [r3, #0]
 800078a:	3301      	adds	r3, #1
 800078c:	b2da      	uxtb	r2, r3
 800078e:	4b4c      	ldr	r3, [pc, #304]	; (80008c0 <_Z9debouncerv+0x160>)
 8000790:	701a      	strb	r2, [r3, #0]
 8000792:	e009      	b.n	80007a8 <_Z9debouncerv+0x48>
	}
	else{
		if(debounce_timer.rotary_a!=0)
 8000794:	4b4a      	ldr	r3, [pc, #296]	; (80008c0 <_Z9debouncerv+0x160>)
 8000796:	781b      	ldrb	r3, [r3, #0]
 8000798:	2b00      	cmp	r3, #0
 800079a:	d005      	beq.n	80007a8 <_Z9debouncerv+0x48>
			debounce_timer.rotary_a--;
 800079c:	4b48      	ldr	r3, [pc, #288]	; (80008c0 <_Z9debouncerv+0x160>)
 800079e:	781b      	ldrb	r3, [r3, #0]
 80007a0:	3b01      	subs	r3, #1
 80007a2:	b2da      	uxtb	r2, r3
 80007a4:	4b46      	ldr	r3, [pc, #280]	; (80008c0 <_Z9debouncerv+0x160>)
 80007a6:	701a      	strb	r2, [r3, #0]
	}
	if(HAL_GPIO_ReadPin(rot_b_GPIO_Port, rot_b_Pin)==true){
 80007a8:	23a0      	movs	r3, #160	; 0xa0
 80007aa:	05db      	lsls	r3, r3, #23
 80007ac:	2101      	movs	r1, #1
 80007ae:	0018      	movs	r0, r3
 80007b0:	f003 fbae 	bl	8003f10 <HAL_GPIO_ReadPin>
 80007b4:	0003      	movs	r3, r0
 80007b6:	3b01      	subs	r3, #1
 80007b8:	425a      	negs	r2, r3
 80007ba:	4153      	adcs	r3, r2
 80007bc:	b2db      	uxtb	r3, r3
 80007be:	2b00      	cmp	r3, #0
 80007c0:	d00a      	beq.n	80007d8 <_Z9debouncerv+0x78>
		if(debounce_timer.rotary_b<DEBOUNCE_TIME)
 80007c2:	4b3f      	ldr	r3, [pc, #252]	; (80008c0 <_Z9debouncerv+0x160>)
 80007c4:	785b      	ldrb	r3, [r3, #1]
 80007c6:	2b04      	cmp	r3, #4
 80007c8:	d810      	bhi.n	80007ec <_Z9debouncerv+0x8c>
			debounce_timer.rotary_b++;
 80007ca:	4b3d      	ldr	r3, [pc, #244]	; (80008c0 <_Z9debouncerv+0x160>)
 80007cc:	785b      	ldrb	r3, [r3, #1]
 80007ce:	3301      	adds	r3, #1
 80007d0:	b2da      	uxtb	r2, r3
 80007d2:	4b3b      	ldr	r3, [pc, #236]	; (80008c0 <_Z9debouncerv+0x160>)
 80007d4:	705a      	strb	r2, [r3, #1]
 80007d6:	e009      	b.n	80007ec <_Z9debouncerv+0x8c>
	}
	else{
		if(debounce_timer.rotary_b!=0)
 80007d8:	4b39      	ldr	r3, [pc, #228]	; (80008c0 <_Z9debouncerv+0x160>)
 80007da:	785b      	ldrb	r3, [r3, #1]
 80007dc:	2b00      	cmp	r3, #0
 80007de:	d005      	beq.n	80007ec <_Z9debouncerv+0x8c>
			debounce_timer.rotary_b--;
 80007e0:	4b37      	ldr	r3, [pc, #220]	; (80008c0 <_Z9debouncerv+0x160>)
 80007e2:	785b      	ldrb	r3, [r3, #1]
 80007e4:	3b01      	subs	r3, #1
 80007e6:	b2da      	uxtb	r2, r3
 80007e8:	4b35      	ldr	r3, [pc, #212]	; (80008c0 <_Z9debouncerv+0x160>)
 80007ea:	705a      	strb	r2, [r3, #1]
	}
	if(HAL_GPIO_ReadPin(rot_push_GPIO_Port, rot_push_Pin)==true){
 80007ec:	23a0      	movs	r3, #160	; 0xa0
 80007ee:	05db      	lsls	r3, r3, #23
 80007f0:	2110      	movs	r1, #16
 80007f2:	0018      	movs	r0, r3
 80007f4:	f003 fb8c 	bl	8003f10 <HAL_GPIO_ReadPin>
 80007f8:	0003      	movs	r3, r0
 80007fa:	3b01      	subs	r3, #1
 80007fc:	425a      	negs	r2, r3
 80007fe:	4153      	adcs	r3, r2
 8000800:	b2db      	uxtb	r3, r3
 8000802:	2b00      	cmp	r3, #0
 8000804:	d00a      	beq.n	800081c <_Z9debouncerv+0xbc>
		if(debounce_timer.rotary_push<DEBOUNCE_TIME)
 8000806:	4b2e      	ldr	r3, [pc, #184]	; (80008c0 <_Z9debouncerv+0x160>)
 8000808:	789b      	ldrb	r3, [r3, #2]
 800080a:	2b04      	cmp	r3, #4
 800080c:	d810      	bhi.n	8000830 <_Z9debouncerv+0xd0>
			debounce_timer.rotary_push++;
 800080e:	4b2c      	ldr	r3, [pc, #176]	; (80008c0 <_Z9debouncerv+0x160>)
 8000810:	789b      	ldrb	r3, [r3, #2]
 8000812:	3301      	adds	r3, #1
 8000814:	b2da      	uxtb	r2, r3
 8000816:	4b2a      	ldr	r3, [pc, #168]	; (80008c0 <_Z9debouncerv+0x160>)
 8000818:	709a      	strb	r2, [r3, #2]
 800081a:	e009      	b.n	8000830 <_Z9debouncerv+0xd0>
	}
	else{
		if(debounce_timer.rotary_push!=0)
 800081c:	4b28      	ldr	r3, [pc, #160]	; (80008c0 <_Z9debouncerv+0x160>)
 800081e:	789b      	ldrb	r3, [r3, #2]
 8000820:	2b00      	cmp	r3, #0
 8000822:	d005      	beq.n	8000830 <_Z9debouncerv+0xd0>
			debounce_timer.rotary_push--;
 8000824:	4b26      	ldr	r3, [pc, #152]	; (80008c0 <_Z9debouncerv+0x160>)
 8000826:	789b      	ldrb	r3, [r3, #2]
 8000828:	3b01      	subs	r3, #1
 800082a:	b2da      	uxtb	r2, r3
 800082c:	4b24      	ldr	r3, [pc, #144]	; (80008c0 <_Z9debouncerv+0x160>)
 800082e:	709a      	strb	r2, [r3, #2]
	}

	//now lets check the inputs
	if(debounce_timer.rotary_a==DEBOUNCE_TIME)
 8000830:	4b23      	ldr	r3, [pc, #140]	; (80008c0 <_Z9debouncerv+0x160>)
 8000832:	781b      	ldrb	r3, [r3, #0]
 8000834:	2b05      	cmp	r3, #5
 8000836:	d106      	bne.n	8000846 <_Z9debouncerv+0xe6>
		debounced_data |= 0x1;
 8000838:	4b22      	ldr	r3, [pc, #136]	; (80008c4 <_Z9debouncerv+0x164>)
 800083a:	781b      	ldrb	r3, [r3, #0]
 800083c:	2201      	movs	r2, #1
 800083e:	4313      	orrs	r3, r2
 8000840:	b2da      	uxtb	r2, r3
 8000842:	4b20      	ldr	r3, [pc, #128]	; (80008c4 <_Z9debouncerv+0x164>)
 8000844:	701a      	strb	r2, [r3, #0]
	if(debounce_timer.rotary_a==0)
 8000846:	4b1e      	ldr	r3, [pc, #120]	; (80008c0 <_Z9debouncerv+0x160>)
 8000848:	781b      	ldrb	r3, [r3, #0]
 800084a:	2b00      	cmp	r3, #0
 800084c:	d106      	bne.n	800085c <_Z9debouncerv+0xfc>
		debounced_data &= ~0x1;
 800084e:	4b1d      	ldr	r3, [pc, #116]	; (80008c4 <_Z9debouncerv+0x164>)
 8000850:	781b      	ldrb	r3, [r3, #0]
 8000852:	2201      	movs	r2, #1
 8000854:	4393      	bics	r3, r2
 8000856:	b2da      	uxtb	r2, r3
 8000858:	4b1a      	ldr	r3, [pc, #104]	; (80008c4 <_Z9debouncerv+0x164>)
 800085a:	701a      	strb	r2, [r3, #0]
	if(debounce_timer.rotary_b==DEBOUNCE_TIME)
 800085c:	4b18      	ldr	r3, [pc, #96]	; (80008c0 <_Z9debouncerv+0x160>)
 800085e:	785b      	ldrb	r3, [r3, #1]
 8000860:	2b05      	cmp	r3, #5
 8000862:	d106      	bne.n	8000872 <_Z9debouncerv+0x112>
		debounced_data |= 0x2;
 8000864:	4b17      	ldr	r3, [pc, #92]	; (80008c4 <_Z9debouncerv+0x164>)
 8000866:	781b      	ldrb	r3, [r3, #0]
 8000868:	2202      	movs	r2, #2
 800086a:	4313      	orrs	r3, r2
 800086c:	b2da      	uxtb	r2, r3
 800086e:	4b15      	ldr	r3, [pc, #84]	; (80008c4 <_Z9debouncerv+0x164>)
 8000870:	701a      	strb	r2, [r3, #0]
	if(debounce_timer.rotary_b==0)
 8000872:	4b13      	ldr	r3, [pc, #76]	; (80008c0 <_Z9debouncerv+0x160>)
 8000874:	785b      	ldrb	r3, [r3, #1]
 8000876:	2b00      	cmp	r3, #0
 8000878:	d106      	bne.n	8000888 <_Z9debouncerv+0x128>
		debounced_data &= ~0x2;
 800087a:	4b12      	ldr	r3, [pc, #72]	; (80008c4 <_Z9debouncerv+0x164>)
 800087c:	781b      	ldrb	r3, [r3, #0]
 800087e:	2202      	movs	r2, #2
 8000880:	4393      	bics	r3, r2
 8000882:	b2da      	uxtb	r2, r3
 8000884:	4b0f      	ldr	r3, [pc, #60]	; (80008c4 <_Z9debouncerv+0x164>)
 8000886:	701a      	strb	r2, [r3, #0]
	if(debounce_timer.rotary_push==DEBOUNCE_TIME)
 8000888:	4b0d      	ldr	r3, [pc, #52]	; (80008c0 <_Z9debouncerv+0x160>)
 800088a:	789b      	ldrb	r3, [r3, #2]
 800088c:	2b05      	cmp	r3, #5
 800088e:	d106      	bne.n	800089e <_Z9debouncerv+0x13e>
		debounced_data |= 0x4;
 8000890:	4b0c      	ldr	r3, [pc, #48]	; (80008c4 <_Z9debouncerv+0x164>)
 8000892:	781b      	ldrb	r3, [r3, #0]
 8000894:	2204      	movs	r2, #4
 8000896:	4313      	orrs	r3, r2
 8000898:	b2da      	uxtb	r2, r3
 800089a:	4b0a      	ldr	r3, [pc, #40]	; (80008c4 <_Z9debouncerv+0x164>)
 800089c:	701a      	strb	r2, [r3, #0]
	if(debounce_timer.rotary_push==0)
 800089e:	4b08      	ldr	r3, [pc, #32]	; (80008c0 <_Z9debouncerv+0x160>)
 80008a0:	789b      	ldrb	r3, [r3, #2]
 80008a2:	2b00      	cmp	r3, #0
 80008a4:	d106      	bne.n	80008b4 <_Z9debouncerv+0x154>
		debounced_data &= ~0x4;
 80008a6:	4b07      	ldr	r3, [pc, #28]	; (80008c4 <_Z9debouncerv+0x164>)
 80008a8:	781b      	ldrb	r3, [r3, #0]
 80008aa:	2204      	movs	r2, #4
 80008ac:	4393      	bics	r3, r2
 80008ae:	b2da      	uxtb	r2, r3
 80008b0:	4b04      	ldr	r3, [pc, #16]	; (80008c4 <_Z9debouncerv+0x164>)
 80008b2:	701a      	strb	r2, [r3, #0]
	return debounced_data;
 80008b4:	4b03      	ldr	r3, [pc, #12]	; (80008c4 <_Z9debouncerv+0x164>)
 80008b6:	781b      	ldrb	r3, [r3, #0]
}
 80008b8:	0018      	movs	r0, r3
 80008ba:	46bd      	mov	sp, r7
 80008bc:	bd80      	pop	{r7, pc}
 80008be:	46c0      	nop			; (mov r8, r8)
 80008c0:	200000a8 	.word	0x200000a8
 80008c4:	200000a6 	.word	0x200000a6

080008c8 <_Z7decoderh>:
 * @param input debounced data - see debouncer() [0b = a; b1 = b]
 * @return information, if decoder turned left, right or not
 *  b0 HIGH: did turn right - CW
 *  b1 HIGH: did turn left - CCW
 */
uint8_t decoder(uint8_t new_state){
 80008c8:	b580      	push	{r7, lr}
 80008ca:	b084      	sub	sp, #16
 80008cc:	af00      	add	r7, sp, #0
 80008ce:	0002      	movs	r2, r0
 80008d0:	1dfb      	adds	r3, r7, #7
 80008d2:	701a      	strb	r2, [r3, #0]
	static uint8_t last_state=0;
	uint8_t decoded_data=0;
 80008d4:	210f      	movs	r1, #15
 80008d6:	187b      	adds	r3, r7, r1
 80008d8:	2200      	movs	r2, #0
 80008da:	701a      	strb	r2, [r3, #0]
	if(last_state == 0x00){
 80008dc:	4b2c      	ldr	r3, [pc, #176]	; (8000990 <_Z7decoderh+0xc8>)
 80008de:	781b      	ldrb	r3, [r3, #0]
 80008e0:	2b00      	cmp	r3, #0
 80008e2:	d10e      	bne.n	8000902 <_Z7decoderh+0x3a>
		if(new_state==0x01)
 80008e4:	1dfb      	adds	r3, r7, #7
 80008e6:	781b      	ldrb	r3, [r3, #0]
 80008e8:	2b01      	cmp	r3, #1
 80008ea:	d102      	bne.n	80008f2 <_Z7decoderh+0x2a>
			decoded_data =DECODER_CW;
 80008ec:	187b      	adds	r3, r7, r1
 80008ee:	2201      	movs	r2, #1
 80008f0:	701a      	strb	r2, [r3, #0]
		if(new_state==0x10)
 80008f2:	1dfb      	adds	r3, r7, #7
 80008f4:	781b      	ldrb	r3, [r3, #0]
 80008f6:	2b10      	cmp	r3, #16
 80008f8:	d103      	bne.n	8000902 <_Z7decoderh+0x3a>
			decoded_data =DECODER_CCW;
 80008fa:	230f      	movs	r3, #15
 80008fc:	18fb      	adds	r3, r7, r3
 80008fe:	2202      	movs	r2, #2
 8000900:	701a      	strb	r2, [r3, #0]
	}
	if(last_state == 0x01){
 8000902:	4b23      	ldr	r3, [pc, #140]	; (8000990 <_Z7decoderh+0xc8>)
 8000904:	781b      	ldrb	r3, [r3, #0]
 8000906:	2b01      	cmp	r3, #1
 8000908:	d10f      	bne.n	800092a <_Z7decoderh+0x62>
		if(new_state==0x11)
 800090a:	1dfb      	adds	r3, r7, #7
 800090c:	781b      	ldrb	r3, [r3, #0]
 800090e:	2b11      	cmp	r3, #17
 8000910:	d103      	bne.n	800091a <_Z7decoderh+0x52>
			decoded_data =DECODER_CW;
 8000912:	230f      	movs	r3, #15
 8000914:	18fb      	adds	r3, r7, r3
 8000916:	2201      	movs	r2, #1
 8000918:	701a      	strb	r2, [r3, #0]
		if(new_state==0x00)
 800091a:	1dfb      	adds	r3, r7, #7
 800091c:	781b      	ldrb	r3, [r3, #0]
 800091e:	2b00      	cmp	r3, #0
 8000920:	d103      	bne.n	800092a <_Z7decoderh+0x62>
			decoded_data =DECODER_CCW;
 8000922:	230f      	movs	r3, #15
 8000924:	18fb      	adds	r3, r7, r3
 8000926:	2202      	movs	r2, #2
 8000928:	701a      	strb	r2, [r3, #0]
	}
	if(last_state == 0x11){
 800092a:	4b19      	ldr	r3, [pc, #100]	; (8000990 <_Z7decoderh+0xc8>)
 800092c:	781b      	ldrb	r3, [r3, #0]
 800092e:	2b11      	cmp	r3, #17
 8000930:	d10f      	bne.n	8000952 <_Z7decoderh+0x8a>
		if(new_state==0x10)
 8000932:	1dfb      	adds	r3, r7, #7
 8000934:	781b      	ldrb	r3, [r3, #0]
 8000936:	2b10      	cmp	r3, #16
 8000938:	d103      	bne.n	8000942 <_Z7decoderh+0x7a>
			decoded_data =DECODER_CW;
 800093a:	230f      	movs	r3, #15
 800093c:	18fb      	adds	r3, r7, r3
 800093e:	2201      	movs	r2, #1
 8000940:	701a      	strb	r2, [r3, #0]
		if(new_state==0x01)
 8000942:	1dfb      	adds	r3, r7, #7
 8000944:	781b      	ldrb	r3, [r3, #0]
 8000946:	2b01      	cmp	r3, #1
 8000948:	d103      	bne.n	8000952 <_Z7decoderh+0x8a>
			decoded_data =DECODER_CCW;
 800094a:	230f      	movs	r3, #15
 800094c:	18fb      	adds	r3, r7, r3
 800094e:	2202      	movs	r2, #2
 8000950:	701a      	strb	r2, [r3, #0]
	}
	if(last_state == 0x10){
 8000952:	4b0f      	ldr	r3, [pc, #60]	; (8000990 <_Z7decoderh+0xc8>)
 8000954:	781b      	ldrb	r3, [r3, #0]
 8000956:	2b10      	cmp	r3, #16
 8000958:	d10f      	bne.n	800097a <_Z7decoderh+0xb2>
		if(new_state==0x00)
 800095a:	1dfb      	adds	r3, r7, #7
 800095c:	781b      	ldrb	r3, [r3, #0]
 800095e:	2b00      	cmp	r3, #0
 8000960:	d103      	bne.n	800096a <_Z7decoderh+0xa2>
			decoded_data =DECODER_CW;
 8000962:	230f      	movs	r3, #15
 8000964:	18fb      	adds	r3, r7, r3
 8000966:	2201      	movs	r2, #1
 8000968:	701a      	strb	r2, [r3, #0]
		if(new_state==0x11)
 800096a:	1dfb      	adds	r3, r7, #7
 800096c:	781b      	ldrb	r3, [r3, #0]
 800096e:	2b11      	cmp	r3, #17
 8000970:	d103      	bne.n	800097a <_Z7decoderh+0xb2>
			decoded_data =DECODER_CCW;
 8000972:	230f      	movs	r3, #15
 8000974:	18fb      	adds	r3, r7, r3
 8000976:	2202      	movs	r2, #2
 8000978:	701a      	strb	r2, [r3, #0]
	}
	last_state = new_state;
 800097a:	4b05      	ldr	r3, [pc, #20]	; (8000990 <_Z7decoderh+0xc8>)
 800097c:	1dfa      	adds	r2, r7, #7
 800097e:	7812      	ldrb	r2, [r2, #0]
 8000980:	701a      	strb	r2, [r3, #0]
	return decoded_data;
 8000982:	230f      	movs	r3, #15
 8000984:	18fb      	adds	r3, r7, r3
 8000986:	781b      	ldrb	r3, [r3, #0]
}
 8000988:	0018      	movs	r0, r3
 800098a:	46bd      	mov	sp, r7
 800098c:	b004      	add	sp, #16
 800098e:	bd80      	pop	{r7, pc}
 8000990:	200000ab 	.word	0x200000ab

08000994 <_Z12push_handlerh>:
 * @param input debounced data - see debouncer()
 * @return wether input was pressed short, long or not at all
 * 	b2 HIGH: push button short pushed and released	>50ms
 * 	b3 HIGH: push button long pushed and NOT released >2000ms
 */
uint8_t push_handler(uint8_t push_button){
 8000994:	b580      	push	{r7, lr}
 8000996:	b084      	sub	sp, #16
 8000998:	af00      	add	r7, sp, #0
 800099a:	0002      	movs	r2, r0
 800099c:	1dfb      	adds	r3, r7, #7
 800099e:	701a      	strb	r2, [r3, #0]
	push_button = push_button >> 2;
 80009a0:	1dfb      	adds	r3, r7, #7
 80009a2:	1dfa      	adds	r2, r7, #7
 80009a4:	7812      	ldrb	r2, [r2, #0]
 80009a6:	0892      	lsrs	r2, r2, #2
 80009a8:	701a      	strb	r2, [r3, #0]
	static uint16_t input_hold_timer=0;
	uint8_t push_state=0;
 80009aa:	230f      	movs	r3, #15
 80009ac:	18fb      	adds	r3, r7, r3
 80009ae:	2200      	movs	r2, #0
 80009b0:	701a      	strb	r2, [r3, #0]

	if(push_button == true && input_hold_timer<=LONG_PUSH_TIME+2){
 80009b2:	1dfb      	adds	r3, r7, #7
 80009b4:	781b      	ldrb	r3, [r3, #0]
 80009b6:	2b01      	cmp	r3, #1
 80009b8:	d10a      	bne.n	80009d0 <_Z12push_handlerh+0x3c>
 80009ba:	4b18      	ldr	r3, [pc, #96]	; (8000a1c <_Z12push_handlerh+0x88>)
 80009bc:	881b      	ldrh	r3, [r3, #0]
 80009be:	4a18      	ldr	r2, [pc, #96]	; (8000a20 <_Z12push_handlerh+0x8c>)
 80009c0:	4293      	cmp	r3, r2
 80009c2:	d805      	bhi.n	80009d0 <_Z12push_handlerh+0x3c>
		input_hold_timer++;
 80009c4:	4b15      	ldr	r3, [pc, #84]	; (8000a1c <_Z12push_handlerh+0x88>)
 80009c6:	881b      	ldrh	r3, [r3, #0]
 80009c8:	3301      	adds	r3, #1
 80009ca:	b29a      	uxth	r2, r3
 80009cc:	4b13      	ldr	r3, [pc, #76]	; (8000a1c <_Z12push_handlerh+0x88>)
 80009ce:	801a      	strh	r2, [r3, #0]
	}

	if(push_button == false){
 80009d0:	1dfb      	adds	r3, r7, #7
 80009d2:	781b      	ldrb	r3, [r3, #0]
 80009d4:	2b00      	cmp	r3, #0
 80009d6:	d110      	bne.n	80009fa <_Z12push_handlerh+0x66>
		if(input_hold_timer>=SHORT_PUSH_TIME && input_hold_timer<=LONG_PUSH_TIME)
 80009d8:	4b10      	ldr	r3, [pc, #64]	; (8000a1c <_Z12push_handlerh+0x88>)
 80009da:	881b      	ldrh	r3, [r3, #0]
 80009dc:	2b31      	cmp	r3, #49	; 0x31
 80009de:	d909      	bls.n	80009f4 <_Z12push_handlerh+0x60>
 80009e0:	4b0e      	ldr	r3, [pc, #56]	; (8000a1c <_Z12push_handlerh+0x88>)
 80009e2:	881a      	ldrh	r2, [r3, #0]
 80009e4:	23fa      	movs	r3, #250	; 0xfa
 80009e6:	00db      	lsls	r3, r3, #3
 80009e8:	429a      	cmp	r2, r3
 80009ea:	d803      	bhi.n	80009f4 <_Z12push_handlerh+0x60>
			push_state = SHORT_PUSH;
 80009ec:	230f      	movs	r3, #15
 80009ee:	18fb      	adds	r3, r7, r3
 80009f0:	2204      	movs	r2, #4
 80009f2:	701a      	strb	r2, [r3, #0]
		input_hold_timer=0;
 80009f4:	4b09      	ldr	r3, [pc, #36]	; (8000a1c <_Z12push_handlerh+0x88>)
 80009f6:	2200      	movs	r2, #0
 80009f8:	801a      	strh	r2, [r3, #0]
	}

	if(input_hold_timer==LONG_PUSH_TIME){
 80009fa:	4b08      	ldr	r3, [pc, #32]	; (8000a1c <_Z12push_handlerh+0x88>)
 80009fc:	881a      	ldrh	r2, [r3, #0]
 80009fe:	23fa      	movs	r3, #250	; 0xfa
 8000a00:	00db      	lsls	r3, r3, #3
 8000a02:	429a      	cmp	r2, r3
 8000a04:	d103      	bne.n	8000a0e <_Z12push_handlerh+0x7a>
		push_state = LONG_PUSH;
 8000a06:	230f      	movs	r3, #15
 8000a08:	18fb      	adds	r3, r7, r3
 8000a0a:	2208      	movs	r2, #8
 8000a0c:	701a      	strb	r2, [r3, #0]
	}
	return push_state;
 8000a0e:	230f      	movs	r3, #15
 8000a10:	18fb      	adds	r3, r7, r3
 8000a12:	781b      	ldrb	r3, [r3, #0]
}
 8000a14:	0018      	movs	r0, r3
 8000a16:	46bd      	mov	sp, r7
 8000a18:	b004      	add	sp, #16
 8000a1a:	bd80      	pop	{r7, pc}
 8000a1c:	200000ac 	.word	0x200000ac
 8000a20:	000007d2 	.word	0x000007d2

08000a24 <_Z9set_colorhmh>:
 * @brief function to write new color to output queue
 * @param led_number number to which led the color should be applied [0-5]
 * @param hex_code	enter RGB Hex code of color or use predefined values
 * @param brightness choose brightness level between 1 and 100 - brightness cannot turn led off
 */
void set_color(uint8_t led_number, uint32_t hex_code, uint8_t brightness){
 8000a24:	b580      	push	{r7, lr}
 8000a26:	b082      	sub	sp, #8
 8000a28:	af00      	add	r7, sp, #0
 8000a2a:	6039      	str	r1, [r7, #0]
 8000a2c:	0011      	movs	r1, r2
 8000a2e:	1dfb      	adds	r3, r7, #7
 8000a30:	1c02      	adds	r2, r0, #0
 8000a32:	701a      	strb	r2, [r3, #0]
 8000a34:	1dbb      	adds	r3, r7, #6
 8000a36:	1c0a      	adds	r2, r1, #0
 8000a38:	701a      	strb	r2, [r3, #0]
	brightness_controller = 0;
 8000a3a:	4b3c      	ldr	r3, [pc, #240]	; (8000b2c <_Z9set_colorhmh+0x108>)
 8000a3c:	2200      	movs	r2, #0
 8000a3e:	701a      	strb	r2, [r3, #0]
	if(led_number>=MAX_LED)
 8000a40:	1dfb      	adds	r3, r7, #7
 8000a42:	781b      	ldrb	r3, [r3, #0]
 8000a44:	2b05      	cmp	r3, #5
 8000a46:	d902      	bls.n	8000a4e <_Z9set_colorhmh+0x2a>
		led_number=MAX_LED-1;
 8000a48:	1dfb      	adds	r3, r7, #7
 8000a4a:	2205      	movs	r2, #5
 8000a4c:	701a      	strb	r2, [r3, #0]
	led_data[led_number]=0;
 8000a4e:	1dfb      	adds	r3, r7, #7
 8000a50:	781a      	ldrb	r2, [r3, #0]
 8000a52:	4b37      	ldr	r3, [pc, #220]	; (8000b30 <_Z9set_colorhmh+0x10c>)
 8000a54:	0092      	lsls	r2, r2, #2
 8000a56:	2100      	movs	r1, #0
 8000a58:	50d1      	str	r1, [r2, r3]
	if(brightness>100)
 8000a5a:	1dbb      	adds	r3, r7, #6
 8000a5c:	781b      	ldrb	r3, [r3, #0]
 8000a5e:	2b64      	cmp	r3, #100	; 0x64
 8000a60:	d902      	bls.n	8000a68 <_Z9set_colorhmh+0x44>
		brightness = 100;
 8000a62:	1dbb      	adds	r3, r7, #6
 8000a64:	2264      	movs	r2, #100	; 0x64
 8000a66:	701a      	strb	r2, [r3, #0]
	if(brightness<1)
 8000a68:	1dbb      	adds	r3, r7, #6
 8000a6a:	781b      	ldrb	r3, [r3, #0]
 8000a6c:	2b00      	cmp	r3, #0
 8000a6e:	d102      	bne.n	8000a76 <_Z9set_colorhmh+0x52>
		brightness = 1;
 8000a70:	1dbb      	adds	r3, r7, #6
 8000a72:	2201      	movs	r2, #1
 8000a74:	701a      	strb	r2, [r3, #0]
	//apply brightness to each color segment and reshuffle bits as required by the LED: green-red-blue
	//red
	brightness_controller = (uint32_t)((hex_code&0xff0000) >> 16)*brightness/100;
 8000a76:	683b      	ldr	r3, [r7, #0]
 8000a78:	0c1b      	lsrs	r3, r3, #16
 8000a7a:	22ff      	movs	r2, #255	; 0xff
 8000a7c:	4013      	ands	r3, r2
 8000a7e:	1dba      	adds	r2, r7, #6
 8000a80:	7812      	ldrb	r2, [r2, #0]
 8000a82:	4353      	muls	r3, r2
 8000a84:	2164      	movs	r1, #100	; 0x64
 8000a86:	0018      	movs	r0, r3
 8000a88:	f7ff fb3e 	bl	8000108 <__udivsi3>
 8000a8c:	0003      	movs	r3, r0
 8000a8e:	b2da      	uxtb	r2, r3
 8000a90:	4b26      	ldr	r3, [pc, #152]	; (8000b2c <_Z9set_colorhmh+0x108>)
 8000a92:	701a      	strb	r2, [r3, #0]
	led_data[led_number] |= (uint32_t)brightness_controller << 8;
 8000a94:	1dfb      	adds	r3, r7, #7
 8000a96:	781a      	ldrb	r2, [r3, #0]
 8000a98:	4b25      	ldr	r3, [pc, #148]	; (8000b30 <_Z9set_colorhmh+0x10c>)
 8000a9a:	0092      	lsls	r2, r2, #2
 8000a9c:	58d1      	ldr	r1, [r2, r3]
 8000a9e:	4b23      	ldr	r3, [pc, #140]	; (8000b2c <_Z9set_colorhmh+0x108>)
 8000aa0:	781b      	ldrb	r3, [r3, #0]
 8000aa2:	021b      	lsls	r3, r3, #8
 8000aa4:	1dfa      	adds	r2, r7, #7
 8000aa6:	7812      	ldrb	r2, [r2, #0]
 8000aa8:	4319      	orrs	r1, r3
 8000aaa:	4b21      	ldr	r3, [pc, #132]	; (8000b30 <_Z9set_colorhmh+0x10c>)
 8000aac:	0092      	lsls	r2, r2, #2
 8000aae:	50d1      	str	r1, [r2, r3]
	//green
	brightness_controller = (uint32_t)((hex_code&0xff00) >> 8)*brightness/100;
 8000ab0:	683b      	ldr	r3, [r7, #0]
 8000ab2:	0a1b      	lsrs	r3, r3, #8
 8000ab4:	22ff      	movs	r2, #255	; 0xff
 8000ab6:	4013      	ands	r3, r2
 8000ab8:	1dba      	adds	r2, r7, #6
 8000aba:	7812      	ldrb	r2, [r2, #0]
 8000abc:	4353      	muls	r3, r2
 8000abe:	2164      	movs	r1, #100	; 0x64
 8000ac0:	0018      	movs	r0, r3
 8000ac2:	f7ff fb21 	bl	8000108 <__udivsi3>
 8000ac6:	0003      	movs	r3, r0
 8000ac8:	b2da      	uxtb	r2, r3
 8000aca:	4b18      	ldr	r3, [pc, #96]	; (8000b2c <_Z9set_colorhmh+0x108>)
 8000acc:	701a      	strb	r2, [r3, #0]
	led_data[led_number] |= (uint32_t)brightness_controller << 16;
 8000ace:	1dfb      	adds	r3, r7, #7
 8000ad0:	781a      	ldrb	r2, [r3, #0]
 8000ad2:	4b17      	ldr	r3, [pc, #92]	; (8000b30 <_Z9set_colorhmh+0x10c>)
 8000ad4:	0092      	lsls	r2, r2, #2
 8000ad6:	58d1      	ldr	r1, [r2, r3]
 8000ad8:	4b14      	ldr	r3, [pc, #80]	; (8000b2c <_Z9set_colorhmh+0x108>)
 8000ada:	781b      	ldrb	r3, [r3, #0]
 8000adc:	041b      	lsls	r3, r3, #16
 8000ade:	1dfa      	adds	r2, r7, #7
 8000ae0:	7812      	ldrb	r2, [r2, #0]
 8000ae2:	4319      	orrs	r1, r3
 8000ae4:	4b12      	ldr	r3, [pc, #72]	; (8000b30 <_Z9set_colorhmh+0x10c>)
 8000ae6:	0092      	lsls	r2, r2, #2
 8000ae8:	50d1      	str	r1, [r2, r3]
	//blue
	brightness_controller = (uint32_t)(hex_code&0xff)*brightness/100;
 8000aea:	683b      	ldr	r3, [r7, #0]
 8000aec:	22ff      	movs	r2, #255	; 0xff
 8000aee:	4013      	ands	r3, r2
 8000af0:	1dba      	adds	r2, r7, #6
 8000af2:	7812      	ldrb	r2, [r2, #0]
 8000af4:	4353      	muls	r3, r2
 8000af6:	2164      	movs	r1, #100	; 0x64
 8000af8:	0018      	movs	r0, r3
 8000afa:	f7ff fb05 	bl	8000108 <__udivsi3>
 8000afe:	0003      	movs	r3, r0
 8000b00:	b2da      	uxtb	r2, r3
 8000b02:	4b0a      	ldr	r3, [pc, #40]	; (8000b2c <_Z9set_colorhmh+0x108>)
 8000b04:	701a      	strb	r2, [r3, #0]
	led_data[led_number] |= brightness_controller;
 8000b06:	1dfb      	adds	r3, r7, #7
 8000b08:	781a      	ldrb	r2, [r3, #0]
 8000b0a:	4b09      	ldr	r3, [pc, #36]	; (8000b30 <_Z9set_colorhmh+0x10c>)
 8000b0c:	0092      	lsls	r2, r2, #2
 8000b0e:	58d3      	ldr	r3, [r2, r3]
 8000b10:	4a06      	ldr	r2, [pc, #24]	; (8000b2c <_Z9set_colorhmh+0x108>)
 8000b12:	7812      	ldrb	r2, [r2, #0]
 8000b14:	0011      	movs	r1, r2
 8000b16:	1dfa      	adds	r2, r7, #7
 8000b18:	7812      	ldrb	r2, [r2, #0]
 8000b1a:	4319      	orrs	r1, r3
 8000b1c:	4b04      	ldr	r3, [pc, #16]	; (8000b30 <_Z9set_colorhmh+0x10c>)
 8000b1e:	0092      	lsls	r2, r2, #2
 8000b20:	50d1      	str	r1, [r2, r3]
}
 8000b22:	46c0      	nop			; (mov r8, r8)
 8000b24:	46bd      	mov	sp, r7
 8000b26:	b002      	add	sp, #8
 8000b28:	bd80      	pop	{r7, pc}
 8000b2a:	46c0      	nop			; (mov r8, r8)
 8000b2c:	200000ae 	.word	0x200000ae
 8000b30:	200000b4 	.word	0x200000b4

08000b34 <_Z9send_datab>:
/*
 * @brief: calling this command will prepare the data and perform a dma request to output the Data
 * also used to turn led on or off
 * @param state true: actual data is send to led; false: 0 is send to turn LED off
 */
void send_data(bool state){
 8000b34:	b580      	push	{r7, lr}
 8000b36:	b084      	sub	sp, #16
 8000b38:	af00      	add	r7, sp, #0
 8000b3a:	0002      	movs	r2, r0
 8000b3c:	1dfb      	adds	r3, r7, #7
 8000b3e:	701a      	strb	r2, [r3, #0]
//T0L = 580ns~1us
//T1L = 220ns~420ns
//RES = >280us
// 1 period = 40 cycles = 1,25us = 800kHz

	index = 0;
 8000b40:	4b40      	ldr	r3, [pc, #256]	; (8000c44 <_Z9send_datab+0x110>)
 8000b42:	2200      	movs	r2, #0
 8000b44:	801a      	strh	r2, [r3, #0]
	for(uint8_t i=0;i<MAX_LED;i++){
 8000b46:	230f      	movs	r3, #15
 8000b48:	18fb      	adds	r3, r7, r3
 8000b4a:	2200      	movs	r2, #0
 8000b4c:	701a      	strb	r2, [r3, #0]
 8000b4e:	e045      	b.n	8000bdc <_Z9send_datab+0xa8>
		for(uint8_t j = NUM_BITS;j>0; j--){
 8000b50:	230e      	movs	r3, #14
 8000b52:	18fb      	adds	r3, r7, r3
 8000b54:	2218      	movs	r2, #24
 8000b56:	701a      	strb	r2, [r3, #0]
 8000b58:	e035      	b.n	8000bc6 <_Z9send_datab+0x92>
			if(state == false){
 8000b5a:	1dfb      	adds	r3, r7, #7
 8000b5c:	781b      	ldrb	r3, [r3, #0]
 8000b5e:	2b00      	cmp	r3, #0
 8000b60:	d107      	bne.n	8000b72 <_Z9send_datab+0x3e>
				pwm_data[index] = LOW_CLOCKS;
 8000b62:	4b38      	ldr	r3, [pc, #224]	; (8000c44 <_Z9send_datab+0x110>)
 8000b64:	881b      	ldrh	r3, [r3, #0]
 8000b66:	001a      	movs	r2, r3
 8000b68:	4b37      	ldr	r3, [pc, #220]	; (8000c48 <_Z9send_datab+0x114>)
 8000b6a:	0052      	lsls	r2, r2, #1
 8000b6c:	210d      	movs	r1, #13
 8000b6e:	52d1      	strh	r1, [r2, r3]
 8000b70:	e01d      	b.n	8000bae <_Z9send_datab+0x7a>
			}
			else{
				if(led_data[i]&(1<<(j-1)))
 8000b72:	230f      	movs	r3, #15
 8000b74:	18fb      	adds	r3, r7, r3
 8000b76:	781a      	ldrb	r2, [r3, #0]
 8000b78:	4b34      	ldr	r3, [pc, #208]	; (8000c4c <_Z9send_datab+0x118>)
 8000b7a:	0092      	lsls	r2, r2, #2
 8000b7c:	58d3      	ldr	r3, [r2, r3]
 8000b7e:	220e      	movs	r2, #14
 8000b80:	18ba      	adds	r2, r7, r2
 8000b82:	7812      	ldrb	r2, [r2, #0]
 8000b84:	3a01      	subs	r2, #1
 8000b86:	2101      	movs	r1, #1
 8000b88:	4091      	lsls	r1, r2
 8000b8a:	000a      	movs	r2, r1
 8000b8c:	4013      	ands	r3, r2
 8000b8e:	d007      	beq.n	8000ba0 <_Z9send_datab+0x6c>
					pwm_data[index] = HIGH_CLOCKS;	//one period = 40 --> High bit = 70%
 8000b90:	4b2c      	ldr	r3, [pc, #176]	; (8000c44 <_Z9send_datab+0x110>)
 8000b92:	881b      	ldrh	r3, [r3, #0]
 8000b94:	001a      	movs	r2, r3
 8000b96:	4b2c      	ldr	r3, [pc, #176]	; (8000c48 <_Z9send_datab+0x114>)
 8000b98:	0052      	lsls	r2, r2, #1
 8000b9a:	211b      	movs	r1, #27
 8000b9c:	52d1      	strh	r1, [r2, r3]
 8000b9e:	e006      	b.n	8000bae <_Z9send_datab+0x7a>
				else
					pwm_data[index] = LOW_CLOCKS;	//one period = 40 --> High bit = 30%
 8000ba0:	4b28      	ldr	r3, [pc, #160]	; (8000c44 <_Z9send_datab+0x110>)
 8000ba2:	881b      	ldrh	r3, [r3, #0]
 8000ba4:	001a      	movs	r2, r3
 8000ba6:	4b28      	ldr	r3, [pc, #160]	; (8000c48 <_Z9send_datab+0x114>)
 8000ba8:	0052      	lsls	r2, r2, #1
 8000baa:	210d      	movs	r1, #13
 8000bac:	52d1      	strh	r1, [r2, r3]
			}
			index++;
 8000bae:	4b25      	ldr	r3, [pc, #148]	; (8000c44 <_Z9send_datab+0x110>)
 8000bb0:	881b      	ldrh	r3, [r3, #0]
 8000bb2:	3301      	adds	r3, #1
 8000bb4:	b29a      	uxth	r2, r3
 8000bb6:	4b23      	ldr	r3, [pc, #140]	; (8000c44 <_Z9send_datab+0x110>)
 8000bb8:	801a      	strh	r2, [r3, #0]
		for(uint8_t j = NUM_BITS;j>0; j--){
 8000bba:	210e      	movs	r1, #14
 8000bbc:	187b      	adds	r3, r7, r1
 8000bbe:	781a      	ldrb	r2, [r3, #0]
 8000bc0:	187b      	adds	r3, r7, r1
 8000bc2:	3a01      	subs	r2, #1
 8000bc4:	701a      	strb	r2, [r3, #0]
 8000bc6:	230e      	movs	r3, #14
 8000bc8:	18fb      	adds	r3, r7, r3
 8000bca:	781b      	ldrb	r3, [r3, #0]
 8000bcc:	2b00      	cmp	r3, #0
 8000bce:	d1c4      	bne.n	8000b5a <_Z9send_datab+0x26>
	for(uint8_t i=0;i<MAX_LED;i++){
 8000bd0:	210f      	movs	r1, #15
 8000bd2:	187b      	adds	r3, r7, r1
 8000bd4:	781a      	ldrb	r2, [r3, #0]
 8000bd6:	187b      	adds	r3, r7, r1
 8000bd8:	3201      	adds	r2, #1
 8000bda:	701a      	strb	r2, [r3, #0]
 8000bdc:	230f      	movs	r3, #15
 8000bde:	18fb      	adds	r3, r7, r3
 8000be0:	781b      	ldrb	r3, [r3, #0]
 8000be2:	2b05      	cmp	r3, #5
 8000be4:	d9b4      	bls.n	8000b50 <_Z9send_datab+0x1c>
		}
	}
	for(uint8_t i = 0; i<LED_RESET; i++){
 8000be6:	230d      	movs	r3, #13
 8000be8:	18fb      	adds	r3, r7, r3
 8000bea:	2200      	movs	r2, #0
 8000bec:	701a      	strb	r2, [r3, #0]
 8000bee:	e012      	b.n	8000c16 <_Z9send_datab+0xe2>
		pwm_data[index]=0;
 8000bf0:	4b14      	ldr	r3, [pc, #80]	; (8000c44 <_Z9send_datab+0x110>)
 8000bf2:	881b      	ldrh	r3, [r3, #0]
 8000bf4:	001a      	movs	r2, r3
 8000bf6:	4b14      	ldr	r3, [pc, #80]	; (8000c48 <_Z9send_datab+0x114>)
 8000bf8:	0052      	lsls	r2, r2, #1
 8000bfa:	2100      	movs	r1, #0
 8000bfc:	52d1      	strh	r1, [r2, r3]
		index++;
 8000bfe:	4b11      	ldr	r3, [pc, #68]	; (8000c44 <_Z9send_datab+0x110>)
 8000c00:	881b      	ldrh	r3, [r3, #0]
 8000c02:	3301      	adds	r3, #1
 8000c04:	b29a      	uxth	r2, r3
 8000c06:	4b0f      	ldr	r3, [pc, #60]	; (8000c44 <_Z9send_datab+0x110>)
 8000c08:	801a      	strh	r2, [r3, #0]
	for(uint8_t i = 0; i<LED_RESET; i++){
 8000c0a:	210d      	movs	r1, #13
 8000c0c:	187b      	adds	r3, r7, r1
 8000c0e:	781a      	ldrb	r2, [r3, #0]
 8000c10:	187b      	adds	r3, r7, r1
 8000c12:	3201      	adds	r2, #1
 8000c14:	701a      	strb	r2, [r3, #0]
 8000c16:	230d      	movs	r3, #13
 8000c18:	18fb      	adds	r3, r7, r3
 8000c1a:	781b      	ldrb	r3, [r3, #0]
 8000c1c:	2bef      	cmp	r3, #239	; 0xef
 8000c1e:	d9e7      	bls.n	8000bf0 <_Z9send_datab+0xbc>
	}
	if(dma_running==false){
 8000c20:	4b0b      	ldr	r3, [pc, #44]	; (8000c50 <_Z9send_datab+0x11c>)
 8000c22:	781b      	ldrb	r3, [r3, #0]
 8000c24:	2b00      	cmp	r3, #0
 8000c26:	d109      	bne.n	8000c3c <_Z9send_datab+0x108>
		HAL_TIM_PWM_Start_DMA(&htim2, TIM_CHANNEL_3, (uint32_t*)pwm_data, (MAX_LED*NUM_BITS)+LED_RESET);
 8000c28:	23c0      	movs	r3, #192	; 0xc0
 8000c2a:	005b      	lsls	r3, r3, #1
 8000c2c:	4a06      	ldr	r2, [pc, #24]	; (8000c48 <_Z9send_datab+0x114>)
 8000c2e:	4809      	ldr	r0, [pc, #36]	; (8000c54 <_Z9send_datab+0x120>)
 8000c30:	2108      	movs	r1, #8
 8000c32:	f005 fa8d 	bl	8006150 <HAL_TIM_PWM_Start_DMA>
		dma_running=true;
 8000c36:	4b06      	ldr	r3, [pc, #24]	; (8000c50 <_Z9send_datab+0x11c>)
 8000c38:	2201      	movs	r2, #1
 8000c3a:	701a      	strb	r2, [r3, #0]
	}
}
 8000c3c:	46c0      	nop			; (mov r8, r8)
 8000c3e:	46bd      	mov	sp, r7
 8000c40:	b004      	add	sp, #16
 8000c42:	bd80      	pop	{r7, pc}
 8000c44:	200000b0 	.word	0x200000b0
 8000c48:	200000cc 	.word	0x200000cc
 8000c4c:	200000b4 	.word	0x200000b4
 8000c50:	200003cc 	.word	0x200003cc
 8000c54:	200004d0 	.word	0x200004d0

08000c58 <HAL_TIM_PWM_PulseFinishedCallback>:

/*
 * @brief: callback function when transfer is finished to stop the DMA
 */
void HAL_TIM_PWM_PulseFinishedCallback(TIM_HandleTypeDef *htim){
 8000c58:	b580      	push	{r7, lr}
 8000c5a:	b082      	sub	sp, #8
 8000c5c:	af00      	add	r7, sp, #0
 8000c5e:	6078      	str	r0, [r7, #4]
	HAL_TIM_PWM_Stop_DMA(&htim2, TIM_CHANNEL_3);
 8000c60:	4b05      	ldr	r3, [pc, #20]	; (8000c78 <HAL_TIM_PWM_PulseFinishedCallback+0x20>)
 8000c62:	2108      	movs	r1, #8
 8000c64:	0018      	movs	r0, r3
 8000c66:	f005 fbfd 	bl	8006464 <HAL_TIM_PWM_Stop_DMA>
	dma_running=false;
 8000c6a:	4b04      	ldr	r3, [pc, #16]	; (8000c7c <HAL_TIM_PWM_PulseFinishedCallback+0x24>)
 8000c6c:	2200      	movs	r2, #0
 8000c6e:	701a      	strb	r2, [r3, #0]
}
 8000c70:	46c0      	nop			; (mov r8, r8)
 8000c72:	46bd      	mov	sp, r7
 8000c74:	b002      	add	sp, #8
 8000c76:	bd80      	pop	{r7, pc}
 8000c78:	200004d0 	.word	0x200004d0
 8000c7c:	200003cc 	.word	0x200003cc

08000c80 <main>:
/**
  * @brief  The application entry point.
  * @retval int
  */
int main(void)
{
 8000c80:	b5f0      	push	{r4, r5, r6, r7, lr}
 8000c82:	b091      	sub	sp, #68	; 0x44
 8000c84:	af00      	add	r7, sp, #0
  /* USER CODE END 1 */

  /* MCU Configuration--------------------------------------------------------*/

  /* Reset of all peripherals, Initializes the Flash interface and the Systick. */
  HAL_Init();
 8000c86:	f002 fae3 	bl	8003250 <HAL_Init>
  /* USER CODE BEGIN Init */

  /* USER CODE END Init */

  /* Configure the system clock */
  SystemClock_Config();
 8000c8a:	f000 f8e1 	bl	8000e50 <_Z18SystemClock_Configv>
  /* USER CODE BEGIN SysInit */

  /* USER CODE END SysInit */

  /* Initialize all configured peripherals */
  MX_GPIO_Init();
 8000c8e:	f7ff fc29 	bl	80004e4 <MX_GPIO_Init>
  MX_DMA_Init();
 8000c92:	f7ff fc09 	bl	80004a8 <MX_DMA_Init>
  MX_I2C1_Init();
 8000c96:	f7ff fc93 	bl	80005c0 <MX_I2C1_Init>
  MX_TIM2_Init();
 8000c9a:	f001 fe1d 	bl	80028d8 <MX_TIM2_Init>
  MX_TIM21_Init();
 8000c9e:	f001 fe99 	bl	80029d4 <MX_TIM21_Init>
  MX_SPI1_Init();
 8000ca2:	f001 fd51 	bl	8002748 <MX_SPI1_Init>
  /* USER CODE BEGIN 2 */

  // start hardware timer for 1ms timer
  HAL_TIM_OC_Start_IT(&htim21, TIM_CHANNEL_1);
 8000ca6:	4b64      	ldr	r3, [pc, #400]	; (8000e38 <main+0x1b8>)
 8000ca8:	2100      	movs	r1, #0
 8000caa:	0018      	movs	r0, r3
 8000cac:	f005 f936 	bl	8005f1c <HAL_TIM_OC_Start_IT>

  // check the size of the board
  board_size = 4;
 8000cb0:	4b62      	ldr	r3, [pc, #392]	; (8000e3c <main+0x1bc>)
 8000cb2:	2204      	movs	r2, #4
 8000cb4:	701a      	strb	r2, [r3, #0]
  if(HAL_GPIO_ReadPin(sens_size_GPIO_Port, sens_size_Pin)==true){
 8000cb6:	23a0      	movs	r3, #160	; 0xa0
 8000cb8:	05db      	lsls	r3, r3, #23
 8000cba:	2108      	movs	r1, #8
 8000cbc:	0018      	movs	r0, r3
 8000cbe:	f003 f927 	bl	8003f10 <HAL_GPIO_ReadPin>
 8000cc2:	0003      	movs	r3, r0
 8000cc4:	3b01      	subs	r3, #1
 8000cc6:	425a      	negs	r2, r3
 8000cc8:	4153      	adcs	r3, r2
 8000cca:	b2db      	uxtb	r3, r3
 8000ccc:	2b00      	cmp	r3, #0
 8000cce:	d002      	beq.n	8000cd6 <main+0x56>
	  board_size = 6;
 8000cd0:	4b5a      	ldr	r3, [pc, #360]	; (8000e3c <main+0x1bc>)
 8000cd2:	2206      	movs	r2, #6
 8000cd4:	701a      	strb	r2, [r3, #0]
  }

  // read flash - load time zones, LED, brightness, point config
  uint32_t *RDAddr = (uint32_t *) UP_FLASH_ADDR;
 8000cd6:	4b5a      	ldr	r3, [pc, #360]	; (8000e40 <main+0x1c0>)
 8000cd8:	63fb      	str	r3, [r7, #60]	; 0x3c
  uint8_t rx8[WORDS_IN_FLASH*4];

  for(uint8_t i=0; i<WORDS_IN_FLASH; i++){
 8000cda:	233b      	movs	r3, #59	; 0x3b
 8000cdc:	18fb      	adds	r3, r7, r3
 8000cde:	2200      	movs	r2, #0
 8000ce0:	701a      	strb	r2, [r3, #0]
 8000ce2:	e02d      	b.n	8000d40 <main+0xc0>
	  uint32_t rx32 = *(__IO uint32_t *)RDAddr;
 8000ce4:	6bfb      	ldr	r3, [r7, #60]	; 0x3c
 8000ce6:	681b      	ldr	r3, [r3, #0]
 8000ce8:	637b      	str	r3, [r7, #52]	; 0x34
	  RDAddr++;
 8000cea:	6bfb      	ldr	r3, [r7, #60]	; 0x3c
 8000cec:	3304      	adds	r3, #4
 8000cee:	63fb      	str	r3, [r7, #60]	; 0x3c
	  rx8[i*4+0]=(uint8_t)(rx32&0xff);
 8000cf0:	203b      	movs	r0, #59	; 0x3b
 8000cf2:	183b      	adds	r3, r7, r0
 8000cf4:	781b      	ldrb	r3, [r3, #0]
 8000cf6:	009b      	lsls	r3, r3, #2
 8000cf8:	6b7a      	ldr	r2, [r7, #52]	; 0x34
 8000cfa:	b2d1      	uxtb	r1, r2
 8000cfc:	003a      	movs	r2, r7
 8000cfe:	54d1      	strb	r1, [r2, r3]
	  rx8[i*4+1]=(uint8_t)(rx32 >> 8) &0xff;
 8000d00:	6b7b      	ldr	r3, [r7, #52]	; 0x34
 8000d02:	0a1a      	lsrs	r2, r3, #8
 8000d04:	183b      	adds	r3, r7, r0
 8000d06:	781b      	ldrb	r3, [r3, #0]
 8000d08:	009b      	lsls	r3, r3, #2
 8000d0a:	3301      	adds	r3, #1
 8000d0c:	b2d1      	uxtb	r1, r2
 8000d0e:	003a      	movs	r2, r7
 8000d10:	54d1      	strb	r1, [r2, r3]
	  rx8[i*4+2]=(uint8_t)(rx32 >> 16)&0xff;
 8000d12:	6b7b      	ldr	r3, [r7, #52]	; 0x34
 8000d14:	0c1a      	lsrs	r2, r3, #16
 8000d16:	183b      	adds	r3, r7, r0
 8000d18:	781b      	ldrb	r3, [r3, #0]
 8000d1a:	009b      	lsls	r3, r3, #2
 8000d1c:	3302      	adds	r3, #2
 8000d1e:	b2d1      	uxtb	r1, r2
 8000d20:	003a      	movs	r2, r7
 8000d22:	54d1      	strb	r1, [r2, r3]
	  rx8[i*4+3]=(uint8_t)(rx32 >> 24);
 8000d24:	6b7b      	ldr	r3, [r7, #52]	; 0x34
 8000d26:	0e1a      	lsrs	r2, r3, #24
 8000d28:	183b      	adds	r3, r7, r0
 8000d2a:	781b      	ldrb	r3, [r3, #0]
 8000d2c:	009b      	lsls	r3, r3, #2
 8000d2e:	3303      	adds	r3, #3
 8000d30:	b2d1      	uxtb	r1, r2
 8000d32:	003a      	movs	r2, r7
 8000d34:	54d1      	strb	r1, [r2, r3]
  for(uint8_t i=0; i<WORDS_IN_FLASH; i++){
 8000d36:	183b      	adds	r3, r7, r0
 8000d38:	781a      	ldrb	r2, [r3, #0]
 8000d3a:	183b      	adds	r3, r7, r0
 8000d3c:	3201      	adds	r2, #1
 8000d3e:	701a      	strb	r2, [r3, #0]
 8000d40:	233b      	movs	r3, #59	; 0x3b
 8000d42:	18fb      	adds	r3, r7, r3
 8000d44:	781b      	ldrb	r3, [r3, #0]
 8000d46:	2b0c      	cmp	r3, #12
 8000d48:	d9cc      	bls.n	8000ce4 <main+0x64>
  }

  uint8_t index = 0;
 8000d4a:	233a      	movs	r3, #58	; 0x3a
 8000d4c:	18fb      	adds	r3, r7, r3
 8000d4e:	2200      	movs	r2, #0
 8000d50:	701a      	strb	r2, [r3, #0]
  for(uint8_t i=0;i<8;i++){
 8000d52:	2339      	movs	r3, #57	; 0x39
 8000d54:	18fb      	adds	r3, r7, r3
 8000d56:	2200      	movs	r2, #0
 8000d58:	701a      	strb	r2, [r3, #0]
 8000d5a:	e02c      	b.n	8000db6 <main+0x136>
	  for(uint8_t j=0;j<6;j++){
 8000d5c:	2338      	movs	r3, #56	; 0x38
 8000d5e:	18fb      	adds	r3, r7, r3
 8000d60:	2200      	movs	r2, #0
 8000d62:	701a      	strb	r2, [r3, #0]
 8000d64:	e01c      	b.n	8000da0 <main+0x120>
		  on_time[i][j] = rx8[index];
 8000d66:	253a      	movs	r5, #58	; 0x3a
 8000d68:	197b      	adds	r3, r7, r5
 8000d6a:	781b      	ldrb	r3, [r3, #0]
 8000d6c:	2239      	movs	r2, #57	; 0x39
 8000d6e:	18ba      	adds	r2, r7, r2
 8000d70:	7812      	ldrb	r2, [r2, #0]
 8000d72:	2638      	movs	r6, #56	; 0x38
 8000d74:	19b9      	adds	r1, r7, r6
 8000d76:	7809      	ldrb	r1, [r1, #0]
 8000d78:	0038      	movs	r0, r7
 8000d7a:	5cc4      	ldrb	r4, [r0, r3]
 8000d7c:	4831      	ldr	r0, [pc, #196]	; (8000e44 <main+0x1c4>)
 8000d7e:	0013      	movs	r3, r2
 8000d80:	005b      	lsls	r3, r3, #1
 8000d82:	189b      	adds	r3, r3, r2
 8000d84:	005b      	lsls	r3, r3, #1
 8000d86:	18c3      	adds	r3, r0, r3
 8000d88:	1c22      	adds	r2, r4, #0
 8000d8a:	545a      	strb	r2, [r3, r1]
		  index++;
 8000d8c:	197b      	adds	r3, r7, r5
 8000d8e:	781a      	ldrb	r2, [r3, #0]
 8000d90:	197b      	adds	r3, r7, r5
 8000d92:	3201      	adds	r2, #1
 8000d94:	701a      	strb	r2, [r3, #0]
	  for(uint8_t j=0;j<6;j++){
 8000d96:	19bb      	adds	r3, r7, r6
 8000d98:	781a      	ldrb	r2, [r3, #0]
 8000d9a:	19bb      	adds	r3, r7, r6
 8000d9c:	3201      	adds	r2, #1
 8000d9e:	701a      	strb	r2, [r3, #0]
 8000da0:	2338      	movs	r3, #56	; 0x38
 8000da2:	18fb      	adds	r3, r7, r3
 8000da4:	781b      	ldrb	r3, [r3, #0]
 8000da6:	2b05      	cmp	r3, #5
 8000da8:	d9dd      	bls.n	8000d66 <main+0xe6>
  for(uint8_t i=0;i<8;i++){
 8000daa:	2139      	movs	r1, #57	; 0x39
 8000dac:	187b      	adds	r3, r7, r1
 8000dae:	781a      	ldrb	r2, [r3, #0]
 8000db0:	187b      	adds	r3, r7, r1
 8000db2:	3201      	adds	r2, #1
 8000db4:	701a      	strb	r2, [r3, #0]
 8000db6:	2339      	movs	r3, #57	; 0x39
 8000db8:	18fb      	adds	r3, r7, r3
 8000dba:	781b      	ldrb	r3, [r3, #0]
 8000dbc:	2b07      	cmp	r3, #7
 8000dbe:	d9cd      	bls.n	8000d5c <main+0xdc>
	  }
  }
  misc_setting[index-48] = rx8[index]; index++;	//load LED config
 8000dc0:	203a      	movs	r0, #58	; 0x3a
 8000dc2:	183b      	adds	r3, r7, r0
 8000dc4:	781a      	ldrb	r2, [r3, #0]
 8000dc6:	183b      	adds	r3, r7, r0
 8000dc8:	781b      	ldrb	r3, [r3, #0]
 8000dca:	3b30      	subs	r3, #48	; 0x30
 8000dcc:	0039      	movs	r1, r7
 8000dce:	5c89      	ldrb	r1, [r1, r2]
 8000dd0:	4a1d      	ldr	r2, [pc, #116]	; (8000e48 <main+0x1c8>)
 8000dd2:	54d1      	strb	r1, [r2, r3]
 8000dd4:	183b      	adds	r3, r7, r0
 8000dd6:	781a      	ldrb	r2, [r3, #0]
 8000dd8:	183b      	adds	r3, r7, r0
 8000dda:	3201      	adds	r2, #1
 8000ddc:	701a      	strb	r2, [r3, #0]
  misc_setting[index-48] = rx8[index]; index++;	//load brightness config
 8000dde:	183b      	adds	r3, r7, r0
 8000de0:	781a      	ldrb	r2, [r3, #0]
 8000de2:	183b      	adds	r3, r7, r0
 8000de4:	781b      	ldrb	r3, [r3, #0]
 8000de6:	3b30      	subs	r3, #48	; 0x30
 8000de8:	0039      	movs	r1, r7
 8000dea:	5c89      	ldrb	r1, [r1, r2]
 8000dec:	4a16      	ldr	r2, [pc, #88]	; (8000e48 <main+0x1c8>)
 8000dee:	54d1      	strb	r1, [r2, r3]
 8000df0:	183b      	adds	r3, r7, r0
 8000df2:	781a      	ldrb	r2, [r3, #0]
 8000df4:	183b      	adds	r3, r7, r0
 8000df6:	3201      	adds	r2, #1
 8000df8:	701a      	strb	r2, [r3, #0]
  misc_setting[index-48] = rx8[index];	//load point config
 8000dfa:	183b      	adds	r3, r7, r0
 8000dfc:	781a      	ldrb	r2, [r3, #0]
 8000dfe:	183b      	adds	r3, r7, r0
 8000e00:	781b      	ldrb	r3, [r3, #0]
 8000e02:	3b30      	subs	r3, #48	; 0x30
 8000e04:	0039      	movs	r1, r7
 8000e06:	5c89      	ldrb	r1, [r1, r2]
 8000e08:	4a0f      	ldr	r2, [pc, #60]	; (8000e48 <main+0x1c8>)
 8000e0a:	54d1      	strb	r1, [r2, r3]
  /* USER CODE BEGIN WHILE */

  while (1)
  {
    /* USER CODE END WHILE */
	  if(timeout(main_timer)){
 8000e0c:	4b0f      	ldr	r3, [pc, #60]	; (8000e4c <main+0x1cc>)
 8000e0e:	681b      	ldr	r3, [r3, #0]
 8000e10:	0018      	movs	r0, r3
 8000e12:	f000 f8b9 	bl	8000f88 <timeout>
 8000e16:	1e03      	subs	r3, r0, #0
 8000e18:	d0f8      	beq.n	8000e0c <main+0x18c>
		  main_timer = start_timer_ms(MAIN_TIMER);
 8000e1a:	2001      	movs	r0, #1
 8000e1c:	f000 f8a4 	bl	8000f68 <start_timer_ms>
 8000e20:	0002      	movs	r2, r0
 8000e22:	4b0a      	ldr	r3, [pc, #40]	; (8000e4c <main+0x1cc>)
 8000e24:	601a      	str	r2, [r3, #0]
		  run_time_handler();
 8000e26:	f001 fef1 	bl	8002c0c <_Z16run_time_handlerv>

		  run_output_mixer(run_input_handler());
 8000e2a:	f7ff fc4d 	bl	80006c8 <_Z17run_input_handlerv>
 8000e2e:	0003      	movs	r3, r0
 8000e30:	0018      	movs	r0, r3
 8000e32:	f000 fa31 	bl	8001298 <_Z16run_output_mixerh>
	  if(timeout(main_timer)){
 8000e36:	e7e9      	b.n	8000e0c <main+0x18c>
 8000e38:	20000510 	.word	0x20000510
 8000e3c:	200003d8 	.word	0x200003d8
 8000e40:	08080000 	.word	0x08080000
 8000e44:	200003dc 	.word	0x200003dc
 8000e48:	2000040c 	.word	0x2000040c
 8000e4c:	200003d0 	.word	0x200003d0

08000e50 <_Z18SystemClock_Configv>:
/**
  * @brief System Clock Configuration
  * @retval None
  */
void SystemClock_Config(void)
{
 8000e50:	b590      	push	{r4, r7, lr}
 8000e52:	b099      	sub	sp, #100	; 0x64
 8000e54:	af00      	add	r7, sp, #0
  RCC_OscInitTypeDef RCC_OscInitStruct = {0};
 8000e56:	242c      	movs	r4, #44	; 0x2c
 8000e58:	193b      	adds	r3, r7, r4
 8000e5a:	0018      	movs	r0, r3
 8000e5c:	2334      	movs	r3, #52	; 0x34
 8000e5e:	001a      	movs	r2, r3
 8000e60:	2100      	movs	r1, #0
 8000e62:	f006 f9eb 	bl	800723c <memset>
  RCC_ClkInitTypeDef RCC_ClkInitStruct = {0};
 8000e66:	2318      	movs	r3, #24
 8000e68:	18fb      	adds	r3, r7, r3
 8000e6a:	0018      	movs	r0, r3
 8000e6c:	2314      	movs	r3, #20
 8000e6e:	001a      	movs	r2, r3
 8000e70:	2100      	movs	r1, #0
 8000e72:	f006 f9e3 	bl	800723c <memset>
  RCC_PeriphCLKInitTypeDef PeriphClkInit = {0};
 8000e76:	003b      	movs	r3, r7
 8000e78:	0018      	movs	r0, r3
 8000e7a:	2318      	movs	r3, #24
 8000e7c:	001a      	movs	r2, r3
 8000e7e:	2100      	movs	r1, #0
 8000e80:	f006 f9dc 	bl	800723c <memset>

  /** Configure the main internal regulator output voltage
  */
  __HAL_PWR_VOLTAGESCALING_CONFIG(PWR_REGULATOR_VOLTAGE_SCALE1);
 8000e84:	4b30      	ldr	r3, [pc, #192]	; (8000f48 <_Z18SystemClock_Configv+0xf8>)
 8000e86:	681b      	ldr	r3, [r3, #0]
 8000e88:	4a30      	ldr	r2, [pc, #192]	; (8000f4c <_Z18SystemClock_Configv+0xfc>)
 8000e8a:	401a      	ands	r2, r3
 8000e8c:	4b2e      	ldr	r3, [pc, #184]	; (8000f48 <_Z18SystemClock_Configv+0xf8>)
 8000e8e:	2180      	movs	r1, #128	; 0x80
 8000e90:	0109      	lsls	r1, r1, #4
 8000e92:	430a      	orrs	r2, r1
 8000e94:	601a      	str	r2, [r3, #0]

  /** Initializes the RCC Oscillators according to the specified parameters
  * in the RCC_OscInitTypeDef structure.
  */
  RCC_OscInitStruct.OscillatorType = RCC_OSCILLATORTYPE_HSI;
 8000e96:	0021      	movs	r1, r4
 8000e98:	187b      	adds	r3, r7, r1
 8000e9a:	2202      	movs	r2, #2
 8000e9c:	601a      	str	r2, [r3, #0]
  RCC_OscInitStruct.HSIState = RCC_HSI_ON;
 8000e9e:	187b      	adds	r3, r7, r1
 8000ea0:	2201      	movs	r2, #1
 8000ea2:	60da      	str	r2, [r3, #12]
  RCC_OscInitStruct.HSICalibrationValue = RCC_HSICALIBRATION_DEFAULT;
 8000ea4:	187b      	adds	r3, r7, r1
 8000ea6:	2210      	movs	r2, #16
 8000ea8:	611a      	str	r2, [r3, #16]
  RCC_OscInitStruct.PLL.PLLState = RCC_PLL_ON;
 8000eaa:	187b      	adds	r3, r7, r1
 8000eac:	2202      	movs	r2, #2
 8000eae:	625a      	str	r2, [r3, #36]	; 0x24
  RCC_OscInitStruct.PLL.PLLSource = RCC_PLLSOURCE_HSI;
 8000eb0:	187b      	adds	r3, r7, r1
 8000eb2:	2200      	movs	r2, #0
 8000eb4:	629a      	str	r2, [r3, #40]	; 0x28
  RCC_OscInitStruct.PLL.PLLMUL = RCC_PLLMUL_4;
 8000eb6:	187b      	adds	r3, r7, r1
 8000eb8:	2280      	movs	r2, #128	; 0x80
 8000eba:	02d2      	lsls	r2, r2, #11
 8000ebc:	62da      	str	r2, [r3, #44]	; 0x2c
  RCC_OscInitStruct.PLL.PLLDIV = RCC_PLLDIV_2;
 8000ebe:	187b      	adds	r3, r7, r1
 8000ec0:	2280      	movs	r2, #128	; 0x80
 8000ec2:	03d2      	lsls	r2, r2, #15
 8000ec4:	631a      	str	r2, [r3, #48]	; 0x30
  if (HAL_RCC_OscConfig(&RCC_OscInitStruct) != HAL_OK)
 8000ec6:	187b      	adds	r3, r7, r1
 8000ec8:	0018      	movs	r0, r3
 8000eca:	f003 fe4f 	bl	8004b6c <HAL_RCC_OscConfig>
 8000ece:	0003      	movs	r3, r0
 8000ed0:	1e5a      	subs	r2, r3, #1
 8000ed2:	4193      	sbcs	r3, r2
 8000ed4:	b2db      	uxtb	r3, r3
 8000ed6:	2b00      	cmp	r3, #0
 8000ed8:	d001      	beq.n	8000ede <_Z18SystemClock_Configv+0x8e>
  {
    Error_Handler();
 8000eda:	f000 f867 	bl	8000fac <Error_Handler>
  }

  /** Initializes the CPU, AHB and APB buses clocks
  */
  RCC_ClkInitStruct.ClockType = RCC_CLOCKTYPE_HCLK|RCC_CLOCKTYPE_SYSCLK
 8000ede:	2118      	movs	r1, #24
 8000ee0:	187b      	adds	r3, r7, r1
 8000ee2:	220f      	movs	r2, #15
 8000ee4:	601a      	str	r2, [r3, #0]
                              |RCC_CLOCKTYPE_PCLK1|RCC_CLOCKTYPE_PCLK2;
  RCC_ClkInitStruct.SYSCLKSource = RCC_SYSCLKSOURCE_PLLCLK;
 8000ee6:	187b      	adds	r3, r7, r1
 8000ee8:	2203      	movs	r2, #3
 8000eea:	605a      	str	r2, [r3, #4]
  RCC_ClkInitStruct.AHBCLKDivider = RCC_SYSCLK_DIV1;
 8000eec:	187b      	adds	r3, r7, r1
 8000eee:	2200      	movs	r2, #0
 8000ef0:	609a      	str	r2, [r3, #8]
  RCC_ClkInitStruct.APB1CLKDivider = RCC_HCLK_DIV1;
 8000ef2:	187b      	adds	r3, r7, r1
 8000ef4:	2200      	movs	r2, #0
 8000ef6:	60da      	str	r2, [r3, #12]
  RCC_ClkInitStruct.APB2CLKDivider = RCC_HCLK_DIV2;
 8000ef8:	187b      	adds	r3, r7, r1
 8000efa:	2280      	movs	r2, #128	; 0x80
 8000efc:	00d2      	lsls	r2, r2, #3
 8000efe:	611a      	str	r2, [r3, #16]

  if (HAL_RCC_ClockConfig(&RCC_ClkInitStruct, FLASH_LATENCY_1) != HAL_OK)
 8000f00:	187b      	adds	r3, r7, r1
 8000f02:	2101      	movs	r1, #1
 8000f04:	0018      	movs	r0, r3
 8000f06:	f004 f9ad 	bl	8005264 <HAL_RCC_ClockConfig>
 8000f0a:	0003      	movs	r3, r0
 8000f0c:	1e5a      	subs	r2, r3, #1
 8000f0e:	4193      	sbcs	r3, r2
 8000f10:	b2db      	uxtb	r3, r3
 8000f12:	2b00      	cmp	r3, #0
 8000f14:	d001      	beq.n	8000f1a <_Z18SystemClock_Configv+0xca>
  {
    Error_Handler();
 8000f16:	f000 f849 	bl	8000fac <Error_Handler>
  }
  PeriphClkInit.PeriphClockSelection = RCC_PERIPHCLK_I2C1;
 8000f1a:	003b      	movs	r3, r7
 8000f1c:	2208      	movs	r2, #8
 8000f1e:	601a      	str	r2, [r3, #0]
  PeriphClkInit.I2c1ClockSelection = RCC_I2C1CLKSOURCE_PCLK1;
 8000f20:	003b      	movs	r3, r7
 8000f22:	2200      	movs	r2, #0
 8000f24:	611a      	str	r2, [r3, #16]
  if (HAL_RCCEx_PeriphCLKConfig(&PeriphClkInit) != HAL_OK)
 8000f26:	003b      	movs	r3, r7
 8000f28:	0018      	movs	r0, r3
 8000f2a:	f004 fb89 	bl	8005640 <HAL_RCCEx_PeriphCLKConfig>
 8000f2e:	0003      	movs	r3, r0
 8000f30:	1e5a      	subs	r2, r3, #1
 8000f32:	4193      	sbcs	r3, r2
 8000f34:	b2db      	uxtb	r3, r3
 8000f36:	2b00      	cmp	r3, #0
 8000f38:	d001      	beq.n	8000f3e <_Z18SystemClock_Configv+0xee>
  {
    Error_Handler();
 8000f3a:	f000 f837 	bl	8000fac <Error_Handler>
  }
}
 8000f3e:	46c0      	nop			; (mov r8, r8)
 8000f40:	46bd      	mov	sp, r7
 8000f42:	b019      	add	sp, #100	; 0x64
 8000f44:	bd90      	pop	{r4, r7, pc}
 8000f46:	46c0      	nop			; (mov r8, r8)
 8000f48:	40007000 	.word	0x40007000
 8000f4c:	ffffe7ff 	.word	0xffffe7ff

08000f50 <counter_update_it>:

//variables for runtime functions
/**
 * @brief: funcitons updates counter for 1ms time base - triggered by timer hardware module
 */
void counter_update_it(){
 8000f50:	b580      	push	{r7, lr}
 8000f52:	af00      	add	r7, sp, #0
	sys_counter++;
 8000f54:	4b03      	ldr	r3, [pc, #12]	; (8000f64 <counter_update_it+0x14>)
 8000f56:	681b      	ldr	r3, [r3, #0]
 8000f58:	1c5a      	adds	r2, r3, #1
 8000f5a:	4b02      	ldr	r3, [pc, #8]	; (8000f64 <counter_update_it+0x14>)
 8000f5c:	601a      	str	r2, [r3, #0]
}
 8000f5e:	46c0      	nop			; (mov r8, r8)
 8000f60:	46bd      	mov	sp, r7
 8000f62:	bd80      	pop	{r7, pc}
 8000f64:	200003d4 	.word	0x200003d4

08000f68 <start_timer_ms>:
 * @brief function to calculate end-time of timer event
 * @param ms: amount of time, the timer should run
 * @return systemtick value, at which the timer run out
 * @usage: call function and insert return value into timeout() function, to check if timeout occured
 */
uint32_t start_timer_ms(uint32_t new_timer_value){
 8000f68:	b580      	push	{r7, lr}
 8000f6a:	b082      	sub	sp, #8
 8000f6c:	af00      	add	r7, sp, #0
 8000f6e:	6078      	str	r0, [r7, #4]
	return new_timer_value += sys_counter;
 8000f70:	4b04      	ldr	r3, [pc, #16]	; (8000f84 <start_timer_ms+0x1c>)
 8000f72:	681b      	ldr	r3, [r3, #0]
 8000f74:	687a      	ldr	r2, [r7, #4]
 8000f76:	18d3      	adds	r3, r2, r3
 8000f78:	607b      	str	r3, [r7, #4]
 8000f7a:	687b      	ldr	r3, [r7, #4]
}
 8000f7c:	0018      	movs	r0, r3
 8000f7e:	46bd      	mov	sp, r7
 8000f80:	b002      	add	sp, #8
 8000f82:	bd80      	pop	{r7, pc}
 8000f84:	200003d4 	.word	0x200003d4

08000f88 <timeout>:
/**
 * @brief checks if the timer set by start_timer_ms for a given class is expired
 * @return if present tick counter is higher then timer value set by start_timer_ms
 * the timer is expired and the function returns true
 */
bool timeout(uint32_t end_time){
 8000f88:	b580      	push	{r7, lr}
 8000f8a:	b082      	sub	sp, #8
 8000f8c:	af00      	add	r7, sp, #0
 8000f8e:	6078      	str	r0, [r7, #4]
	if(end_time>sys_counter)
 8000f90:	4b05      	ldr	r3, [pc, #20]	; (8000fa8 <timeout+0x20>)
 8000f92:	681b      	ldr	r3, [r3, #0]
 8000f94:	687a      	ldr	r2, [r7, #4]
 8000f96:	429a      	cmp	r2, r3
 8000f98:	d901      	bls.n	8000f9e <timeout+0x16>
		return false;
 8000f9a:	2300      	movs	r3, #0
 8000f9c:	e000      	b.n	8000fa0 <timeout+0x18>
	else
		return true;
 8000f9e:	2301      	movs	r3, #1
}
 8000fa0:	0018      	movs	r0, r3
 8000fa2:	46bd      	mov	sp, r7
 8000fa4:	b002      	add	sp, #8
 8000fa6:	bd80      	pop	{r7, pc}
 8000fa8:	200003d4 	.word	0x200003d4

08000fac <Error_Handler>:
/**
  * @brief  This function is executed in case of error occurrence.
  * @retval None
  */
void Error_Handler(void)
{
 8000fac:	b580      	push	{r7, lr}
 8000fae:	af00      	add	r7, sp, #0
  \details Disables IRQ interrupts by setting the I-bit in the CPSR.
           Can only be executed in Privileged modes.
 */
__STATIC_FORCEINLINE void __disable_irq(void)
{
  __ASM volatile ("cpsid i" : : : "memory");
 8000fb0:	b672      	cpsid	i
}
 8000fb2:	46c0      	nop			; (mov r8, r8)
  /* USER CODE BEGIN Error_Handler_Debug */
  /* User can add his own implementation to report the HAL error return state */
  __disable_irq();
  while (1)
 8000fb4:	e7fe      	b.n	8000fb4 <Error_Handler+0x8>
	...

08000fb8 <_Z9spi_writev>:
//////////////// SPI-Subroutine ////////////////
//MSB first
/*
 * @brief: function to handle write commands via SPI - calls HAL
 */
void spi_write(void){
 8000fb8:	b580      	push	{r7, lr}
 8000fba:	af00      	add	r7, sp, #0
	HAL_GPIO_WritePin(sr_shift_output_GPIO_Port, sr_shift_output_Pin, GPIO_PIN_RESET);
 8000fbc:	23a0      	movs	r3, #160	; 0xa0
 8000fbe:	05db      	lsls	r3, r3, #23
 8000fc0:	2200      	movs	r2, #0
 8000fc2:	2140      	movs	r1, #64	; 0x40
 8000fc4:	0018      	movs	r0, r3
 8000fc6:	f002 ffc0 	bl	8003f4a <HAL_GPIO_WritePin>
	HAL_SPI_Transmit(&hspi1, spi_data, 4, 100);
 8000fca:	4908      	ldr	r1, [pc, #32]	; (8000fec <_Z9spi_writev+0x34>)
 8000fcc:	4808      	ldr	r0, [pc, #32]	; (8000ff0 <_Z9spi_writev+0x38>)
 8000fce:	2364      	movs	r3, #100	; 0x64
 8000fd0:	2204      	movs	r2, #4
 8000fd2:	f004 fcea 	bl	80059aa <HAL_SPI_Transmit>
	HAL_GPIO_WritePin(sr_shift_output_GPIO_Port, sr_shift_output_Pin, GPIO_PIN_SET);
 8000fd6:	23a0      	movs	r3, #160	; 0xa0
 8000fd8:	05db      	lsls	r3, r3, #23
 8000fda:	2201      	movs	r2, #1
 8000fdc:	2140      	movs	r1, #64	; 0x40
 8000fde:	0018      	movs	r0, r3
 8000fe0:	f002 ffb3 	bl	8003f4a <HAL_GPIO_WritePin>
}
 8000fe4:	46c0      	nop			; (mov r8, r8)
 8000fe6:	46bd      	mov	sp, r7
 8000fe8:	bd80      	pop	{r7, pc}
 8000fea:	46c0      	nop			; (mov r8, r8)
 8000fec:	20000414 	.word	0x20000414
 8000ff0:	20000478 	.word	0x20000478

08000ff4 <_Z10set_numberhh>:
 * @brief writes a value to the register of the specified number
 * @param tube_number is the selected tube. 0 is the left tube, 5 the most right one (if 6 tubes are installed)
 * @param value is the value to be displayed - values other than 0 to 9 will turn the tube off
 * @note: values are stored in their variables so that they can easily be copied into the spi_data
 */
void set_number(uint8_t tube_number, uint8_t value){
 8000ff4:	b580      	push	{r7, lr}
 8000ff6:	b084      	sub	sp, #16
 8000ff8:	af00      	add	r7, sp, #0
 8000ffa:	0002      	movs	r2, r0
 8000ffc:	1dfb      	adds	r3, r7, #7
 8000ffe:	701a      	strb	r2, [r3, #0]
 8001000:	1dbb      	adds	r3, r7, #6
 8001002:	1c0a      	adds	r2, r1, #0
 8001004:	701a      	strb	r2, [r3, #0]
	uint8_t temp = 0;
 8001006:	230f      	movs	r3, #15
 8001008:	18fb      	adds	r3, r7, r3
 800100a:	2200      	movs	r2, #0
 800100c:	701a      	strb	r2, [r3, #0]

	if(value>0xf)
 800100e:	1dbb      	adds	r3, r7, #6
 8001010:	781b      	ldrb	r3, [r3, #0]
 8001012:	2b0f      	cmp	r3, #15
 8001014:	d902      	bls.n	800101c <_Z10set_numberhh+0x28>
		value=0xf;
 8001016:	1dbb      	adds	r3, r7, #6
 8001018:	220f      	movs	r2, #15
 800101a:	701a      	strb	r2, [r3, #0]

	if(tube_number%2 == 1)
 800101c:	1dfb      	adds	r3, r7, #7
 800101e:	781b      	ldrb	r3, [r3, #0]
 8001020:	2201      	movs	r2, #1
 8001022:	4013      	ands	r3, r2
 8001024:	d004      	beq.n	8001030 <_Z10set_numberhh+0x3c>
		value = (value << 4) & 0xff;
 8001026:	1dbb      	adds	r3, r7, #6
 8001028:	781b      	ldrb	r3, [r3, #0]
 800102a:	011a      	lsls	r2, r3, #4
 800102c:	1dbb      	adds	r3, r7, #6
 800102e:	701a      	strb	r2, [r3, #0]

	//spi_data [0] = seconds; [2] = minutes; [3] = hours

	switch(tube_number){
 8001030:	1dfb      	adds	r3, r7, #7
 8001032:	781b      	ldrb	r3, [r3, #0]
 8001034:	2b05      	cmp	r3, #5
 8001036:	d86a      	bhi.n	800110e <_Z10set_numberhh+0x11a>
 8001038:	009a      	lsls	r2, r3, #2
 800103a:	4b37      	ldr	r3, [pc, #220]	; (8001118 <_Z10set_numberhh+0x124>)
 800103c:	18d3      	adds	r3, r2, r3
 800103e:	681b      	ldr	r3, [r3, #0]
 8001040:	469f      	mov	pc, r3
		case 0: temp = spi_data[3]; spi_data[3] = (temp & 0xf0) | value; break;
 8001042:	210f      	movs	r1, #15
 8001044:	187b      	adds	r3, r7, r1
 8001046:	4a35      	ldr	r2, [pc, #212]	; (800111c <_Z10set_numberhh+0x128>)
 8001048:	78d2      	ldrb	r2, [r2, #3]
 800104a:	701a      	strb	r2, [r3, #0]
 800104c:	187b      	adds	r3, r7, r1
 800104e:	781b      	ldrb	r3, [r3, #0]
 8001050:	220f      	movs	r2, #15
 8001052:	4393      	bics	r3, r2
 8001054:	b2da      	uxtb	r2, r3
 8001056:	1dbb      	adds	r3, r7, #6
 8001058:	781b      	ldrb	r3, [r3, #0]
 800105a:	4313      	orrs	r3, r2
 800105c:	b2da      	uxtb	r2, r3
 800105e:	4b2f      	ldr	r3, [pc, #188]	; (800111c <_Z10set_numberhh+0x128>)
 8001060:	70da      	strb	r2, [r3, #3]
 8001062:	e055      	b.n	8001110 <_Z10set_numberhh+0x11c>
		case 1: temp = spi_data[3]; spi_data[3] = (temp & 0x0f) | value; break;	//number already shifted 4 bites
 8001064:	210f      	movs	r1, #15
 8001066:	187b      	adds	r3, r7, r1
 8001068:	4a2c      	ldr	r2, [pc, #176]	; (800111c <_Z10set_numberhh+0x128>)
 800106a:	78d2      	ldrb	r2, [r2, #3]
 800106c:	701a      	strb	r2, [r3, #0]
 800106e:	187b      	adds	r3, r7, r1
 8001070:	781b      	ldrb	r3, [r3, #0]
 8001072:	220f      	movs	r2, #15
 8001074:	4013      	ands	r3, r2
 8001076:	b2da      	uxtb	r2, r3
 8001078:	1dbb      	adds	r3, r7, #6
 800107a:	781b      	ldrb	r3, [r3, #0]
 800107c:	4313      	orrs	r3, r2
 800107e:	b2da      	uxtb	r2, r3
 8001080:	4b26      	ldr	r3, [pc, #152]	; (800111c <_Z10set_numberhh+0x128>)
 8001082:	70da      	strb	r2, [r3, #3]
 8001084:	e044      	b.n	8001110 <_Z10set_numberhh+0x11c>
		case 2: temp = spi_data[2]; spi_data[2] = (temp & 0xf0) | value; break;
 8001086:	210f      	movs	r1, #15
 8001088:	187b      	adds	r3, r7, r1
 800108a:	4a24      	ldr	r2, [pc, #144]	; (800111c <_Z10set_numberhh+0x128>)
 800108c:	7892      	ldrb	r2, [r2, #2]
 800108e:	701a      	strb	r2, [r3, #0]
 8001090:	187b      	adds	r3, r7, r1
 8001092:	781b      	ldrb	r3, [r3, #0]
 8001094:	220f      	movs	r2, #15
 8001096:	4393      	bics	r3, r2
 8001098:	b2da      	uxtb	r2, r3
 800109a:	1dbb      	adds	r3, r7, #6
 800109c:	781b      	ldrb	r3, [r3, #0]
 800109e:	4313      	orrs	r3, r2
 80010a0:	b2da      	uxtb	r2, r3
 80010a2:	4b1e      	ldr	r3, [pc, #120]	; (800111c <_Z10set_numberhh+0x128>)
 80010a4:	709a      	strb	r2, [r3, #2]
 80010a6:	e033      	b.n	8001110 <_Z10set_numberhh+0x11c>
		case 3: temp = spi_data[2]; spi_data[2] = (temp & 0x0f) | value; break;
 80010a8:	210f      	movs	r1, #15
 80010aa:	187b      	adds	r3, r7, r1
 80010ac:	4a1b      	ldr	r2, [pc, #108]	; (800111c <_Z10set_numberhh+0x128>)
 80010ae:	7892      	ldrb	r2, [r2, #2]
 80010b0:	701a      	strb	r2, [r3, #0]
 80010b2:	187b      	adds	r3, r7, r1
 80010b4:	781b      	ldrb	r3, [r3, #0]
 80010b6:	220f      	movs	r2, #15
 80010b8:	4013      	ands	r3, r2
 80010ba:	b2da      	uxtb	r2, r3
 80010bc:	1dbb      	adds	r3, r7, #6
 80010be:	781b      	ldrb	r3, [r3, #0]
 80010c0:	4313      	orrs	r3, r2
 80010c2:	b2da      	uxtb	r2, r3
 80010c4:	4b15      	ldr	r3, [pc, #84]	; (800111c <_Z10set_numberhh+0x128>)
 80010c6:	709a      	strb	r2, [r3, #2]
 80010c8:	e022      	b.n	8001110 <_Z10set_numberhh+0x11c>
		case 4: temp = spi_data[0]; spi_data[0] = (temp & 0xf0) | value; break;
 80010ca:	210f      	movs	r1, #15
 80010cc:	187b      	adds	r3, r7, r1
 80010ce:	4a13      	ldr	r2, [pc, #76]	; (800111c <_Z10set_numberhh+0x128>)
 80010d0:	7812      	ldrb	r2, [r2, #0]
 80010d2:	701a      	strb	r2, [r3, #0]
 80010d4:	187b      	adds	r3, r7, r1
 80010d6:	781b      	ldrb	r3, [r3, #0]
 80010d8:	220f      	movs	r2, #15
 80010da:	4393      	bics	r3, r2
 80010dc:	b2da      	uxtb	r2, r3
 80010de:	1dbb      	adds	r3, r7, #6
 80010e0:	781b      	ldrb	r3, [r3, #0]
 80010e2:	4313      	orrs	r3, r2
 80010e4:	b2da      	uxtb	r2, r3
 80010e6:	4b0d      	ldr	r3, [pc, #52]	; (800111c <_Z10set_numberhh+0x128>)
 80010e8:	701a      	strb	r2, [r3, #0]
 80010ea:	e011      	b.n	8001110 <_Z10set_numberhh+0x11c>
		case 5: temp = spi_data[0]; spi_data[0] = (temp & 0x0f) | value; break;
 80010ec:	210f      	movs	r1, #15
 80010ee:	187b      	adds	r3, r7, r1
 80010f0:	4a0a      	ldr	r2, [pc, #40]	; (800111c <_Z10set_numberhh+0x128>)
 80010f2:	7812      	ldrb	r2, [r2, #0]
 80010f4:	701a      	strb	r2, [r3, #0]
 80010f6:	187b      	adds	r3, r7, r1
 80010f8:	781b      	ldrb	r3, [r3, #0]
 80010fa:	220f      	movs	r2, #15
 80010fc:	4013      	ands	r3, r2
 80010fe:	b2da      	uxtb	r2, r3
 8001100:	1dbb      	adds	r3, r7, #6
 8001102:	781b      	ldrb	r3, [r3, #0]
 8001104:	4313      	orrs	r3, r2
 8001106:	b2da      	uxtb	r2, r3
 8001108:	4b04      	ldr	r3, [pc, #16]	; (800111c <_Z10set_numberhh+0x128>)
 800110a:	701a      	strb	r2, [r3, #0]
 800110c:	e000      	b.n	8001110 <_Z10set_numberhh+0x11c>
		default: break;
 800110e:	46c0      	nop			; (mov r8, r8)
	}
}
 8001110:	46c0      	nop			; (mov r8, r8)
 8001112:	46bd      	mov	sp, r7
 8001114:	b004      	add	sp, #16
 8001116:	bd80      	pop	{r7, pc}
 8001118:	080072ac 	.word	0x080072ac
 800111c:	20000414 	.word	0x20000414

08001120 <_Z9set_pointhb>:
/**
 * @brief turns a specific point on or off
 * @param point_number is the selected point starting from left - 0: lh, 1: ll, 2: rh, 3: rl
 * @param state true -> point is on; false -> point is off
 */
void set_point(uint8_t point_number, bool state){
 8001120:	b580      	push	{r7, lr}
 8001122:	b082      	sub	sp, #8
 8001124:	af00      	add	r7, sp, #0
 8001126:	0002      	movs	r2, r0
 8001128:	1dfb      	adds	r3, r7, #7
 800112a:	701a      	strb	r2, [r3, #0]
 800112c:	1dbb      	adds	r3, r7, #6
 800112e:	1c0a      	adds	r2, r1, #0
 8001130:	701a      	strb	r2, [r3, #0]
	switch(point_number){
 8001132:	1dfb      	adds	r3, r7, #7
 8001134:	781b      	ldrb	r3, [r3, #0]
 8001136:	2b03      	cmp	r3, #3
 8001138:	d044      	beq.n	80011c4 <_Z9set_pointhb+0xa4>
 800113a:	dc57      	bgt.n	80011ec <_Z9set_pointhb+0xcc>
 800113c:	2b02      	cmp	r3, #2
 800113e:	d02d      	beq.n	800119c <_Z9set_pointhb+0x7c>
 8001140:	dc54      	bgt.n	80011ec <_Z9set_pointhb+0xcc>
 8001142:	2b00      	cmp	r3, #0
 8001144:	d002      	beq.n	800114c <_Z9set_pointhb+0x2c>
 8001146:	2b01      	cmp	r3, #1
 8001148:	d014      	beq.n	8001174 <_Z9set_pointhb+0x54>
		case 0: if(state == true) spi_data[1] |= 0x1; else spi_data[1] &= ~0x1; break;
		case 1: if(state == true) spi_data[1] |= 0x2; else spi_data[1] &= ~0x2; break;
		case 2: if(state == true) spi_data[1] |= 0x4; else spi_data[1] &= ~0x4; break;
		case 3: if(state == true) spi_data[1] |= 0x8; else spi_data[1] &= ~0x8; break;
		default: break;
 800114a:	e04f      	b.n	80011ec <_Z9set_pointhb+0xcc>
		case 0: if(state == true) spi_data[1] |= 0x1; else spi_data[1] &= ~0x1; break;
 800114c:	1dbb      	adds	r3, r7, #6
 800114e:	781b      	ldrb	r3, [r3, #0]
 8001150:	2b01      	cmp	r3, #1
 8001152:	d107      	bne.n	8001164 <_Z9set_pointhb+0x44>
 8001154:	4b28      	ldr	r3, [pc, #160]	; (80011f8 <_Z9set_pointhb+0xd8>)
 8001156:	785b      	ldrb	r3, [r3, #1]
 8001158:	2201      	movs	r2, #1
 800115a:	4313      	orrs	r3, r2
 800115c:	b2da      	uxtb	r2, r3
 800115e:	4b26      	ldr	r3, [pc, #152]	; (80011f8 <_Z9set_pointhb+0xd8>)
 8001160:	705a      	strb	r2, [r3, #1]
 8001162:	e044      	b.n	80011ee <_Z9set_pointhb+0xce>
 8001164:	4b24      	ldr	r3, [pc, #144]	; (80011f8 <_Z9set_pointhb+0xd8>)
 8001166:	785b      	ldrb	r3, [r3, #1]
 8001168:	2201      	movs	r2, #1
 800116a:	4393      	bics	r3, r2
 800116c:	b2da      	uxtb	r2, r3
 800116e:	4b22      	ldr	r3, [pc, #136]	; (80011f8 <_Z9set_pointhb+0xd8>)
 8001170:	705a      	strb	r2, [r3, #1]
 8001172:	e03c      	b.n	80011ee <_Z9set_pointhb+0xce>
		case 1: if(state == true) spi_data[1] |= 0x2; else spi_data[1] &= ~0x2; break;
 8001174:	1dbb      	adds	r3, r7, #6
 8001176:	781b      	ldrb	r3, [r3, #0]
 8001178:	2b01      	cmp	r3, #1
 800117a:	d107      	bne.n	800118c <_Z9set_pointhb+0x6c>
 800117c:	4b1e      	ldr	r3, [pc, #120]	; (80011f8 <_Z9set_pointhb+0xd8>)
 800117e:	785b      	ldrb	r3, [r3, #1]
 8001180:	2202      	movs	r2, #2
 8001182:	4313      	orrs	r3, r2
 8001184:	b2da      	uxtb	r2, r3
 8001186:	4b1c      	ldr	r3, [pc, #112]	; (80011f8 <_Z9set_pointhb+0xd8>)
 8001188:	705a      	strb	r2, [r3, #1]
 800118a:	e030      	b.n	80011ee <_Z9set_pointhb+0xce>
 800118c:	4b1a      	ldr	r3, [pc, #104]	; (80011f8 <_Z9set_pointhb+0xd8>)
 800118e:	785b      	ldrb	r3, [r3, #1]
 8001190:	2202      	movs	r2, #2
 8001192:	4393      	bics	r3, r2
 8001194:	b2da      	uxtb	r2, r3
 8001196:	4b18      	ldr	r3, [pc, #96]	; (80011f8 <_Z9set_pointhb+0xd8>)
 8001198:	705a      	strb	r2, [r3, #1]
 800119a:	e028      	b.n	80011ee <_Z9set_pointhb+0xce>
		case 2: if(state == true) spi_data[1] |= 0x4; else spi_data[1] &= ~0x4; break;
 800119c:	1dbb      	adds	r3, r7, #6
 800119e:	781b      	ldrb	r3, [r3, #0]
 80011a0:	2b01      	cmp	r3, #1
 80011a2:	d107      	bne.n	80011b4 <_Z9set_pointhb+0x94>
 80011a4:	4b14      	ldr	r3, [pc, #80]	; (80011f8 <_Z9set_pointhb+0xd8>)
 80011a6:	785b      	ldrb	r3, [r3, #1]
 80011a8:	2204      	movs	r2, #4
 80011aa:	4313      	orrs	r3, r2
 80011ac:	b2da      	uxtb	r2, r3
 80011ae:	4b12      	ldr	r3, [pc, #72]	; (80011f8 <_Z9set_pointhb+0xd8>)
 80011b0:	705a      	strb	r2, [r3, #1]
 80011b2:	e01c      	b.n	80011ee <_Z9set_pointhb+0xce>
 80011b4:	4b10      	ldr	r3, [pc, #64]	; (80011f8 <_Z9set_pointhb+0xd8>)
 80011b6:	785b      	ldrb	r3, [r3, #1]
 80011b8:	2204      	movs	r2, #4
 80011ba:	4393      	bics	r3, r2
 80011bc:	b2da      	uxtb	r2, r3
 80011be:	4b0e      	ldr	r3, [pc, #56]	; (80011f8 <_Z9set_pointhb+0xd8>)
 80011c0:	705a      	strb	r2, [r3, #1]
 80011c2:	e014      	b.n	80011ee <_Z9set_pointhb+0xce>
		case 3: if(state == true) spi_data[1] |= 0x8; else spi_data[1] &= ~0x8; break;
 80011c4:	1dbb      	adds	r3, r7, #6
 80011c6:	781b      	ldrb	r3, [r3, #0]
 80011c8:	2b01      	cmp	r3, #1
 80011ca:	d107      	bne.n	80011dc <_Z9set_pointhb+0xbc>
 80011cc:	4b0a      	ldr	r3, [pc, #40]	; (80011f8 <_Z9set_pointhb+0xd8>)
 80011ce:	785b      	ldrb	r3, [r3, #1]
 80011d0:	2208      	movs	r2, #8
 80011d2:	4313      	orrs	r3, r2
 80011d4:	b2da      	uxtb	r2, r3
 80011d6:	4b08      	ldr	r3, [pc, #32]	; (80011f8 <_Z9set_pointhb+0xd8>)
 80011d8:	705a      	strb	r2, [r3, #1]
 80011da:	e008      	b.n	80011ee <_Z9set_pointhb+0xce>
 80011dc:	4b06      	ldr	r3, [pc, #24]	; (80011f8 <_Z9set_pointhb+0xd8>)
 80011de:	785b      	ldrb	r3, [r3, #1]
 80011e0:	2208      	movs	r2, #8
 80011e2:	4393      	bics	r3, r2
 80011e4:	b2da      	uxtb	r2, r3
 80011e6:	4b04      	ldr	r3, [pc, #16]	; (80011f8 <_Z9set_pointhb+0xd8>)
 80011e8:	705a      	strb	r2, [r3, #1]
 80011ea:	e000      	b.n	80011ee <_Z9set_pointhb+0xce>
		default: break;
 80011ec:	46c0      	nop			; (mov r8, r8)
	}
}
 80011ee:	46c0      	nop			; (mov r8, r8)
 80011f0:	46bd      	mov	sp, r7
 80011f2:	b002      	add	sp, #8
 80011f4:	bd80      	pop	{r7, pc}
 80011f6:	46c0      	nop			; (mov r8, r8)
 80011f8:	20000414 	.word	0x20000414

080011fc <_Z10set_outputv>:

/**
 * @brief function to send data to output
 */
void set_output(void){
 80011fc:	b580      	push	{r7, lr}
 80011fe:	af00      	add	r7, sp, #0
	if(board_size != 6)
 8001200:	4b05      	ldr	r3, [pc, #20]	; (8001218 <_Z10set_outputv+0x1c>)
 8001202:	781b      	ldrb	r3, [r3, #0]
 8001204:	2b06      	cmp	r3, #6
 8001206:	d002      	beq.n	800120e <_Z10set_outputv+0x12>
		spi_data[0] = 0x00;
 8001208:	4b04      	ldr	r3, [pc, #16]	; (800121c <_Z10set_outputv+0x20>)
 800120a:	2200      	movs	r2, #0
 800120c:	701a      	strb	r2, [r3, #0]
	spi_write();
 800120e:	f7ff fed3 	bl	8000fb8 <_Z9spi_writev>
}
 8001212:	46c0      	nop			; (mov r8, r8)
 8001214:	46bd      	mov	sp, r7
 8001216:	bd80      	pop	{r7, pc}
 8001218:	200003d8 	.word	0x200003d8
 800121c:	20000414 	.word	0x20000414

08001220 <_Z17set_flyback_stateb>:
 * @return states how the output is set - use to check if function is not in cooldown mode where new values are discarded
 *
 * @info if a new param is written, a cooldown of 500ms is applied, before the converter can get a new state
 * the written value is discarded if the cooldown is still acitve. If the return value
 */
bool set_flyback_state(bool new_state){
 8001220:	b580      	push	{r7, lr}
 8001222:	b082      	sub	sp, #8
 8001224:	af00      	add	r7, sp, #0
 8001226:	0002      	movs	r2, r0
 8001228:	1dfb      	adds	r3, r7, #7
 800122a:	701a      	strb	r2, [r3, #0]
	if(flyback_state!=new_state){
 800122c:	4b17      	ldr	r3, [pc, #92]	; (800128c <_Z17set_flyback_stateb+0x6c>)
 800122e:	781b      	ldrb	r3, [r3, #0]
 8001230:	1dfa      	adds	r2, r7, #7
 8001232:	7812      	ldrb	r2, [r2, #0]
 8001234:	429a      	cmp	r2, r3
 8001236:	d023      	beq.n	8001280 <_Z17set_flyback_stateb+0x60>
		if(timeout(flyback_timer)){
 8001238:	4b15      	ldr	r3, [pc, #84]	; (8001290 <_Z17set_flyback_stateb+0x70>)
 800123a:	681b      	ldr	r3, [r3, #0]
 800123c:	0018      	movs	r0, r3
 800123e:	f7ff fea3 	bl	8000f88 <timeout>
 8001242:	1e03      	subs	r3, r0, #0
 8001244:	d01c      	beq.n	8001280 <_Z17set_flyback_stateb+0x60>
			flyback_state = new_state;
 8001246:	4b11      	ldr	r3, [pc, #68]	; (800128c <_Z17set_flyback_stateb+0x6c>)
 8001248:	1dfa      	adds	r2, r7, #7
 800124a:	7812      	ldrb	r2, [r2, #0]
 800124c:	701a      	strb	r2, [r3, #0]
			flyback_timer = start_timer_ms(FLYBACK_COOLDOWN);						//new value gets applied
 800124e:	23fa      	movs	r3, #250	; 0xfa
 8001250:	005b      	lsls	r3, r3, #1
 8001252:	0018      	movs	r0, r3
 8001254:	f7ff fe88 	bl	8000f68 <start_timer_ms>
 8001258:	0002      	movs	r2, r0
 800125a:	4b0d      	ldr	r3, [pc, #52]	; (8001290 <_Z17set_flyback_stateb+0x70>)
 800125c:	601a      	str	r2, [r3, #0]
			if(flyback_state == true)
 800125e:	4b0b      	ldr	r3, [pc, #44]	; (800128c <_Z17set_flyback_stateb+0x6c>)
 8001260:	781b      	ldrb	r3, [r3, #0]
 8001262:	2b01      	cmp	r3, #1
 8001264:	d106      	bne.n	8001274 <_Z17set_flyback_stateb+0x54>
				HAL_GPIO_WritePin(enable_hv_GPIO_Port, enable_hv_Pin, GPIO_PIN_SET);
 8001266:	4b0b      	ldr	r3, [pc, #44]	; (8001294 <_Z17set_flyback_stateb+0x74>)
 8001268:	2201      	movs	r2, #1
 800126a:	2102      	movs	r1, #2
 800126c:	0018      	movs	r0, r3
 800126e:	f002 fe6c 	bl	8003f4a <HAL_GPIO_WritePin>
 8001272:	e005      	b.n	8001280 <_Z17set_flyback_stateb+0x60>
			else
				HAL_GPIO_WritePin(enable_hv_GPIO_Port, enable_hv_Pin, GPIO_PIN_RESET);
 8001274:	4b07      	ldr	r3, [pc, #28]	; (8001294 <_Z17set_flyback_stateb+0x74>)
 8001276:	2200      	movs	r2, #0
 8001278:	2102      	movs	r1, #2
 800127a:	0018      	movs	r0, r3
 800127c:	f002 fe65 	bl	8003f4a <HAL_GPIO_WritePin>
		}
	}
	return flyback_state;
 8001280:	4b02      	ldr	r3, [pc, #8]	; (800128c <_Z17set_flyback_stateb+0x6c>)
 8001282:	781b      	ldrb	r3, [r3, #0]
}
 8001284:	0018      	movs	r0, r3
 8001286:	46bd      	mov	sp, r7
 8001288:	b002      	add	sp, #8
 800128a:	bd80      	pop	{r7, pc}
 800128c:	2000040f 	.word	0x2000040f
 8001290:	20000410 	.word	0x20000410
 8001294:	50000400 	.word	0x50000400

08001298 <_Z16run_output_mixerh>:
 * @brief Processes all data and generates commands for Output Handler and LED driver
 *
 * gets called every ms
 * gets data directly from respective .hpp files
 */
void run_output_mixer(uint8_t input){
 8001298:	b5b0      	push	{r4, r5, r7, lr}
 800129a:	b084      	sub	sp, #16
 800129c:	af00      	add	r7, sp, #0
 800129e:	0002      	movs	r2, r0
 80012a0:	1dfb      	adds	r3, r7, #7
 80012a2:	701a      	strb	r2, [r3, #0]
	 * 	minutes blink, change
	 * press - safe time
	 */

	//reset all outputs
	for(uint8_t i = 0; i<6; i++){
 80012a4:	230f      	movs	r3, #15
 80012a6:	18fb      	adds	r3, r7, r3
 80012a8:	2200      	movs	r2, #0
 80012aa:	701a      	strb	r2, [r3, #0]
 80012ac:	e019      	b.n	80012e2 <_Z16run_output_mixerh+0x4a>
		set_point(i, false);
 80012ae:	240f      	movs	r4, #15
 80012b0:	193b      	adds	r3, r7, r4
 80012b2:	781b      	ldrb	r3, [r3, #0]
 80012b4:	2100      	movs	r1, #0
 80012b6:	0018      	movs	r0, r3
 80012b8:	f7ff ff32 	bl	8001120 <_Z9set_pointhb>
		set_number(i, 0xA);
 80012bc:	193b      	adds	r3, r7, r4
 80012be:	781b      	ldrb	r3, [r3, #0]
 80012c0:	210a      	movs	r1, #10
 80012c2:	0018      	movs	r0, r3
 80012c4:	f7ff fe96 	bl	8000ff4 <_Z10set_numberhh>
		set_color(i, OFF, 25);
 80012c8:	193b      	adds	r3, r7, r4
 80012ca:	781b      	ldrb	r3, [r3, #0]
 80012cc:	2219      	movs	r2, #25
 80012ce:	2100      	movs	r1, #0
 80012d0:	0018      	movs	r0, r3
 80012d2:	f7ff fba7 	bl	8000a24 <_Z9set_colorhmh>
	for(uint8_t i = 0; i<6; i++){
 80012d6:	0021      	movs	r1, r4
 80012d8:	187b      	adds	r3, r7, r1
 80012da:	781a      	ldrb	r2, [r3, #0]
 80012dc:	187b      	adds	r3, r7, r1
 80012de:	3201      	adds	r2, #1
 80012e0:	701a      	strb	r2, [r3, #0]
 80012e2:	230f      	movs	r3, #15
 80012e4:	18fb      	adds	r3, r7, r3
 80012e6:	781b      	ldrb	r3, [r3, #0]
 80012e8:	2b05      	cmp	r3, #5
 80012ea:	d9e0      	bls.n	80012ae <_Z16run_output_mixerh+0x16>

	//menu system: 	default = 0 --> clock
	//				menu_select = 9 --> page to select menu 1-x ; 0=return to clock

	//enter menu
	if((current_menu == 0) && (input == 4) && (flyback_status==true)){
 80012ec:	4bd3      	ldr	r3, [pc, #844]	; (800163c <_Z16run_output_mixerh+0x3a4>)
 80012ee:	781b      	ldrb	r3, [r3, #0]
 80012f0:	2b00      	cmp	r3, #0
 80012f2:	d110      	bne.n	8001316 <_Z16run_output_mixerh+0x7e>
 80012f4:	1dfb      	adds	r3, r7, #7
 80012f6:	781b      	ldrb	r3, [r3, #0]
 80012f8:	2b04      	cmp	r3, #4
 80012fa:	d10c      	bne.n	8001316 <_Z16run_output_mixerh+0x7e>
 80012fc:	4bd0      	ldr	r3, [pc, #832]	; (8001640 <_Z16run_output_mixerh+0x3a8>)
 80012fe:	781b      	ldrb	r3, [r3, #0]
 8001300:	2b01      	cmp	r3, #1
 8001302:	d108      	bne.n	8001316 <_Z16run_output_mixerh+0x7e>
		input=0;
 8001304:	1dfb      	adds	r3, r7, #7
 8001306:	2200      	movs	r2, #0
 8001308:	701a      	strb	r2, [r3, #0]
		current_menu = 9;
 800130a:	4bcc      	ldr	r3, [pc, #816]	; (800163c <_Z16run_output_mixerh+0x3a4>)
 800130c:	2209      	movs	r2, #9
 800130e:	701a      	strb	r2, [r3, #0]
		selected_menu = 1;
 8001310:	4bcc      	ldr	r3, [pc, #816]	; (8001644 <_Z16run_output_mixerh+0x3ac>)
 8001312:	2201      	movs	r2, #1
 8001314:	701a      	strb	r2, [r3, #0]
	}
	//leave menu - without saving for menu 1 & 2
	if((input == 0x8) && (current_menu!=0) && (current_menu!=3)){
 8001316:	1dfb      	adds	r3, r7, #7
 8001318:	781b      	ldrb	r3, [r3, #0]
 800131a:	2b08      	cmp	r3, #8
 800131c:	d110      	bne.n	8001340 <_Z16run_output_mixerh+0xa8>
 800131e:	4bc7      	ldr	r3, [pc, #796]	; (800163c <_Z16run_output_mixerh+0x3a4>)
 8001320:	781b      	ldrb	r3, [r3, #0]
 8001322:	2b00      	cmp	r3, #0
 8001324:	d00c      	beq.n	8001340 <_Z16run_output_mixerh+0xa8>
 8001326:	4bc5      	ldr	r3, [pc, #788]	; (800163c <_Z16run_output_mixerh+0x3a4>)
 8001328:	781b      	ldrb	r3, [r3, #0]
 800132a:	2b03      	cmp	r3, #3
 800132c:	d008      	beq.n	8001340 <_Z16run_output_mixerh+0xa8>
		current_menu = 0;
 800132e:	4bc3      	ldr	r3, [pc, #780]	; (800163c <_Z16run_output_mixerh+0x3a4>)
 8001330:	2200      	movs	r2, #0
 8001332:	701a      	strb	r2, [r3, #0]
//		current_state = 0;
		old_state = 0;
 8001334:	4bc4      	ldr	r3, [pc, #784]	; (8001648 <_Z16run_output_mixerh+0x3b0>)
 8001336:	2200      	movs	r2, #0
 8001338:	701a      	strb	r2, [r3, #0]
		input = 0;
 800133a:	1dfb      	adds	r3, r7, #7
 800133c:	2200      	movs	r2, #0
 800133e:	701a      	strb	r2, [r3, #0]
	}

	//"menu" standard clock
	if(current_menu == 0){
 8001340:	4bbe      	ldr	r3, [pc, #760]	; (800163c <_Z16run_output_mixerh+0x3a4>)
 8001342:	781b      	ldrb	r3, [r3, #0]
 8001344:	2b00      	cmp	r3, #0
 8001346:	d101      	bne.n	800134c <_Z16run_output_mixerh+0xb4>
		submenu_0_display_time();
 8001348:	f000 fa20 	bl	800178c <_Z22submenu_0_display_timev>
	}

	//menu time set
	if(current_menu == 1){
 800134c:	4bbb      	ldr	r3, [pc, #748]	; (800163c <_Z16run_output_mixerh+0x3a4>)
 800134e:	781b      	ldrb	r3, [r3, #0]
 8001350:	2b01      	cmp	r3, #1
 8001352:	d10d      	bne.n	8001370 <_Z16run_output_mixerh+0xd8>
		submenu_1_set_time(input, new_selected_menu);
 8001354:	4bbd      	ldr	r3, [pc, #756]	; (800164c <_Z16run_output_mixerh+0x3b4>)
 8001356:	781a      	ldrb	r2, [r3, #0]
 8001358:	1dfb      	adds	r3, r7, #7
 800135a:	781b      	ldrb	r3, [r3, #0]
 800135c:	0011      	movs	r1, r2
 800135e:	0018      	movs	r0, r3
 8001360:	f000 fa80 	bl	8001864 <_Z18submenu_1_set_timehb>
		new_selected_menu = false;
 8001364:	4bb9      	ldr	r3, [pc, #740]	; (800164c <_Z16run_output_mixerh+0x3b4>)
 8001366:	2200      	movs	r2, #0
 8001368:	701a      	strb	r2, [r3, #0]
		input=0;
 800136a:	1dfb      	adds	r3, r7, #7
 800136c:	2200      	movs	r2, #0
 800136e:	701a      	strb	r2, [r3, #0]
	}

	//menu date set
	if(current_menu == 2){
 8001370:	4bb2      	ldr	r3, [pc, #712]	; (800163c <_Z16run_output_mixerh+0x3a4>)
 8001372:	781b      	ldrb	r3, [r3, #0]
 8001374:	2b02      	cmp	r3, #2
 8001376:	d10d      	bne.n	8001394 <_Z16run_output_mixerh+0xfc>
		submenu_2_set_date(input, new_selected_menu);
 8001378:	4bb4      	ldr	r3, [pc, #720]	; (800164c <_Z16run_output_mixerh+0x3b4>)
 800137a:	781a      	ldrb	r2, [r3, #0]
 800137c:	1dfb      	adds	r3, r7, #7
 800137e:	781b      	ldrb	r3, [r3, #0]
 8001380:	0011      	movs	r1, r2
 8001382:	0018      	movs	r0, r3
 8001384:	f000 fbe4 	bl	8001b50 <_Z18submenu_2_set_datehb>
		new_selected_menu = false;
 8001388:	4bb0      	ldr	r3, [pc, #704]	; (800164c <_Z16run_output_mixerh+0x3b4>)
 800138a:	2200      	movs	r2, #0
 800138c:	701a      	strb	r2, [r3, #0]
		input=0;
 800138e:	1dfb      	adds	r3, r7, #7
 8001390:	2200      	movs	r2, #0
 8001392:	701a      	strb	r2, [r3, #0]
	}

	if(current_menu == 3){
 8001394:	4ba9      	ldr	r3, [pc, #676]	; (800163c <_Z16run_output_mixerh+0x3a4>)
 8001396:	781b      	ldrb	r3, [r3, #0]
 8001398:	2b03      	cmp	r3, #3
 800139a:	d10d      	bne.n	80013b8 <_Z16run_output_mixerh+0x120>
		submenu_3_set_onoff(input, new_selected_menu);
 800139c:	4bab      	ldr	r3, [pc, #684]	; (800164c <_Z16run_output_mixerh+0x3b4>)
 800139e:	781a      	ldrb	r2, [r3, #0]
 80013a0:	1dfb      	adds	r3, r7, #7
 80013a2:	781b      	ldrb	r3, [r3, #0]
 80013a4:	0011      	movs	r1, r2
 80013a6:	0018      	movs	r0, r3
 80013a8:	f000 fdbe 	bl	8001f28 <_Z19submenu_3_set_onoffhb>
		new_selected_menu = false;
 80013ac:	4ba7      	ldr	r3, [pc, #668]	; (800164c <_Z16run_output_mixerh+0x3b4>)
 80013ae:	2200      	movs	r2, #0
 80013b0:	701a      	strb	r2, [r3, #0]
		input=0;
 80013b2:	1dfb      	adds	r3, r7, #7
 80013b4:	2200      	movs	r2, #0
 80013b6:	701a      	strb	r2, [r3, #0]
	}

	if(current_menu == 4){
 80013b8:	4ba0      	ldr	r3, [pc, #640]	; (800163c <_Z16run_output_mixerh+0x3a4>)
 80013ba:	781b      	ldrb	r3, [r3, #0]
 80013bc:	2b04      	cmp	r3, #4
 80013be:	d10d      	bne.n	80013dc <_Z16run_output_mixerh+0x144>
		submenu_4_set_led_color(input, new_selected_menu);
 80013c0:	4ba2      	ldr	r3, [pc, #648]	; (800164c <_Z16run_output_mixerh+0x3b4>)
 80013c2:	781a      	ldrb	r2, [r3, #0]
 80013c4:	1dfb      	adds	r3, r7, #7
 80013c6:	781b      	ldrb	r3, [r3, #0]
 80013c8:	0011      	movs	r1, r2
 80013ca:	0018      	movs	r0, r3
 80013cc:	f001 f858 	bl	8002480 <_Z23submenu_4_set_led_colorhb>
		new_selected_menu = false;
 80013d0:	4b9e      	ldr	r3, [pc, #632]	; (800164c <_Z16run_output_mixerh+0x3b4>)
 80013d2:	2200      	movs	r2, #0
 80013d4:	701a      	strb	r2, [r3, #0]
		input=0;
 80013d6:	1dfb      	adds	r3, r7, #7
 80013d8:	2200      	movs	r2, #0
 80013da:	701a      	strb	r2, [r3, #0]
	}

	//menu menu ;)
	if(current_menu == 9){
 80013dc:	4b97      	ldr	r3, [pc, #604]	; (800163c <_Z16run_output_mixerh+0x3a4>)
 80013de:	781b      	ldrb	r3, [r3, #0]
 80013e0:	2b09      	cmp	r3, #9
 80013e2:	d10b      	bne.n	80013fc <_Z16run_output_mixerh+0x164>
		new_selected_menu = submenu_9_menu_select(input);
 80013e4:	1dfb      	adds	r3, r7, #7
 80013e6:	781b      	ldrb	r3, [r3, #0]
 80013e8:	0018      	movs	r0, r3
 80013ea:	f001 f8fb 	bl	80025e4 <_Z21submenu_9_menu_selecth>
 80013ee:	0003      	movs	r3, r0
 80013f0:	001a      	movs	r2, r3
 80013f2:	4b96      	ldr	r3, [pc, #600]	; (800164c <_Z16run_output_mixerh+0x3b4>)
 80013f4:	701a      	strb	r2, [r3, #0]
		input=0;
 80013f6:	1dfb      	adds	r3, r7, #7
 80013f8:	2200      	movs	r2, #0
 80013fa:	701a      	strb	r2, [r3, #0]
//		set_number(board_size-2, (brightness/10)%10);
//		set_number(board_size-1, brightness % 10);
//	}

	//############################ write data to flash ############################
	if(flash_write == true){
 80013fc:	4b94      	ldr	r3, [pc, #592]	; (8001650 <_Z16run_output_mixerh+0x3b8>)
 80013fe:	781b      	ldrb	r3, [r3, #0]
 8001400:	2b01      	cmp	r3, #1
 8001402:	d10c      	bne.n	800141e <_Z16run_output_mixerh+0x186>
		bool temp = write_flash_new_data();
 8001404:	250c      	movs	r5, #12
 8001406:	197c      	adds	r4, r7, r5
 8001408:	f001 f92e 	bl	8002668 <_Z20write_flash_new_datav>
 800140c:	0003      	movs	r3, r0
 800140e:	7023      	strb	r3, [r4, #0]
		if(temp == 0)
 8001410:	197b      	adds	r3, r7, r5
 8001412:	781b      	ldrb	r3, [r3, #0]
 8001414:	2b00      	cmp	r3, #0
 8001416:	d102      	bne.n	800141e <_Z16run_output_mixerh+0x186>
			flash_write = false;
 8001418:	4b8d      	ldr	r3, [pc, #564]	; (8001650 <_Z16run_output_mixerh+0x3b8>)
 800141a:	2200      	movs	r2, #0
 800141c:	701a      	strb	r2, [r3, #0]
	//############################ run Output Handler  ############################

	static bool hv_on = false;
	static bool area_entered = false;	// variable only changes if area is entered/left - does occur once per area
	static bool area_left = false;
	bool inside_area = false;
 800141e:	230e      	movs	r3, #14
 8001420:	18fb      	adds	r3, r7, r3
 8001422:	2200      	movs	r2, #0
 8001424:	701a      	strb	r2, [r3, #0]

	if(current_menu == 0){	//only check for time area, when not in the menu
 8001426:	4b85      	ldr	r3, [pc, #532]	; (800163c <_Z16run_output_mixerh+0x3a4>)
 8001428:	781b      	ldrb	r3, [r3, #0]
 800142a:	2b00      	cmp	r3, #0
 800142c:	d000      	beq.n	8001430 <_Z16run_output_mixerh+0x198>
 800142e:	e146      	b.n	80016be <_Z16run_output_mixerh+0x426>
		// switch HV-enable when time-area is entered/left
		// manual long press overwrites state until the next area is entered/left
		for(uint8_t i=0;i<8;i++){
 8001430:	230d      	movs	r3, #13
 8001432:	18fb      	adds	r3, r7, r3
 8001434:	2200      	movs	r2, #0
 8001436:	701a      	strb	r2, [r3, #0]
 8001438:	e120      	b.n	800167c <_Z16run_output_mixerh+0x3e4>
			//if current day inside selected days for each time area
			if(data_from_RTC.day >= on_time[i][0] && data_from_RTC.day <= on_time[i][1]){
 800143a:	4b86      	ldr	r3, [pc, #536]	; (8001654 <_Z16run_output_mixerh+0x3bc>)
 800143c:	78d9      	ldrb	r1, [r3, #3]
 800143e:	240d      	movs	r4, #13
 8001440:	193b      	adds	r3, r7, r4
 8001442:	781a      	ldrb	r2, [r3, #0]
 8001444:	4884      	ldr	r0, [pc, #528]	; (8001658 <_Z16run_output_mixerh+0x3c0>)
 8001446:	0013      	movs	r3, r2
 8001448:	005b      	lsls	r3, r3, #1
 800144a:	189b      	adds	r3, r3, r2
 800144c:	005b      	lsls	r3, r3, #1
 800144e:	5c1b      	ldrb	r3, [r3, r0]
 8001450:	4299      	cmp	r1, r3
 8001452:	d200      	bcs.n	8001456 <_Z16run_output_mixerh+0x1be>
 8001454:	e108      	b.n	8001668 <_Z16run_output_mixerh+0x3d0>
 8001456:	4b7f      	ldr	r3, [pc, #508]	; (8001654 <_Z16run_output_mixerh+0x3bc>)
 8001458:	78d9      	ldrb	r1, [r3, #3]
 800145a:	193b      	adds	r3, r7, r4
 800145c:	781a      	ldrb	r2, [r3, #0]
 800145e:	487e      	ldr	r0, [pc, #504]	; (8001658 <_Z16run_output_mixerh+0x3c0>)
 8001460:	0013      	movs	r3, r2
 8001462:	005b      	lsls	r3, r3, #1
 8001464:	189b      	adds	r3, r3, r2
 8001466:	005b      	lsls	r3, r3, #1
 8001468:	18c3      	adds	r3, r0, r3
 800146a:	3301      	adds	r3, #1
 800146c:	781b      	ldrb	r3, [r3, #0]
 800146e:	4299      	cmp	r1, r3
 8001470:	d900      	bls.n	8001474 <_Z16run_output_mixerh+0x1dc>
 8001472:	e0f9      	b.n	8001668 <_Z16run_output_mixerh+0x3d0>
				if(	(data_from_RTC.hours == on_time[i][2] && data_from_RTC.minutes >= on_time[i][3] && on_time[i][2] != on_time[i][4]) ||
 8001474:	4b77      	ldr	r3, [pc, #476]	; (8001654 <_Z16run_output_mixerh+0x3bc>)
 8001476:	7899      	ldrb	r1, [r3, #2]
 8001478:	193b      	adds	r3, r7, r4
 800147a:	781a      	ldrb	r2, [r3, #0]
 800147c:	4876      	ldr	r0, [pc, #472]	; (8001658 <_Z16run_output_mixerh+0x3c0>)
 800147e:	0013      	movs	r3, r2
 8001480:	005b      	lsls	r3, r3, #1
 8001482:	189b      	adds	r3, r3, r2
 8001484:	005b      	lsls	r3, r3, #1
 8001486:	18c3      	adds	r3, r0, r3
 8001488:	3302      	adds	r3, #2
 800148a:	781b      	ldrb	r3, [r3, #0]
 800148c:	4299      	cmp	r1, r3
 800148e:	d124      	bne.n	80014da <_Z16run_output_mixerh+0x242>
 8001490:	4b70      	ldr	r3, [pc, #448]	; (8001654 <_Z16run_output_mixerh+0x3bc>)
 8001492:	7859      	ldrb	r1, [r3, #1]
 8001494:	193b      	adds	r3, r7, r4
 8001496:	781a      	ldrb	r2, [r3, #0]
 8001498:	486f      	ldr	r0, [pc, #444]	; (8001658 <_Z16run_output_mixerh+0x3c0>)
 800149a:	0013      	movs	r3, r2
 800149c:	005b      	lsls	r3, r3, #1
 800149e:	189b      	adds	r3, r3, r2
 80014a0:	005b      	lsls	r3, r3, #1
 80014a2:	18c3      	adds	r3, r0, r3
 80014a4:	3303      	adds	r3, #3
 80014a6:	781b      	ldrb	r3, [r3, #0]
 80014a8:	4299      	cmp	r1, r3
 80014aa:	d316      	bcc.n	80014da <_Z16run_output_mixerh+0x242>
 80014ac:	193b      	adds	r3, r7, r4
 80014ae:	781a      	ldrb	r2, [r3, #0]
 80014b0:	4969      	ldr	r1, [pc, #420]	; (8001658 <_Z16run_output_mixerh+0x3c0>)
 80014b2:	0013      	movs	r3, r2
 80014b4:	005b      	lsls	r3, r3, #1
 80014b6:	189b      	adds	r3, r3, r2
 80014b8:	005b      	lsls	r3, r3, #1
 80014ba:	18cb      	adds	r3, r1, r3
 80014bc:	3302      	adds	r3, #2
 80014be:	7819      	ldrb	r1, [r3, #0]
 80014c0:	193b      	adds	r3, r7, r4
 80014c2:	781a      	ldrb	r2, [r3, #0]
 80014c4:	4864      	ldr	r0, [pc, #400]	; (8001658 <_Z16run_output_mixerh+0x3c0>)
 80014c6:	0013      	movs	r3, r2
 80014c8:	005b      	lsls	r3, r3, #1
 80014ca:	189b      	adds	r3, r3, r2
 80014cc:	005b      	lsls	r3, r3, #1
 80014ce:	18c3      	adds	r3, r0, r3
 80014d0:	3304      	adds	r3, #4
 80014d2:	781b      	ldrb	r3, [r3, #0]
 80014d4:	4299      	cmp	r1, r3
 80014d6:	d000      	beq.n	80014da <_Z16run_output_mixerh+0x242>
 80014d8:	e090      	b.n	80015fc <_Z16run_output_mixerh+0x364>
					(data_from_RTC.hours == on_time[i][4] && data_from_RTC.minutes <= on_time[i][5] && on_time[i][2] != on_time[i][4]) ||
 80014da:	4b5e      	ldr	r3, [pc, #376]	; (8001654 <_Z16run_output_mixerh+0x3bc>)
 80014dc:	7899      	ldrb	r1, [r3, #2]
 80014de:	240d      	movs	r4, #13
 80014e0:	193b      	adds	r3, r7, r4
 80014e2:	781a      	ldrb	r2, [r3, #0]
 80014e4:	485c      	ldr	r0, [pc, #368]	; (8001658 <_Z16run_output_mixerh+0x3c0>)
 80014e6:	0013      	movs	r3, r2
 80014e8:	005b      	lsls	r3, r3, #1
 80014ea:	189b      	adds	r3, r3, r2
 80014ec:	005b      	lsls	r3, r3, #1
 80014ee:	18c3      	adds	r3, r0, r3
 80014f0:	3304      	adds	r3, #4
 80014f2:	781b      	ldrb	r3, [r3, #0]
				if(	(data_from_RTC.hours == on_time[i][2] && data_from_RTC.minutes >= on_time[i][3] && on_time[i][2] != on_time[i][4]) ||
 80014f4:	4299      	cmp	r1, r3
 80014f6:	d123      	bne.n	8001540 <_Z16run_output_mixerh+0x2a8>
					(data_from_RTC.hours == on_time[i][4] && data_from_RTC.minutes <= on_time[i][5] && on_time[i][2] != on_time[i][4]) ||
 80014f8:	4b56      	ldr	r3, [pc, #344]	; (8001654 <_Z16run_output_mixerh+0x3bc>)
 80014fa:	7859      	ldrb	r1, [r3, #1]
 80014fc:	193b      	adds	r3, r7, r4
 80014fe:	781a      	ldrb	r2, [r3, #0]
 8001500:	4855      	ldr	r0, [pc, #340]	; (8001658 <_Z16run_output_mixerh+0x3c0>)
 8001502:	0013      	movs	r3, r2
 8001504:	005b      	lsls	r3, r3, #1
 8001506:	189b      	adds	r3, r3, r2
 8001508:	005b      	lsls	r3, r3, #1
 800150a:	18c3      	adds	r3, r0, r3
 800150c:	3305      	adds	r3, #5
 800150e:	781b      	ldrb	r3, [r3, #0]
 8001510:	4299      	cmp	r1, r3
 8001512:	d815      	bhi.n	8001540 <_Z16run_output_mixerh+0x2a8>
 8001514:	193b      	adds	r3, r7, r4
 8001516:	781a      	ldrb	r2, [r3, #0]
 8001518:	494f      	ldr	r1, [pc, #316]	; (8001658 <_Z16run_output_mixerh+0x3c0>)
 800151a:	0013      	movs	r3, r2
 800151c:	005b      	lsls	r3, r3, #1
 800151e:	189b      	adds	r3, r3, r2
 8001520:	005b      	lsls	r3, r3, #1
 8001522:	18cb      	adds	r3, r1, r3
 8001524:	3302      	adds	r3, #2
 8001526:	7819      	ldrb	r1, [r3, #0]
 8001528:	193b      	adds	r3, r7, r4
 800152a:	781a      	ldrb	r2, [r3, #0]
 800152c:	484a      	ldr	r0, [pc, #296]	; (8001658 <_Z16run_output_mixerh+0x3c0>)
 800152e:	0013      	movs	r3, r2
 8001530:	005b      	lsls	r3, r3, #1
 8001532:	189b      	adds	r3, r3, r2
 8001534:	005b      	lsls	r3, r3, #1
 8001536:	18c3      	adds	r3, r0, r3
 8001538:	3304      	adds	r3, #4
 800153a:	781b      	ldrb	r3, [r3, #0]
 800153c:	4299      	cmp	r1, r3
 800153e:	d15d      	bne.n	80015fc <_Z16run_output_mixerh+0x364>
					(on_time[i][2] == on_time[i][4] && data_from_RTC.hours == on_time[i][2] && data_from_RTC.minutes >= on_time[i][3] && data_from_RTC.minutes <= on_time[i][5]) ||
 8001540:	240d      	movs	r4, #13
 8001542:	193b      	adds	r3, r7, r4
 8001544:	781a      	ldrb	r2, [r3, #0]
 8001546:	4944      	ldr	r1, [pc, #272]	; (8001658 <_Z16run_output_mixerh+0x3c0>)
 8001548:	0013      	movs	r3, r2
 800154a:	005b      	lsls	r3, r3, #1
 800154c:	189b      	adds	r3, r3, r2
 800154e:	005b      	lsls	r3, r3, #1
 8001550:	18cb      	adds	r3, r1, r3
 8001552:	3302      	adds	r3, #2
 8001554:	7819      	ldrb	r1, [r3, #0]
 8001556:	193b      	adds	r3, r7, r4
 8001558:	781a      	ldrb	r2, [r3, #0]
 800155a:	483f      	ldr	r0, [pc, #252]	; (8001658 <_Z16run_output_mixerh+0x3c0>)
 800155c:	0013      	movs	r3, r2
 800155e:	005b      	lsls	r3, r3, #1
 8001560:	189b      	adds	r3, r3, r2
 8001562:	005b      	lsls	r3, r3, #1
 8001564:	18c3      	adds	r3, r0, r3
 8001566:	3304      	adds	r3, #4
 8001568:	781b      	ldrb	r3, [r3, #0]
					(data_from_RTC.hours == on_time[i][4] && data_from_RTC.minutes <= on_time[i][5] && on_time[i][2] != on_time[i][4]) ||
 800156a:	4299      	cmp	r1, r3
 800156c:	d129      	bne.n	80015c2 <_Z16run_output_mixerh+0x32a>
					(on_time[i][2] == on_time[i][4] && data_from_RTC.hours == on_time[i][2] && data_from_RTC.minutes >= on_time[i][3] && data_from_RTC.minutes <= on_time[i][5]) ||
 800156e:	4b39      	ldr	r3, [pc, #228]	; (8001654 <_Z16run_output_mixerh+0x3bc>)
 8001570:	7899      	ldrb	r1, [r3, #2]
 8001572:	193b      	adds	r3, r7, r4
 8001574:	781a      	ldrb	r2, [r3, #0]
 8001576:	4838      	ldr	r0, [pc, #224]	; (8001658 <_Z16run_output_mixerh+0x3c0>)
 8001578:	0013      	movs	r3, r2
 800157a:	005b      	lsls	r3, r3, #1
 800157c:	189b      	adds	r3, r3, r2
 800157e:	005b      	lsls	r3, r3, #1
 8001580:	18c3      	adds	r3, r0, r3
 8001582:	3302      	adds	r3, #2
 8001584:	781b      	ldrb	r3, [r3, #0]
 8001586:	4299      	cmp	r1, r3
 8001588:	d11b      	bne.n	80015c2 <_Z16run_output_mixerh+0x32a>
 800158a:	4b32      	ldr	r3, [pc, #200]	; (8001654 <_Z16run_output_mixerh+0x3bc>)
 800158c:	7859      	ldrb	r1, [r3, #1]
 800158e:	193b      	adds	r3, r7, r4
 8001590:	781a      	ldrb	r2, [r3, #0]
 8001592:	4831      	ldr	r0, [pc, #196]	; (8001658 <_Z16run_output_mixerh+0x3c0>)
 8001594:	0013      	movs	r3, r2
 8001596:	005b      	lsls	r3, r3, #1
 8001598:	189b      	adds	r3, r3, r2
 800159a:	005b      	lsls	r3, r3, #1
 800159c:	18c3      	adds	r3, r0, r3
 800159e:	3303      	adds	r3, #3
 80015a0:	781b      	ldrb	r3, [r3, #0]
 80015a2:	4299      	cmp	r1, r3
 80015a4:	d30d      	bcc.n	80015c2 <_Z16run_output_mixerh+0x32a>
 80015a6:	4b2b      	ldr	r3, [pc, #172]	; (8001654 <_Z16run_output_mixerh+0x3bc>)
 80015a8:	7859      	ldrb	r1, [r3, #1]
 80015aa:	193b      	adds	r3, r7, r4
 80015ac:	781a      	ldrb	r2, [r3, #0]
 80015ae:	482a      	ldr	r0, [pc, #168]	; (8001658 <_Z16run_output_mixerh+0x3c0>)
 80015b0:	0013      	movs	r3, r2
 80015b2:	005b      	lsls	r3, r3, #1
 80015b4:	189b      	adds	r3, r3, r2
 80015b6:	005b      	lsls	r3, r3, #1
 80015b8:	18c3      	adds	r3, r0, r3
 80015ba:	3305      	adds	r3, #5
 80015bc:	781b      	ldrb	r3, [r3, #0]
 80015be:	4299      	cmp	r1, r3
 80015c0:	d91c      	bls.n	80015fc <_Z16run_output_mixerh+0x364>
					(data_from_RTC.hours > on_time[i][2] && data_from_RTC.hours < on_time[i][4])){
 80015c2:	4b24      	ldr	r3, [pc, #144]	; (8001654 <_Z16run_output_mixerh+0x3bc>)
 80015c4:	7899      	ldrb	r1, [r3, #2]
 80015c6:	240d      	movs	r4, #13
 80015c8:	193b      	adds	r3, r7, r4
 80015ca:	781a      	ldrb	r2, [r3, #0]
 80015cc:	4822      	ldr	r0, [pc, #136]	; (8001658 <_Z16run_output_mixerh+0x3c0>)
 80015ce:	0013      	movs	r3, r2
 80015d0:	005b      	lsls	r3, r3, #1
 80015d2:	189b      	adds	r3, r3, r2
 80015d4:	005b      	lsls	r3, r3, #1
 80015d6:	18c3      	adds	r3, r0, r3
 80015d8:	3302      	adds	r3, #2
 80015da:	781b      	ldrb	r3, [r3, #0]
					(on_time[i][2] == on_time[i][4] && data_from_RTC.hours == on_time[i][2] && data_from_RTC.minutes >= on_time[i][3] && data_from_RTC.minutes <= on_time[i][5]) ||
 80015dc:	4299      	cmp	r1, r3
 80015de:	d928      	bls.n	8001632 <_Z16run_output_mixerh+0x39a>
					(data_from_RTC.hours > on_time[i][2] && data_from_RTC.hours < on_time[i][4])){
 80015e0:	4b1c      	ldr	r3, [pc, #112]	; (8001654 <_Z16run_output_mixerh+0x3bc>)
 80015e2:	7899      	ldrb	r1, [r3, #2]
 80015e4:	193b      	adds	r3, r7, r4
 80015e6:	781a      	ldrb	r2, [r3, #0]
 80015e8:	481b      	ldr	r0, [pc, #108]	; (8001658 <_Z16run_output_mixerh+0x3c0>)
 80015ea:	0013      	movs	r3, r2
 80015ec:	005b      	lsls	r3, r3, #1
 80015ee:	189b      	adds	r3, r3, r2
 80015f0:	005b      	lsls	r3, r3, #1
 80015f2:	18c3      	adds	r3, r0, r3
 80015f4:	3304      	adds	r3, #4
 80015f6:	781b      	ldrb	r3, [r3, #0]
 80015f8:	4299      	cmp	r1, r3
 80015fa:	d21a      	bcs.n	8001632 <_Z16run_output_mixerh+0x39a>
						//currently inside of active time area
						if(area_entered == false){
 80015fc:	4b17      	ldr	r3, [pc, #92]	; (800165c <_Z16run_output_mixerh+0x3c4>)
 80015fe:	781b      	ldrb	r3, [r3, #0]
 8001600:	2b00      	cmp	r3, #0
 8001602:	d111      	bne.n	8001628 <_Z16run_output_mixerh+0x390>
							area_entered = true;
 8001604:	4b15      	ldr	r3, [pc, #84]	; (800165c <_Z16run_output_mixerh+0x3c4>)
 8001606:	2201      	movs	r2, #1
 8001608:	701a      	strb	r2, [r3, #0]
							area_left = false;
 800160a:	4b15      	ldr	r3, [pc, #84]	; (8001660 <_Z16run_output_mixerh+0x3c8>)
 800160c:	2200      	movs	r2, #0
 800160e:	701a      	strb	r2, [r3, #0]
							flyback_status = true;
 8001610:	4b0b      	ldr	r3, [pc, #44]	; (8001640 <_Z16run_output_mixerh+0x3a8>)
 8001612:	2201      	movs	r2, #1
 8001614:	701a      	strb	r2, [r3, #0]
							hv_on = set_flyback_state(flyback_status);
 8001616:	4b0a      	ldr	r3, [pc, #40]	; (8001640 <_Z16run_output_mixerh+0x3a8>)
 8001618:	781b      	ldrb	r3, [r3, #0]
 800161a:	0018      	movs	r0, r3
 800161c:	f7ff fe00 	bl	8001220 <_Z17set_flyback_stateb>
 8001620:	0003      	movs	r3, r0
 8001622:	001a      	movs	r2, r3
 8001624:	4b0f      	ldr	r3, [pc, #60]	; (8001664 <_Z16run_output_mixerh+0x3cc>)
 8001626:	701a      	strb	r2, [r3, #0]
						}
						inside_area = true;
 8001628:	230e      	movs	r3, #14
 800162a:	18fb      	adds	r3, r7, r3
 800162c:	2201      	movs	r2, #1
 800162e:	701a      	strb	r2, [r3, #0]
						break;
 8001630:	e02a      	b.n	8001688 <_Z16run_output_mixerh+0x3f0>
				}
				inside_area = false;
 8001632:	230e      	movs	r3, #14
 8001634:	18fb      	adds	r3, r7, r3
 8001636:	2200      	movs	r2, #0
 8001638:	701a      	strb	r2, [r3, #0]
 800163a:	e019      	b.n	8001670 <_Z16run_output_mixerh+0x3d8>
 800163c:	20000420 	.word	0x20000420
 8001640:	20000425 	.word	0x20000425
 8001644:	20000421 	.word	0x20000421
 8001648:	20000423 	.word	0x20000423
 800164c:	20000422 	.word	0x20000422
 8001650:	20000424 	.word	0x20000424
 8001654:	20000014 	.word	0x20000014
 8001658:	200003dc 	.word	0x200003dc
 800165c:	20000427 	.word	0x20000427
 8001660:	20000428 	.word	0x20000428
 8001664:	20000426 	.word	0x20000426
			}
			else
				inside_area = false;
 8001668:	230e      	movs	r3, #14
 800166a:	18fb      	adds	r3, r7, r3
 800166c:	2200      	movs	r2, #0
 800166e:	701a      	strb	r2, [r3, #0]
		for(uint8_t i=0;i<8;i++){
 8001670:	210d      	movs	r1, #13
 8001672:	187b      	adds	r3, r7, r1
 8001674:	781a      	ldrb	r2, [r3, #0]
 8001676:	187b      	adds	r3, r7, r1
 8001678:	3201      	adds	r2, #1
 800167a:	701a      	strb	r2, [r3, #0]
 800167c:	230d      	movs	r3, #13
 800167e:	18fb      	adds	r3, r7, r3
 8001680:	781b      	ldrb	r3, [r3, #0]
 8001682:	2b07      	cmp	r3, #7
 8001684:	d800      	bhi.n	8001688 <_Z16run_output_mixerh+0x3f0>
 8001686:	e6d8      	b.n	800143a <_Z16run_output_mixerh+0x1a2>

		}
		//check if we have to switch the hv off
		if(inside_area == false && area_left == false){
 8001688:	230e      	movs	r3, #14
 800168a:	18fb      	adds	r3, r7, r3
 800168c:	781b      	ldrb	r3, [r3, #0]
 800168e:	2b00      	cmp	r3, #0
 8001690:	d115      	bne.n	80016be <_Z16run_output_mixerh+0x426>
 8001692:	4b37      	ldr	r3, [pc, #220]	; (8001770 <_Z16run_output_mixerh+0x4d8>)
 8001694:	781b      	ldrb	r3, [r3, #0]
 8001696:	2b00      	cmp	r3, #0
 8001698:	d111      	bne.n	80016be <_Z16run_output_mixerh+0x426>
			area_entered = false;
 800169a:	4b36      	ldr	r3, [pc, #216]	; (8001774 <_Z16run_output_mixerh+0x4dc>)
 800169c:	2200      	movs	r2, #0
 800169e:	701a      	strb	r2, [r3, #0]
			area_left = true;
 80016a0:	4b33      	ldr	r3, [pc, #204]	; (8001770 <_Z16run_output_mixerh+0x4d8>)
 80016a2:	2201      	movs	r2, #1
 80016a4:	701a      	strb	r2, [r3, #0]
			flyback_status = false;
 80016a6:	4b34      	ldr	r3, [pc, #208]	; (8001778 <_Z16run_output_mixerh+0x4e0>)
 80016a8:	2200      	movs	r2, #0
 80016aa:	701a      	strb	r2, [r3, #0]
			hv_on = set_flyback_state(flyback_status);
 80016ac:	4b32      	ldr	r3, [pc, #200]	; (8001778 <_Z16run_output_mixerh+0x4e0>)
 80016ae:	781b      	ldrb	r3, [r3, #0]
 80016b0:	0018      	movs	r0, r3
 80016b2:	f7ff fdb5 	bl	8001220 <_Z17set_flyback_stateb>
 80016b6:	0003      	movs	r3, r0
 80016b8:	001a      	movs	r2, r3
 80016ba:	4b30      	ldr	r3, [pc, #192]	; (800177c <_Z16run_output_mixerh+0x4e4>)
 80016bc:	701a      	strb	r2, [r3, #0]
		}
	}
	if(inside_area == true)
 80016be:	230e      	movs	r3, #14
 80016c0:	18fb      	adds	r3, r7, r3
 80016c2:	781b      	ldrb	r3, [r3, #0]
 80016c4:	2b01      	cmp	r3, #1
 80016c6:	d107      	bne.n	80016d8 <_Z16run_output_mixerh+0x440>
		set_color(5, GREEN,10);
 80016c8:	23ff      	movs	r3, #255	; 0xff
 80016ca:	021b      	lsls	r3, r3, #8
 80016cc:	220a      	movs	r2, #10
 80016ce:	0019      	movs	r1, r3
 80016d0:	2005      	movs	r0, #5
 80016d2:	f7ff f9a7 	bl	8000a24 <_Z9set_colorhmh>
 80016d6:	e006      	b.n	80016e6 <_Z16run_output_mixerh+0x44e>
	else
		set_color(5, RED,10);
 80016d8:	23ff      	movs	r3, #255	; 0xff
 80016da:	041b      	lsls	r3, r3, #16
 80016dc:	220a      	movs	r2, #10
 80016de:	0019      	movs	r1, r3
 80016e0:	2005      	movs	r0, #5
 80016e2:	f7ff f99f 	bl	8000a24 <_Z9set_colorhmh>

	// switch HV-enable pin by long press of button - change led to indicate state (RED = OFF, dark = ON)
	if(input==0x8){		//Long Press
 80016e6:	1dfb      	adds	r3, r7, #7
 80016e8:	781b      	ldrb	r3, [r3, #0]
 80016ea:	2b08      	cmp	r3, #8
 80016ec:	d10f      	bne.n	800170e <_Z16run_output_mixerh+0x476>
		flyback_status = !flyback_status;
 80016ee:	4b22      	ldr	r3, [pc, #136]	; (8001778 <_Z16run_output_mixerh+0x4e0>)
 80016f0:	781b      	ldrb	r3, [r3, #0]
 80016f2:	2201      	movs	r2, #1
 80016f4:	4053      	eors	r3, r2
 80016f6:	b2da      	uxtb	r2, r3
 80016f8:	4b1f      	ldr	r3, [pc, #124]	; (8001778 <_Z16run_output_mixerh+0x4e0>)
 80016fa:	701a      	strb	r2, [r3, #0]
		hv_on = set_flyback_state(flyback_status);
 80016fc:	4b1e      	ldr	r3, [pc, #120]	; (8001778 <_Z16run_output_mixerh+0x4e0>)
 80016fe:	781b      	ldrb	r3, [r3, #0]
 8001700:	0018      	movs	r0, r3
 8001702:	f7ff fd8d 	bl	8001220 <_Z17set_flyback_stateb>
 8001706:	0003      	movs	r3, r0
 8001708:	001a      	movs	r2, r3
 800170a:	4b1c      	ldr	r3, [pc, #112]	; (800177c <_Z16run_output_mixerh+0x4e4>)
 800170c:	701a      	strb	r2, [r3, #0]
	}
	if(hv_on != true)
 800170e:	4b1b      	ldr	r3, [pc, #108]	; (800177c <_Z16run_output_mixerh+0x4e4>)
 8001710:	781b      	ldrb	r3, [r3, #0]
 8001712:	2b01      	cmp	r3, #1
 8001714:	d005      	beq.n	8001722 <_Z16run_output_mixerh+0x48a>
		set_color(1, CYAN , 10);
 8001716:	4b1a      	ldr	r3, [pc, #104]	; (8001780 <_Z16run_output_mixerh+0x4e8>)
 8001718:	220a      	movs	r2, #10
 800171a:	0019      	movs	r1, r3
 800171c:	2001      	movs	r0, #1
 800171e:	f7ff f981 	bl	8000a24 <_Z9set_colorhmh>

	set_point(1, true);	//DEBUG
 8001722:	2101      	movs	r1, #1
 8001724:	2001      	movs	r0, #1
 8001726:	f7ff fcfb 	bl	8001120 <_Z9set_pointhb>
	// Tube Output-Data
	if(timeout(output_mixer_tube_timer)){
 800172a:	4b16      	ldr	r3, [pc, #88]	; (8001784 <_Z16run_output_mixerh+0x4ec>)
 800172c:	681b      	ldr	r3, [r3, #0]
 800172e:	0018      	movs	r0, r3
 8001730:	f7ff fc2a 	bl	8000f88 <timeout>
 8001734:	1e03      	subs	r3, r0, #0
 8001736:	d007      	beq.n	8001748 <_Z16run_output_mixerh+0x4b0>
		output_mixer_tube_timer = start_timer_ms(TUBE_REFRESH_RATE_MS);
 8001738:	2021      	movs	r0, #33	; 0x21
 800173a:	f7ff fc15 	bl	8000f68 <start_timer_ms>
 800173e:	0002      	movs	r2, r0
 8001740:	4b10      	ldr	r3, [pc, #64]	; (8001784 <_Z16run_output_mixerh+0x4ec>)
 8001742:	601a      	str	r2, [r3, #0]
		set_output();
 8001744:	f7ff fd5a 	bl	80011fc <_Z10set_outputv>
	}

	//	Time LED-Output
	if(timeout(output_mixer_led_timer)){
 8001748:	4b0f      	ldr	r3, [pc, #60]	; (8001788 <_Z16run_output_mixerh+0x4f0>)
 800174a:	681b      	ldr	r3, [r3, #0]
 800174c:	0018      	movs	r0, r3
 800174e:	f7ff fc1b 	bl	8000f88 <timeout>
 8001752:	1e03      	subs	r3, r0, #0
 8001754:	d008      	beq.n	8001768 <_Z16run_output_mixerh+0x4d0>
		output_mixer_led_timer = start_timer_ms(LED_REFRESH_RATE_MS);
 8001756:	2021      	movs	r0, #33	; 0x21
 8001758:	f7ff fc06 	bl	8000f68 <start_timer_ms>
 800175c:	0002      	movs	r2, r0
 800175e:	4b0a      	ldr	r3, [pc, #40]	; (8001788 <_Z16run_output_mixerh+0x4f0>)
 8001760:	601a      	str	r2, [r3, #0]
		send_data(true);
 8001762:	2001      	movs	r0, #1
 8001764:	f7ff f9e6 	bl	8000b34 <_Z9send_datab>
	}
}
 8001768:	46c0      	nop			; (mov r8, r8)
 800176a:	46bd      	mov	sp, r7
 800176c:	b004      	add	sp, #16
 800176e:	bdb0      	pop	{r4, r5, r7, pc}
 8001770:	20000428 	.word	0x20000428
 8001774:	20000427 	.word	0x20000427
 8001778:	20000425 	.word	0x20000425
 800177c:	20000426 	.word	0x20000426
 8001780:	0000ffff 	.word	0x0000ffff
 8001784:	2000041c 	.word	0x2000041c
 8001788:	20000418 	.word	0x20000418

0800178c <_Z22submenu_0_display_timev>:

/**
 * @brief: default "menu" where the actual time from the RTC is displayed
 */
void submenu_0_display_time(void){
 800178c:	b580      	push	{r7, lr}
 800178e:	af00      	add	r7, sp, #0
//	for(uint8_t i=0; i<6; i++){
//		set_color(i,OFF,25);	//hotfix fr Papa
//	}
	if(data_to_RTC.new_data!=true){				//do not refresh tube with data from RTC before new data is written to RTC
 8001790:	4b32      	ldr	r3, [pc, #200]	; (800185c <_Z22submenu_0_display_timev+0xd0>)
 8001792:	7a9b      	ldrb	r3, [r3, #10]
 8001794:	2b01      	cmp	r3, #1
 8001796:	d05e      	beq.n	8001856 <_Z22submenu_0_display_timev+0xca>
												//without this, the old time will shine for a splitsecond when writing new time
		set_number(0, data_from_RTC.hours/10);
 8001798:	4b31      	ldr	r3, [pc, #196]	; (8001860 <_Z22submenu_0_display_timev+0xd4>)
 800179a:	789b      	ldrb	r3, [r3, #2]
 800179c:	210a      	movs	r1, #10
 800179e:	0018      	movs	r0, r3
 80017a0:	f7fe fcb2 	bl	8000108 <__udivsi3>
 80017a4:	0003      	movs	r3, r0
 80017a6:	b2db      	uxtb	r3, r3
 80017a8:	0019      	movs	r1, r3
 80017aa:	2000      	movs	r0, #0
 80017ac:	f7ff fc22 	bl	8000ff4 <_Z10set_numberhh>
		set_number(1, data_from_RTC.hours%10);
 80017b0:	4b2b      	ldr	r3, [pc, #172]	; (8001860 <_Z22submenu_0_display_timev+0xd4>)
 80017b2:	789b      	ldrb	r3, [r3, #2]
 80017b4:	210a      	movs	r1, #10
 80017b6:	0018      	movs	r0, r3
 80017b8:	f7fe fd2c 	bl	8000214 <__aeabi_uidivmod>
 80017bc:	000b      	movs	r3, r1
 80017be:	b2db      	uxtb	r3, r3
 80017c0:	0019      	movs	r1, r3
 80017c2:	2001      	movs	r0, #1
 80017c4:	f7ff fc16 	bl	8000ff4 <_Z10set_numberhh>
		set_number(2, data_from_RTC.minutes/10);
 80017c8:	4b25      	ldr	r3, [pc, #148]	; (8001860 <_Z22submenu_0_display_timev+0xd4>)
 80017ca:	785b      	ldrb	r3, [r3, #1]
 80017cc:	210a      	movs	r1, #10
 80017ce:	0018      	movs	r0, r3
 80017d0:	f7fe fc9a 	bl	8000108 <__udivsi3>
 80017d4:	0003      	movs	r3, r0
 80017d6:	b2db      	uxtb	r3, r3
 80017d8:	0019      	movs	r1, r3
 80017da:	2002      	movs	r0, #2
 80017dc:	f7ff fc0a 	bl	8000ff4 <_Z10set_numberhh>
		set_number(3, data_from_RTC.minutes%10);
 80017e0:	4b1f      	ldr	r3, [pc, #124]	; (8001860 <_Z22submenu_0_display_timev+0xd4>)
 80017e2:	785b      	ldrb	r3, [r3, #1]
 80017e4:	210a      	movs	r1, #10
 80017e6:	0018      	movs	r0, r3
 80017e8:	f7fe fd14 	bl	8000214 <__aeabi_uidivmod>
 80017ec:	000b      	movs	r3, r1
 80017ee:	b2db      	uxtb	r3, r3
 80017f0:	0019      	movs	r1, r3
 80017f2:	2003      	movs	r0, #3
 80017f4:	f7ff fbfe 	bl	8000ff4 <_Z10set_numberhh>
		set_number(4, data_from_RTC.seconds/10);
 80017f8:	4b19      	ldr	r3, [pc, #100]	; (8001860 <_Z22submenu_0_display_timev+0xd4>)
 80017fa:	781b      	ldrb	r3, [r3, #0]
 80017fc:	210a      	movs	r1, #10
 80017fe:	0018      	movs	r0, r3
 8001800:	f7fe fc82 	bl	8000108 <__udivsi3>
 8001804:	0003      	movs	r3, r0
 8001806:	b2db      	uxtb	r3, r3
 8001808:	0019      	movs	r1, r3
 800180a:	2004      	movs	r0, #4
 800180c:	f7ff fbf2 	bl	8000ff4 <_Z10set_numberhh>
		set_number(5, data_from_RTC.seconds%10);
 8001810:	4b13      	ldr	r3, [pc, #76]	; (8001860 <_Z22submenu_0_display_timev+0xd4>)
 8001812:	781b      	ldrb	r3, [r3, #0]
 8001814:	210a      	movs	r1, #10
 8001816:	0018      	movs	r0, r3
 8001818:	f7fe fcfc 	bl	8000214 <__aeabi_uidivmod>
 800181c:	000b      	movs	r3, r1
 800181e:	b2db      	uxtb	r3, r3
 8001820:	0019      	movs	r1, r3
 8001822:	2005      	movs	r0, #5
 8001824:	f7ff fbe6 	bl	8000ff4 <_Z10set_numberhh>
		if((data_from_RTC.seconds %2) ==true){
 8001828:	4b0d      	ldr	r3, [pc, #52]	; (8001860 <_Z22submenu_0_display_timev+0xd4>)
 800182a:	781b      	ldrb	r3, [r3, #0]
 800182c:	001a      	movs	r2, r3
 800182e:	2301      	movs	r3, #1
 8001830:	4013      	ands	r3, r2
 8001832:	d008      	beq.n	8001846 <_Z22submenu_0_display_timev+0xba>
			set_point(1, false);
 8001834:	2100      	movs	r1, #0
 8001836:	2001      	movs	r0, #1
 8001838:	f7ff fc72 	bl	8001120 <_Z9set_pointhb>
			set_point(3, true);
 800183c:	2101      	movs	r1, #1
 800183e:	2003      	movs	r0, #3
 8001840:	f7ff fc6e 	bl	8001120 <_Z9set_pointhb>
		else{
			set_point(1, true);
			set_point(3, false);
		}
	}
}
 8001844:	e007      	b.n	8001856 <_Z22submenu_0_display_timev+0xca>
			set_point(1, true);
 8001846:	2101      	movs	r1, #1
 8001848:	2001      	movs	r0, #1
 800184a:	f7ff fc69 	bl	8001120 <_Z9set_pointhb>
			set_point(3, false);
 800184e:	2100      	movs	r1, #0
 8001850:	2003      	movs	r0, #3
 8001852:	f7ff fc65 	bl	8001120 <_Z9set_pointhb>
}
 8001856:	46c0      	nop			; (mov r8, r8)
 8001858:	46bd      	mov	sp, r7
 800185a:	bd80      	pop	{r7, pc}
 800185c:	20000020 	.word	0x20000020
 8001860:	20000014 	.word	0x20000014

08001864 <_Z18submenu_1_set_timehb>:
/**
 * @brief function to enter new time data - copies the current time, displays it, change it and tell the time handler to safe it to rtc
 * @param: enter input info 0x1=left; 0x2=right; 0x4=press; 0x8=long press
 * @param: new_entry set true, when menu is entered through menu select
 */
void submenu_1_set_time(uint8_t local_input, bool new_entry){
 8001864:	b580      	push	{r7, lr}
 8001866:	b084      	sub	sp, #16
 8001868:	af00      	add	r7, sp, #0
 800186a:	0002      	movs	r2, r0
 800186c:	1dfb      	adds	r3, r7, #7
 800186e:	701a      	strb	r2, [r3, #0]
 8001870:	1dbb      	adds	r3, r7, #6
 8001872:	1c0a      	adds	r2, r1, #0
 8001874:	701a      	strb	r2, [r3, #0]
	uint8_t number_value = 0;
 8001876:	230f      	movs	r3, #15
 8001878:	18fb      	adds	r3, r7, r3
 800187a:	2200      	movs	r2, #0
 800187c:	701a      	strb	r2, [r3, #0]
	static bool blink_state = false;
	static uint32_t blink_timer = 0;
	static uint8_t current_state = 0;

	if(new_entry == true){
 800187e:	1dbb      	adds	r3, r7, #6
 8001880:	781b      	ldrb	r3, [r3, #0]
 8001882:	2b01      	cmp	r3, #1
 8001884:	d111      	bne.n	80018aa <_Z18submenu_1_set_timehb+0x46>
		current_state = 1;
 8001886:	4bab      	ldr	r3, [pc, #684]	; (8001b34 <_Z18submenu_1_set_timehb+0x2d0>)
 8001888:	2201      	movs	r2, #1
 800188a:	701a      	strb	r2, [r3, #0]
		data_to_RTC.seconds = data_from_RTC.seconds;
 800188c:	4baa      	ldr	r3, [pc, #680]	; (8001b38 <_Z18submenu_1_set_timehb+0x2d4>)
 800188e:	781a      	ldrb	r2, [r3, #0]
 8001890:	4baa      	ldr	r3, [pc, #680]	; (8001b3c <_Z18submenu_1_set_timehb+0x2d8>)
 8001892:	701a      	strb	r2, [r3, #0]
		data_to_RTC.minutes = data_from_RTC.minutes;
 8001894:	4ba8      	ldr	r3, [pc, #672]	; (8001b38 <_Z18submenu_1_set_timehb+0x2d4>)
 8001896:	785a      	ldrb	r2, [r3, #1]
 8001898:	4ba8      	ldr	r3, [pc, #672]	; (8001b3c <_Z18submenu_1_set_timehb+0x2d8>)
 800189a:	705a      	strb	r2, [r3, #1]
		data_to_RTC.hours = data_from_RTC.hours;
 800189c:	4ba6      	ldr	r3, [pc, #664]	; (8001b38 <_Z18submenu_1_set_timehb+0x2d4>)
 800189e:	789a      	ldrb	r2, [r3, #2]
 80018a0:	4ba6      	ldr	r3, [pc, #664]	; (8001b3c <_Z18submenu_1_set_timehb+0x2d8>)
 80018a2:	709a      	strb	r2, [r3, #2]
		blink_state = false;
 80018a4:	4ba6      	ldr	r3, [pc, #664]	; (8001b40 <_Z18submenu_1_set_timehb+0x2dc>)
 80018a6:	2200      	movs	r2, #0
 80018a8:	701a      	strb	r2, [r3, #0]
	}

	//skip setting for seconds, they can't be shown anyway
	if(local_input==0x4){
 80018aa:	1dfb      	adds	r3, r7, #7
 80018ac:	781b      	ldrb	r3, [r3, #0]
 80018ae:	2b04      	cmp	r3, #4
 80018b0:	d10b      	bne.n	80018ca <_Z18submenu_1_set_timehb+0x66>
		current_state++;
 80018b2:	4ba0      	ldr	r3, [pc, #640]	; (8001b34 <_Z18submenu_1_set_timehb+0x2d0>)
 80018b4:	781b      	ldrb	r3, [r3, #0]
 80018b6:	3301      	adds	r3, #1
 80018b8:	b2da      	uxtb	r2, r3
 80018ba:	4b9e      	ldr	r3, [pc, #632]	; (8001b34 <_Z18submenu_1_set_timehb+0x2d0>)
 80018bc:	701a      	strb	r2, [r3, #0]
		local_input=0;
 80018be:	1dfb      	adds	r3, r7, #7
 80018c0:	2200      	movs	r2, #0
 80018c2:	701a      	strb	r2, [r3, #0]
		blink_state = false;
 80018c4:	4b9e      	ldr	r3, [pc, #632]	; (8001b40 <_Z18submenu_1_set_timehb+0x2dc>)
 80018c6:	2200      	movs	r2, #0
 80018c8:	701a      	strb	r2, [r3, #0]
	}

	if(current_state == 3 && board_size==4){
 80018ca:	4b9a      	ldr	r3, [pc, #616]	; (8001b34 <_Z18submenu_1_set_timehb+0x2d0>)
 80018cc:	781b      	ldrb	r3, [r3, #0]
 80018ce:	2b03      	cmp	r3, #3
 80018d0:	d10c      	bne.n	80018ec <_Z18submenu_1_set_timehb+0x88>
 80018d2:	4b9c      	ldr	r3, [pc, #624]	; (8001b44 <_Z18submenu_1_set_timehb+0x2e0>)
 80018d4:	781b      	ldrb	r3, [r3, #0]
 80018d6:	2b04      	cmp	r3, #4
 80018d8:	d108      	bne.n	80018ec <_Z18submenu_1_set_timehb+0x88>
		current_state++;
 80018da:	4b96      	ldr	r3, [pc, #600]	; (8001b34 <_Z18submenu_1_set_timehb+0x2d0>)
 80018dc:	781b      	ldrb	r3, [r3, #0]
 80018de:	3301      	adds	r3, #1
 80018e0:	b2da      	uxtb	r2, r3
 80018e2:	4b94      	ldr	r3, [pc, #592]	; (8001b34 <_Z18submenu_1_set_timehb+0x2d0>)
 80018e4:	701a      	strb	r2, [r3, #0]
		data_to_RTC.seconds = 0;
 80018e6:	4b95      	ldr	r3, [pc, #596]	; (8001b3c <_Z18submenu_1_set_timehb+0x2d8>)
 80018e8:	2200      	movs	r2, #0
 80018ea:	701a      	strb	r2, [r3, #0]
	}

	//leave setting and safe changes - go back to menu selection
	if(current_state == 4){
 80018ec:	4b91      	ldr	r3, [pc, #580]	; (8001b34 <_Z18submenu_1_set_timehb+0x2d0>)
 80018ee:	781b      	ldrb	r3, [r3, #0]
 80018f0:	2b04      	cmp	r3, #4
 80018f2:	d105      	bne.n	8001900 <_Z18submenu_1_set_timehb+0x9c>
		current_menu = 9;
 80018f4:	4b94      	ldr	r3, [pc, #592]	; (8001b48 <_Z18submenu_1_set_timehb+0x2e4>)
 80018f6:	2209      	movs	r2, #9
 80018f8:	701a      	strb	r2, [r3, #0]
		data_to_RTC.new_data = 1;	//1 means new time data
 80018fa:	4b90      	ldr	r3, [pc, #576]	; (8001b3c <_Z18submenu_1_set_timehb+0x2d8>)
 80018fc:	2201      	movs	r2, #1
 80018fe:	729a      	strb	r2, [r3, #10]
		//TODO: add animation for safed data
	}

	//blink active digits
	if(blink_state==true){
 8001900:	4b8f      	ldr	r3, [pc, #572]	; (8001b40 <_Z18submenu_1_set_timehb+0x2dc>)
 8001902:	781b      	ldrb	r3, [r3, #0]
 8001904:	2b01      	cmp	r3, #1
 8001906:	d116      	bne.n	8001936 <_Z18submenu_1_set_timehb+0xd2>
		set_color((current_state*2)-1,OFF,25);
 8001908:	4b8a      	ldr	r3, [pc, #552]	; (8001b34 <_Z18submenu_1_set_timehb+0x2d0>)
 800190a:	781b      	ldrb	r3, [r3, #0]
 800190c:	18db      	adds	r3, r3, r3
 800190e:	b2db      	uxtb	r3, r3
 8001910:	3b01      	subs	r3, #1
 8001912:	b2db      	uxtb	r3, r3
 8001914:	2219      	movs	r2, #25
 8001916:	2100      	movs	r1, #0
 8001918:	0018      	movs	r0, r3
 800191a:	f7ff f883 	bl	8000a24 <_Z9set_colorhmh>
		set_color((current_state*2)-2,OFF,25);
 800191e:	4b85      	ldr	r3, [pc, #532]	; (8001b34 <_Z18submenu_1_set_timehb+0x2d0>)
 8001920:	781b      	ldrb	r3, [r3, #0]
 8001922:	3b01      	subs	r3, #1
 8001924:	b2db      	uxtb	r3, r3
 8001926:	18db      	adds	r3, r3, r3
 8001928:	b2db      	uxtb	r3, r3
 800192a:	2219      	movs	r2, #25
 800192c:	2100      	movs	r1, #0
 800192e:	0018      	movs	r0, r3
 8001930:	f7ff f878 	bl	8000a24 <_Z9set_colorhmh>
 8001934:	e017      	b.n	8001966 <_Z18submenu_1_set_timehb+0x102>
	}
	else{
		set_color((current_state*2)-1,GREEN,25);
 8001936:	4b7f      	ldr	r3, [pc, #508]	; (8001b34 <_Z18submenu_1_set_timehb+0x2d0>)
 8001938:	781b      	ldrb	r3, [r3, #0]
 800193a:	18db      	adds	r3, r3, r3
 800193c:	b2db      	uxtb	r3, r3
 800193e:	3b01      	subs	r3, #1
 8001940:	b2db      	uxtb	r3, r3
 8001942:	22ff      	movs	r2, #255	; 0xff
 8001944:	0211      	lsls	r1, r2, #8
 8001946:	2219      	movs	r2, #25
 8001948:	0018      	movs	r0, r3
 800194a:	f7ff f86b 	bl	8000a24 <_Z9set_colorhmh>
		set_color((current_state*2)-2,GREEN,25);
 800194e:	4b79      	ldr	r3, [pc, #484]	; (8001b34 <_Z18submenu_1_set_timehb+0x2d0>)
 8001950:	781b      	ldrb	r3, [r3, #0]
 8001952:	3b01      	subs	r3, #1
 8001954:	b2db      	uxtb	r3, r3
 8001956:	18db      	adds	r3, r3, r3
 8001958:	b2db      	uxtb	r3, r3
 800195a:	22ff      	movs	r2, #255	; 0xff
 800195c:	0211      	lsls	r1, r2, #8
 800195e:	2219      	movs	r2, #25
 8001960:	0018      	movs	r0, r3
 8001962:	f7ff f85f 	bl	8000a24 <_Z9set_colorhmh>
	}
	if(timeout(blink_timer)==true){	//500ms loop
 8001966:	4b79      	ldr	r3, [pc, #484]	; (8001b4c <_Z18submenu_1_set_timehb+0x2e8>)
 8001968:	681b      	ldr	r3, [r3, #0]
 800196a:	0018      	movs	r0, r3
 800196c:	f7ff fb0c 	bl	8000f88 <timeout>
 8001970:	0003      	movs	r3, r0
 8001972:	3b01      	subs	r3, #1
 8001974:	425a      	negs	r2, r3
 8001976:	4153      	adcs	r3, r2
 8001978:	b2db      	uxtb	r3, r3
 800197a:	2b00      	cmp	r3, #0
 800197c:	d00e      	beq.n	800199c <_Z18submenu_1_set_timehb+0x138>
		blink_timer = start_timer_ms(500);
 800197e:	23fa      	movs	r3, #250	; 0xfa
 8001980:	005b      	lsls	r3, r3, #1
 8001982:	0018      	movs	r0, r3
 8001984:	f7ff faf0 	bl	8000f68 <start_timer_ms>
 8001988:	0002      	movs	r2, r0
 800198a:	4b70      	ldr	r3, [pc, #448]	; (8001b4c <_Z18submenu_1_set_timehb+0x2e8>)
 800198c:	601a      	str	r2, [r3, #0]
		blink_state = !blink_state;
 800198e:	4b6c      	ldr	r3, [pc, #432]	; (8001b40 <_Z18submenu_1_set_timehb+0x2dc>)
 8001990:	781b      	ldrb	r3, [r3, #0]
 8001992:	2201      	movs	r2, #1
 8001994:	4053      	eors	r3, r2
 8001996:	b2da      	uxtb	r2, r3
 8001998:	4b69      	ldr	r3, [pc, #420]	; (8001b40 <_Z18submenu_1_set_timehb+0x2dc>)
 800199a:	701a      	strb	r2, [r3, #0]
	}

	//copy time info into local variable for manipulation and checks
	switch(current_state){
 800199c:	4b65      	ldr	r3, [pc, #404]	; (8001b34 <_Z18submenu_1_set_timehb+0x2d0>)
 800199e:	781b      	ldrb	r3, [r3, #0]
 80019a0:	2b03      	cmp	r3, #3
 80019a2:	d011      	beq.n	80019c8 <_Z18submenu_1_set_timehb+0x164>
 80019a4:	dc16      	bgt.n	80019d4 <_Z18submenu_1_set_timehb+0x170>
 80019a6:	2b01      	cmp	r3, #1
 80019a8:	d002      	beq.n	80019b0 <_Z18submenu_1_set_timehb+0x14c>
 80019aa:	2b02      	cmp	r3, #2
 80019ac:	d006      	beq.n	80019bc <_Z18submenu_1_set_timehb+0x158>
		case 0x1: number_value = data_to_RTC.hours; break;
		case 0x2: number_value = data_to_RTC.minutes; break;
		case 0x3: number_value = data_to_RTC.seconds; break;
		default: break;
 80019ae:	e011      	b.n	80019d4 <_Z18submenu_1_set_timehb+0x170>
		case 0x1: number_value = data_to_RTC.hours; break;
 80019b0:	230f      	movs	r3, #15
 80019b2:	18fb      	adds	r3, r7, r3
 80019b4:	4a61      	ldr	r2, [pc, #388]	; (8001b3c <_Z18submenu_1_set_timehb+0x2d8>)
 80019b6:	7892      	ldrb	r2, [r2, #2]
 80019b8:	701a      	strb	r2, [r3, #0]
 80019ba:	e00c      	b.n	80019d6 <_Z18submenu_1_set_timehb+0x172>
		case 0x2: number_value = data_to_RTC.minutes; break;
 80019bc:	230f      	movs	r3, #15
 80019be:	18fb      	adds	r3, r7, r3
 80019c0:	4a5e      	ldr	r2, [pc, #376]	; (8001b3c <_Z18submenu_1_set_timehb+0x2d8>)
 80019c2:	7852      	ldrb	r2, [r2, #1]
 80019c4:	701a      	strb	r2, [r3, #0]
 80019c6:	e006      	b.n	80019d6 <_Z18submenu_1_set_timehb+0x172>
		case 0x3: number_value = data_to_RTC.seconds; break;
 80019c8:	230f      	movs	r3, #15
 80019ca:	18fb      	adds	r3, r7, r3
 80019cc:	4a5b      	ldr	r2, [pc, #364]	; (8001b3c <_Z18submenu_1_set_timehb+0x2d8>)
 80019ce:	7812      	ldrb	r2, [r2, #0]
 80019d0:	701a      	strb	r2, [r3, #0]
 80019d2:	e000      	b.n	80019d6 <_Z18submenu_1_set_timehb+0x172>
		default: break;
 80019d4:	46c0      	nop			; (mov r8, r8)
	}

	//change data according to input
	switch(local_input){
 80019d6:	1dfb      	adds	r3, r7, #7
 80019d8:	781b      	ldrb	r3, [r3, #0]
 80019da:	2b01      	cmp	r3, #1
 80019dc:	d002      	beq.n	80019e4 <_Z18submenu_1_set_timehb+0x180>
 80019de:	2b02      	cmp	r3, #2
 80019e0:	d007      	beq.n	80019f2 <_Z18submenu_1_set_timehb+0x18e>
		case 0x1:	number_value++;	break;
		case 0x2:	number_value--;	break;
		default: break;
 80019e2:	e00d      	b.n	8001a00 <_Z18submenu_1_set_timehb+0x19c>
		case 0x1:	number_value++;	break;
 80019e4:	210f      	movs	r1, #15
 80019e6:	187b      	adds	r3, r7, r1
 80019e8:	781a      	ldrb	r2, [r3, #0]
 80019ea:	187b      	adds	r3, r7, r1
 80019ec:	3201      	adds	r2, #1
 80019ee:	701a      	strb	r2, [r3, #0]
 80019f0:	e006      	b.n	8001a00 <_Z18submenu_1_set_timehb+0x19c>
		case 0x2:	number_value--;	break;
 80019f2:	210f      	movs	r1, #15
 80019f4:	187b      	adds	r3, r7, r1
 80019f6:	781a      	ldrb	r2, [r3, #0]
 80019f8:	187b      	adds	r3, r7, r1
 80019fa:	3a01      	subs	r2, #1
 80019fc:	701a      	strb	r2, [r3, #0]
 80019fe:	46c0      	nop			; (mov r8, r8)
	}

	//correction for overrunning of valid value area
	if(((number_value==60) && ((current_state==3) || (current_state==2))) || (number_value==24 && current_state==1))
 8001a00:	230f      	movs	r3, #15
 8001a02:	18fb      	adds	r3, r7, r3
 8001a04:	781b      	ldrb	r3, [r3, #0]
 8001a06:	2b3c      	cmp	r3, #60	; 0x3c
 8001a08:	d107      	bne.n	8001a1a <_Z18submenu_1_set_timehb+0x1b6>
 8001a0a:	4b4a      	ldr	r3, [pc, #296]	; (8001b34 <_Z18submenu_1_set_timehb+0x2d0>)
 8001a0c:	781b      	ldrb	r3, [r3, #0]
 8001a0e:	2b03      	cmp	r3, #3
 8001a10:	d00c      	beq.n	8001a2c <_Z18submenu_1_set_timehb+0x1c8>
 8001a12:	4b48      	ldr	r3, [pc, #288]	; (8001b34 <_Z18submenu_1_set_timehb+0x2d0>)
 8001a14:	781b      	ldrb	r3, [r3, #0]
 8001a16:	2b02      	cmp	r3, #2
 8001a18:	d008      	beq.n	8001a2c <_Z18submenu_1_set_timehb+0x1c8>
 8001a1a:	230f      	movs	r3, #15
 8001a1c:	18fb      	adds	r3, r7, r3
 8001a1e:	781b      	ldrb	r3, [r3, #0]
 8001a20:	2b18      	cmp	r3, #24
 8001a22:	d107      	bne.n	8001a34 <_Z18submenu_1_set_timehb+0x1d0>
 8001a24:	4b43      	ldr	r3, [pc, #268]	; (8001b34 <_Z18submenu_1_set_timehb+0x2d0>)
 8001a26:	781b      	ldrb	r3, [r3, #0]
 8001a28:	2b01      	cmp	r3, #1
 8001a2a:	d103      	bne.n	8001a34 <_Z18submenu_1_set_timehb+0x1d0>
		number_value = 0;
 8001a2c:	230f      	movs	r3, #15
 8001a2e:	18fb      	adds	r3, r7, r3
 8001a30:	2200      	movs	r2, #0
 8001a32:	701a      	strb	r2, [r3, #0]
	if(number_value==255){
 8001a34:	230f      	movs	r3, #15
 8001a36:	18fb      	adds	r3, r7, r3
 8001a38:	781b      	ldrb	r3, [r3, #0]
 8001a3a:	2bff      	cmp	r3, #255	; 0xff
 8001a3c:	d110      	bne.n	8001a60 <_Z18submenu_1_set_timehb+0x1fc>
		if(current_state==3 || current_state==2)
 8001a3e:	4b3d      	ldr	r3, [pc, #244]	; (8001b34 <_Z18submenu_1_set_timehb+0x2d0>)
 8001a40:	781b      	ldrb	r3, [r3, #0]
 8001a42:	2b03      	cmp	r3, #3
 8001a44:	d003      	beq.n	8001a4e <_Z18submenu_1_set_timehb+0x1ea>
 8001a46:	4b3b      	ldr	r3, [pc, #236]	; (8001b34 <_Z18submenu_1_set_timehb+0x2d0>)
 8001a48:	781b      	ldrb	r3, [r3, #0]
 8001a4a:	2b02      	cmp	r3, #2
 8001a4c:	d104      	bne.n	8001a58 <_Z18submenu_1_set_timehb+0x1f4>
			number_value = 59;
 8001a4e:	230f      	movs	r3, #15
 8001a50:	18fb      	adds	r3, r7, r3
 8001a52:	223b      	movs	r2, #59	; 0x3b
 8001a54:	701a      	strb	r2, [r3, #0]
 8001a56:	e003      	b.n	8001a60 <_Z18submenu_1_set_timehb+0x1fc>
		else
			number_value = 23;
 8001a58:	230f      	movs	r3, #15
 8001a5a:	18fb      	adds	r3, r7, r3
 8001a5c:	2217      	movs	r2, #23
 8001a5e:	701a      	strb	r2, [r3, #0]
	}

	//write manipulated value back to time struct
	switch(current_state){
 8001a60:	4b34      	ldr	r3, [pc, #208]	; (8001b34 <_Z18submenu_1_set_timehb+0x2d0>)
 8001a62:	781b      	ldrb	r3, [r3, #0]
 8001a64:	2b03      	cmp	r3, #3
 8001a66:	d011      	beq.n	8001a8c <_Z18submenu_1_set_timehb+0x228>
 8001a68:	dc16      	bgt.n	8001a98 <_Z18submenu_1_set_timehb+0x234>
 8001a6a:	2b01      	cmp	r3, #1
 8001a6c:	d002      	beq.n	8001a74 <_Z18submenu_1_set_timehb+0x210>
 8001a6e:	2b02      	cmp	r3, #2
 8001a70:	d006      	beq.n	8001a80 <_Z18submenu_1_set_timehb+0x21c>
		case 0x1: data_to_RTC.hours = number_value; break;
		case 0x2: data_to_RTC.minutes = number_value; break;
		case 0x3: data_to_RTC.seconds = number_value; break;
		default: break;
 8001a72:	e011      	b.n	8001a98 <_Z18submenu_1_set_timehb+0x234>
		case 0x1: data_to_RTC.hours = number_value; break;
 8001a74:	4b31      	ldr	r3, [pc, #196]	; (8001b3c <_Z18submenu_1_set_timehb+0x2d8>)
 8001a76:	220f      	movs	r2, #15
 8001a78:	18ba      	adds	r2, r7, r2
 8001a7a:	7812      	ldrb	r2, [r2, #0]
 8001a7c:	709a      	strb	r2, [r3, #2]
 8001a7e:	e00c      	b.n	8001a9a <_Z18submenu_1_set_timehb+0x236>
		case 0x2: data_to_RTC.minutes = number_value; break;
 8001a80:	4b2e      	ldr	r3, [pc, #184]	; (8001b3c <_Z18submenu_1_set_timehb+0x2d8>)
 8001a82:	220f      	movs	r2, #15
 8001a84:	18ba      	adds	r2, r7, r2
 8001a86:	7812      	ldrb	r2, [r2, #0]
 8001a88:	705a      	strb	r2, [r3, #1]
 8001a8a:	e006      	b.n	8001a9a <_Z18submenu_1_set_timehb+0x236>
		case 0x3: data_to_RTC.seconds = number_value; break;
 8001a8c:	4b2b      	ldr	r3, [pc, #172]	; (8001b3c <_Z18submenu_1_set_timehb+0x2d8>)
 8001a8e:	220f      	movs	r2, #15
 8001a90:	18ba      	adds	r2, r7, r2
 8001a92:	7812      	ldrb	r2, [r2, #0]
 8001a94:	701a      	strb	r2, [r3, #0]
 8001a96:	e000      	b.n	8001a9a <_Z18submenu_1_set_timehb+0x236>
		default: break;
 8001a98:	46c0      	nop			; (mov r8, r8)
	}

	//display output
	set_number(0, data_to_RTC.hours/10);
 8001a9a:	4b28      	ldr	r3, [pc, #160]	; (8001b3c <_Z18submenu_1_set_timehb+0x2d8>)
 8001a9c:	789b      	ldrb	r3, [r3, #2]
 8001a9e:	210a      	movs	r1, #10
 8001aa0:	0018      	movs	r0, r3
 8001aa2:	f7fe fb31 	bl	8000108 <__udivsi3>
 8001aa6:	0003      	movs	r3, r0
 8001aa8:	b2db      	uxtb	r3, r3
 8001aaa:	0019      	movs	r1, r3
 8001aac:	2000      	movs	r0, #0
 8001aae:	f7ff faa1 	bl	8000ff4 <_Z10set_numberhh>
	set_number(1, data_to_RTC.hours%10);
 8001ab2:	4b22      	ldr	r3, [pc, #136]	; (8001b3c <_Z18submenu_1_set_timehb+0x2d8>)
 8001ab4:	789b      	ldrb	r3, [r3, #2]
 8001ab6:	210a      	movs	r1, #10
 8001ab8:	0018      	movs	r0, r3
 8001aba:	f7fe fbab 	bl	8000214 <__aeabi_uidivmod>
 8001abe:	000b      	movs	r3, r1
 8001ac0:	b2db      	uxtb	r3, r3
 8001ac2:	0019      	movs	r1, r3
 8001ac4:	2001      	movs	r0, #1
 8001ac6:	f7ff fa95 	bl	8000ff4 <_Z10set_numberhh>
	set_number(2, data_to_RTC.minutes/10);
 8001aca:	4b1c      	ldr	r3, [pc, #112]	; (8001b3c <_Z18submenu_1_set_timehb+0x2d8>)
 8001acc:	785b      	ldrb	r3, [r3, #1]
 8001ace:	210a      	movs	r1, #10
 8001ad0:	0018      	movs	r0, r3
 8001ad2:	f7fe fb19 	bl	8000108 <__udivsi3>
 8001ad6:	0003      	movs	r3, r0
 8001ad8:	b2db      	uxtb	r3, r3
 8001ada:	0019      	movs	r1, r3
 8001adc:	2002      	movs	r0, #2
 8001ade:	f7ff fa89 	bl	8000ff4 <_Z10set_numberhh>
	set_number(3, data_to_RTC.minutes%10);
 8001ae2:	4b16      	ldr	r3, [pc, #88]	; (8001b3c <_Z18submenu_1_set_timehb+0x2d8>)
 8001ae4:	785b      	ldrb	r3, [r3, #1]
 8001ae6:	210a      	movs	r1, #10
 8001ae8:	0018      	movs	r0, r3
 8001aea:	f7fe fb93 	bl	8000214 <__aeabi_uidivmod>
 8001aee:	000b      	movs	r3, r1
 8001af0:	b2db      	uxtb	r3, r3
 8001af2:	0019      	movs	r1, r3
 8001af4:	2003      	movs	r0, #3
 8001af6:	f7ff fa7d 	bl	8000ff4 <_Z10set_numberhh>
	set_number(4, data_to_RTC.seconds/10);
 8001afa:	4b10      	ldr	r3, [pc, #64]	; (8001b3c <_Z18submenu_1_set_timehb+0x2d8>)
 8001afc:	781b      	ldrb	r3, [r3, #0]
 8001afe:	210a      	movs	r1, #10
 8001b00:	0018      	movs	r0, r3
 8001b02:	f7fe fb01 	bl	8000108 <__udivsi3>
 8001b06:	0003      	movs	r3, r0
 8001b08:	b2db      	uxtb	r3, r3
 8001b0a:	0019      	movs	r1, r3
 8001b0c:	2004      	movs	r0, #4
 8001b0e:	f7ff fa71 	bl	8000ff4 <_Z10set_numberhh>
	set_number(5, data_to_RTC.seconds%10);
 8001b12:	4b0a      	ldr	r3, [pc, #40]	; (8001b3c <_Z18submenu_1_set_timehb+0x2d8>)
 8001b14:	781b      	ldrb	r3, [r3, #0]
 8001b16:	210a      	movs	r1, #10
 8001b18:	0018      	movs	r0, r3
 8001b1a:	f7fe fb7b 	bl	8000214 <__aeabi_uidivmod>
 8001b1e:	000b      	movs	r3, r1
 8001b20:	b2db      	uxtb	r3, r3
 8001b22:	0019      	movs	r1, r3
 8001b24:	2005      	movs	r0, #5
 8001b26:	f7ff fa65 	bl	8000ff4 <_Z10set_numberhh>
}
 8001b2a:	46c0      	nop			; (mov r8, r8)
 8001b2c:	46bd      	mov	sp, r7
 8001b2e:	b004      	add	sp, #16
 8001b30:	bd80      	pop	{r7, pc}
 8001b32:	46c0      	nop			; (mov r8, r8)
 8001b34:	20000430 	.word	0x20000430
 8001b38:	20000014 	.word	0x20000014
 8001b3c:	20000020 	.word	0x20000020
 8001b40:	20000429 	.word	0x20000429
 8001b44:	200003d8 	.word	0x200003d8
 8001b48:	20000420 	.word	0x20000420
 8001b4c:	2000042c 	.word	0x2000042c

08001b50 <_Z18submenu_2_set_datehb>:
/**
 * @brief: function to set new date to RTC | day | date+month | year
 * @param: enter input info 0x1=left; 0x2=right; 0x4=press; 0x8=long press
 * @param: new_entry set true, when menu is entered through menu select
 */
void submenu_2_set_date(uint8_t local_input, bool new_entry){
 8001b50:	b590      	push	{r4, r7, lr}
 8001b52:	b085      	sub	sp, #20
 8001b54:	af00      	add	r7, sp, #0
 8001b56:	0002      	movs	r2, r0
 8001b58:	1dfb      	adds	r3, r7, #7
 8001b5a:	701a      	strb	r2, [r3, #0]
 8001b5c:	1dbb      	adds	r3, r7, #6
 8001b5e:	1c0a      	adds	r2, r1, #0
 8001b60:	701a      	strb	r2, [r3, #0]
	uint16_t value = 0;
 8001b62:	230e      	movs	r3, #14
 8001b64:	18fb      	adds	r3, r7, r3
 8001b66:	2200      	movs	r2, #0
 8001b68:	801a      	strh	r2, [r3, #0]
	static uint32_t blink_timer = 0;
	static uint8_t current_state = 0;
	static uint16_t val_min[4]={0,0,0,1899};
	static uint16_t val_max[4]={8,32,13,2101};

	if(new_entry == true){
 8001b6a:	1dbb      	adds	r3, r7, #6
 8001b6c:	781b      	ldrb	r3, [r3, #0]
 8001b6e:	2b01      	cmp	r3, #1
 8001b70:	d115      	bne.n	8001b9e <_Z18submenu_2_set_datehb+0x4e>
		current_state = 1;
 8001b72:	4b9c      	ldr	r3, [pc, #624]	; (8001de4 <_Z18submenu_2_set_datehb+0x294>)
 8001b74:	2201      	movs	r2, #1
 8001b76:	701a      	strb	r2, [r3, #0]
		data_to_RTC.day = data_from_RTC.day;
 8001b78:	4b9b      	ldr	r3, [pc, #620]	; (8001de8 <_Z18submenu_2_set_datehb+0x298>)
 8001b7a:	78da      	ldrb	r2, [r3, #3]
 8001b7c:	4b9b      	ldr	r3, [pc, #620]	; (8001dec <_Z18submenu_2_set_datehb+0x29c>)
 8001b7e:	70da      	strb	r2, [r3, #3]
		data_to_RTC.date = data_from_RTC.date;
 8001b80:	4b99      	ldr	r3, [pc, #612]	; (8001de8 <_Z18submenu_2_set_datehb+0x298>)
 8001b82:	791a      	ldrb	r2, [r3, #4]
 8001b84:	4b99      	ldr	r3, [pc, #612]	; (8001dec <_Z18submenu_2_set_datehb+0x29c>)
 8001b86:	711a      	strb	r2, [r3, #4]
		data_to_RTC.month = data_from_RTC.month;
 8001b88:	4b97      	ldr	r3, [pc, #604]	; (8001de8 <_Z18submenu_2_set_datehb+0x298>)
 8001b8a:	795a      	ldrb	r2, [r3, #5]
 8001b8c:	4b97      	ldr	r3, [pc, #604]	; (8001dec <_Z18submenu_2_set_datehb+0x29c>)
 8001b8e:	715a      	strb	r2, [r3, #5]
		data_to_RTC.year = data_from_RTC.year;
 8001b90:	4b95      	ldr	r3, [pc, #596]	; (8001de8 <_Z18submenu_2_set_datehb+0x298>)
 8001b92:	88da      	ldrh	r2, [r3, #6]
 8001b94:	4b95      	ldr	r3, [pc, #596]	; (8001dec <_Z18submenu_2_set_datehb+0x29c>)
 8001b96:	80da      	strh	r2, [r3, #6]
		blink_state = false;
 8001b98:	4b95      	ldr	r3, [pc, #596]	; (8001df0 <_Z18submenu_2_set_datehb+0x2a0>)
 8001b9a:	2200      	movs	r2, #0
 8001b9c:	701a      	strb	r2, [r3, #0]
	}

	//skip setting for seconds, they can't be shown anyway
	if(local_input==0x4){
 8001b9e:	1dfb      	adds	r3, r7, #7
 8001ba0:	781b      	ldrb	r3, [r3, #0]
 8001ba2:	2b04      	cmp	r3, #4
 8001ba4:	d10b      	bne.n	8001bbe <_Z18submenu_2_set_datehb+0x6e>
		current_state++;
 8001ba6:	4b8f      	ldr	r3, [pc, #572]	; (8001de4 <_Z18submenu_2_set_datehb+0x294>)
 8001ba8:	781b      	ldrb	r3, [r3, #0]
 8001baa:	3301      	adds	r3, #1
 8001bac:	b2da      	uxtb	r2, r3
 8001bae:	4b8d      	ldr	r3, [pc, #564]	; (8001de4 <_Z18submenu_2_set_datehb+0x294>)
 8001bb0:	701a      	strb	r2, [r3, #0]
		local_input=0;
 8001bb2:	1dfb      	adds	r3, r7, #7
 8001bb4:	2200      	movs	r2, #0
 8001bb6:	701a      	strb	r2, [r3, #0]
		blink_state = false;
 8001bb8:	4b8d      	ldr	r3, [pc, #564]	; (8001df0 <_Z18submenu_2_set_datehb+0x2a0>)
 8001bba:	2200      	movs	r2, #0
 8001bbc:	701a      	strb	r2, [r3, #0]
	}

	//leave setting and safe changes - go back to menu selection
	if(current_state == 5){
 8001bbe:	4b89      	ldr	r3, [pc, #548]	; (8001de4 <_Z18submenu_2_set_datehb+0x294>)
 8001bc0:	781b      	ldrb	r3, [r3, #0]
 8001bc2:	2b05      	cmp	r3, #5
 8001bc4:	d105      	bne.n	8001bd2 <_Z18submenu_2_set_datehb+0x82>
		current_menu = 9;
 8001bc6:	4b8b      	ldr	r3, [pc, #556]	; (8001df4 <_Z18submenu_2_set_datehb+0x2a4>)
 8001bc8:	2209      	movs	r2, #9
 8001bca:	701a      	strb	r2, [r3, #0]
		data_to_RTC.new_data = 2;	//2 means new date data
 8001bcc:	4b87      	ldr	r3, [pc, #540]	; (8001dec <_Z18submenu_2_set_datehb+0x29c>)
 8001bce:	2202      	movs	r2, #2
 8001bd0:	729a      	strb	r2, [r3, #10]
		//TODO: add animation for safed data
	}

	//blink active digits
	uint16_t blink_color = 0;
 8001bd2:	210c      	movs	r1, #12
 8001bd4:	187b      	adds	r3, r7, r1
 8001bd6:	2200      	movs	r2, #0
 8001bd8:	801a      	strh	r2, [r3, #0]
	if(blink_state==true)
 8001bda:	4b85      	ldr	r3, [pc, #532]	; (8001df0 <_Z18submenu_2_set_datehb+0x2a0>)
 8001bdc:	781b      	ldrb	r3, [r3, #0]
 8001bde:	2b01      	cmp	r3, #1
 8001be0:	d103      	bne.n	8001bea <_Z18submenu_2_set_datehb+0x9a>
		blink_color = GREEN;
 8001be2:	187b      	adds	r3, r7, r1
 8001be4:	4a84      	ldr	r2, [pc, #528]	; (8001df8 <_Z18submenu_2_set_datehb+0x2a8>)
 8001be6:	801a      	strh	r2, [r3, #0]
 8001be8:	e003      	b.n	8001bf2 <_Z18submenu_2_set_datehb+0xa2>
	else
		blink_color = 0;
 8001bea:	230c      	movs	r3, #12
 8001bec:	18fb      	adds	r3, r7, r3
 8001bee:	2200      	movs	r2, #0
 8001bf0:	801a      	strh	r2, [r3, #0]

	if(current_state==1)
 8001bf2:	4b7c      	ldr	r3, [pc, #496]	; (8001de4 <_Z18submenu_2_set_datehb+0x294>)
 8001bf4:	781b      	ldrb	r3, [r3, #0]
 8001bf6:	2b01      	cmp	r3, #1
 8001bf8:	d107      	bne.n	8001c0a <_Z18submenu_2_set_datehb+0xba>
		set_color(1,blink_color,25);
 8001bfa:	230c      	movs	r3, #12
 8001bfc:	18fb      	adds	r3, r7, r3
 8001bfe:	881b      	ldrh	r3, [r3, #0]
 8001c00:	2219      	movs	r2, #25
 8001c02:	0019      	movs	r1, r3
 8001c04:	2001      	movs	r0, #1
 8001c06:	f7fe ff0d 	bl	8000a24 <_Z9set_colorhmh>
	if(current_state==2){
 8001c0a:	4b76      	ldr	r3, [pc, #472]	; (8001de4 <_Z18submenu_2_set_datehb+0x294>)
 8001c0c:	781b      	ldrb	r3, [r3, #0]
 8001c0e:	2b02      	cmp	r3, #2
 8001c10:	d10e      	bne.n	8001c30 <_Z18submenu_2_set_datehb+0xe0>
		set_color(0,blink_color,25);
 8001c12:	240c      	movs	r4, #12
 8001c14:	193b      	adds	r3, r7, r4
 8001c16:	881b      	ldrh	r3, [r3, #0]
 8001c18:	2219      	movs	r2, #25
 8001c1a:	0019      	movs	r1, r3
 8001c1c:	2000      	movs	r0, #0
 8001c1e:	f7fe ff01 	bl	8000a24 <_Z9set_colorhmh>
		set_color(1,blink_color,25);
 8001c22:	193b      	adds	r3, r7, r4
 8001c24:	881b      	ldrh	r3, [r3, #0]
 8001c26:	2219      	movs	r2, #25
 8001c28:	0019      	movs	r1, r3
 8001c2a:	2001      	movs	r0, #1
 8001c2c:	f7fe fefa 	bl	8000a24 <_Z9set_colorhmh>
	}
	if(current_state==3){
 8001c30:	4b6c      	ldr	r3, [pc, #432]	; (8001de4 <_Z18submenu_2_set_datehb+0x294>)
 8001c32:	781b      	ldrb	r3, [r3, #0]
 8001c34:	2b03      	cmp	r3, #3
 8001c36:	d10e      	bne.n	8001c56 <_Z18submenu_2_set_datehb+0x106>
		set_color(2,blink_color,25);
 8001c38:	240c      	movs	r4, #12
 8001c3a:	193b      	adds	r3, r7, r4
 8001c3c:	881b      	ldrh	r3, [r3, #0]
 8001c3e:	2219      	movs	r2, #25
 8001c40:	0019      	movs	r1, r3
 8001c42:	2002      	movs	r0, #2
 8001c44:	f7fe feee 	bl	8000a24 <_Z9set_colorhmh>
		set_color(3,blink_color,25);
 8001c48:	193b      	adds	r3, r7, r4
 8001c4a:	881b      	ldrh	r3, [r3, #0]
 8001c4c:	2219      	movs	r2, #25
 8001c4e:	0019      	movs	r1, r3
 8001c50:	2003      	movs	r0, #3
 8001c52:	f7fe fee7 	bl	8000a24 <_Z9set_colorhmh>
	}
	if(current_state==4){
 8001c56:	4b63      	ldr	r3, [pc, #396]	; (8001de4 <_Z18submenu_2_set_datehb+0x294>)
 8001c58:	781b      	ldrb	r3, [r3, #0]
 8001c5a:	2b04      	cmp	r3, #4
 8001c5c:	d11c      	bne.n	8001c98 <_Z18submenu_2_set_datehb+0x148>
		set_color(0,blink_color,25);
 8001c5e:	240c      	movs	r4, #12
 8001c60:	193b      	adds	r3, r7, r4
 8001c62:	881b      	ldrh	r3, [r3, #0]
 8001c64:	2219      	movs	r2, #25
 8001c66:	0019      	movs	r1, r3
 8001c68:	2000      	movs	r0, #0
 8001c6a:	f7fe fedb 	bl	8000a24 <_Z9set_colorhmh>
		set_color(1,blink_color,25);
 8001c6e:	193b      	adds	r3, r7, r4
 8001c70:	881b      	ldrh	r3, [r3, #0]
 8001c72:	2219      	movs	r2, #25
 8001c74:	0019      	movs	r1, r3
 8001c76:	2001      	movs	r0, #1
 8001c78:	f7fe fed4 	bl	8000a24 <_Z9set_colorhmh>
		set_color(2,blink_color,25);
 8001c7c:	193b      	adds	r3, r7, r4
 8001c7e:	881b      	ldrh	r3, [r3, #0]
 8001c80:	2219      	movs	r2, #25
 8001c82:	0019      	movs	r1, r3
 8001c84:	2002      	movs	r0, #2
 8001c86:	f7fe fecd 	bl	8000a24 <_Z9set_colorhmh>
		set_color(3,blink_color,25);
 8001c8a:	193b      	adds	r3, r7, r4
 8001c8c:	881b      	ldrh	r3, [r3, #0]
 8001c8e:	2219      	movs	r2, #25
 8001c90:	0019      	movs	r1, r3
 8001c92:	2003      	movs	r0, #3
 8001c94:	f7fe fec6 	bl	8000a24 <_Z9set_colorhmh>
	}

	if(timeout(blink_timer)==true){	//500ms loop
 8001c98:	4b58      	ldr	r3, [pc, #352]	; (8001dfc <_Z18submenu_2_set_datehb+0x2ac>)
 8001c9a:	681b      	ldr	r3, [r3, #0]
 8001c9c:	0018      	movs	r0, r3
 8001c9e:	f7ff f973 	bl	8000f88 <timeout>
 8001ca2:	0003      	movs	r3, r0
 8001ca4:	3b01      	subs	r3, #1
 8001ca6:	425a      	negs	r2, r3
 8001ca8:	4153      	adcs	r3, r2
 8001caa:	b2db      	uxtb	r3, r3
 8001cac:	2b00      	cmp	r3, #0
 8001cae:	d00e      	beq.n	8001cce <_Z18submenu_2_set_datehb+0x17e>
		blink_timer = start_timer_ms(500);
 8001cb0:	23fa      	movs	r3, #250	; 0xfa
 8001cb2:	005b      	lsls	r3, r3, #1
 8001cb4:	0018      	movs	r0, r3
 8001cb6:	f7ff f957 	bl	8000f68 <start_timer_ms>
 8001cba:	0002      	movs	r2, r0
 8001cbc:	4b4f      	ldr	r3, [pc, #316]	; (8001dfc <_Z18submenu_2_set_datehb+0x2ac>)
 8001cbe:	601a      	str	r2, [r3, #0]
		blink_state = !blink_state;
 8001cc0:	4b4b      	ldr	r3, [pc, #300]	; (8001df0 <_Z18submenu_2_set_datehb+0x2a0>)
 8001cc2:	781b      	ldrb	r3, [r3, #0]
 8001cc4:	2201      	movs	r2, #1
 8001cc6:	4053      	eors	r3, r2
 8001cc8:	b2da      	uxtb	r2, r3
 8001cca:	4b49      	ldr	r3, [pc, #292]	; (8001df0 <_Z18submenu_2_set_datehb+0x2a0>)
 8001ccc:	701a      	strb	r2, [r3, #0]
	}

	//copy time info into local variable for manipulation and checks
	switch(current_state){
 8001cce:	4b45      	ldr	r3, [pc, #276]	; (8001de4 <_Z18submenu_2_set_datehb+0x294>)
 8001cd0:	781b      	ldrb	r3, [r3, #0]
 8001cd2:	2b04      	cmp	r3, #4
 8001cd4:	d01a      	beq.n	8001d0c <_Z18submenu_2_set_datehb+0x1bc>
 8001cd6:	dc1f      	bgt.n	8001d18 <_Z18submenu_2_set_datehb+0x1c8>
 8001cd8:	2b03      	cmp	r3, #3
 8001cda:	d011      	beq.n	8001d00 <_Z18submenu_2_set_datehb+0x1b0>
 8001cdc:	dc1c      	bgt.n	8001d18 <_Z18submenu_2_set_datehb+0x1c8>
 8001cde:	2b01      	cmp	r3, #1
 8001ce0:	d002      	beq.n	8001ce8 <_Z18submenu_2_set_datehb+0x198>
 8001ce2:	2b02      	cmp	r3, #2
 8001ce4:	d006      	beq.n	8001cf4 <_Z18submenu_2_set_datehb+0x1a4>
		case 0x1: value = data_to_RTC.day; break;
		case 0x2: value = data_to_RTC.date; break;
		case 0x3: value = data_to_RTC.month; break;
		case 0x4: value = data_to_RTC.year; break;
		default: break;
 8001ce6:	e017      	b.n	8001d18 <_Z18submenu_2_set_datehb+0x1c8>
		case 0x1: value = data_to_RTC.day; break;
 8001ce8:	4b40      	ldr	r3, [pc, #256]	; (8001dec <_Z18submenu_2_set_datehb+0x29c>)
 8001cea:	78da      	ldrb	r2, [r3, #3]
 8001cec:	230e      	movs	r3, #14
 8001cee:	18fb      	adds	r3, r7, r3
 8001cf0:	801a      	strh	r2, [r3, #0]
 8001cf2:	e012      	b.n	8001d1a <_Z18submenu_2_set_datehb+0x1ca>
		case 0x2: value = data_to_RTC.date; break;
 8001cf4:	4b3d      	ldr	r3, [pc, #244]	; (8001dec <_Z18submenu_2_set_datehb+0x29c>)
 8001cf6:	791a      	ldrb	r2, [r3, #4]
 8001cf8:	230e      	movs	r3, #14
 8001cfa:	18fb      	adds	r3, r7, r3
 8001cfc:	801a      	strh	r2, [r3, #0]
 8001cfe:	e00c      	b.n	8001d1a <_Z18submenu_2_set_datehb+0x1ca>
		case 0x3: value = data_to_RTC.month; break;
 8001d00:	4b3a      	ldr	r3, [pc, #232]	; (8001dec <_Z18submenu_2_set_datehb+0x29c>)
 8001d02:	795a      	ldrb	r2, [r3, #5]
 8001d04:	230e      	movs	r3, #14
 8001d06:	18fb      	adds	r3, r7, r3
 8001d08:	801a      	strh	r2, [r3, #0]
 8001d0a:	e006      	b.n	8001d1a <_Z18submenu_2_set_datehb+0x1ca>
		case 0x4: value = data_to_RTC.year; break;
 8001d0c:	230e      	movs	r3, #14
 8001d0e:	18fb      	adds	r3, r7, r3
 8001d10:	4a36      	ldr	r2, [pc, #216]	; (8001dec <_Z18submenu_2_set_datehb+0x29c>)
 8001d12:	88d2      	ldrh	r2, [r2, #6]
 8001d14:	801a      	strh	r2, [r3, #0]
 8001d16:	e000      	b.n	8001d1a <_Z18submenu_2_set_datehb+0x1ca>
		default: break;
 8001d18:	46c0      	nop			; (mov r8, r8)
	}

	//change data according to input
	switch(local_input){
 8001d1a:	1dfb      	adds	r3, r7, #7
 8001d1c:	781b      	ldrb	r3, [r3, #0]
 8001d1e:	2b01      	cmp	r3, #1
 8001d20:	d002      	beq.n	8001d28 <_Z18submenu_2_set_datehb+0x1d8>
 8001d22:	2b02      	cmp	r3, #2
 8001d24:	d007      	beq.n	8001d36 <_Z18submenu_2_set_datehb+0x1e6>
		case 0x1:	value++;	break;
		case 0x2:	value--;	break;
		default: break;
 8001d26:	e00d      	b.n	8001d44 <_Z18submenu_2_set_datehb+0x1f4>
		case 0x1:	value++;	break;
 8001d28:	210e      	movs	r1, #14
 8001d2a:	187b      	adds	r3, r7, r1
 8001d2c:	881a      	ldrh	r2, [r3, #0]
 8001d2e:	187b      	adds	r3, r7, r1
 8001d30:	3201      	adds	r2, #1
 8001d32:	801a      	strh	r2, [r3, #0]
 8001d34:	e006      	b.n	8001d44 <_Z18submenu_2_set_datehb+0x1f4>
		case 0x2:	value--;	break;
 8001d36:	210e      	movs	r1, #14
 8001d38:	187b      	adds	r3, r7, r1
 8001d3a:	881a      	ldrh	r2, [r3, #0]
 8001d3c:	187b      	adds	r3, r7, r1
 8001d3e:	3a01      	subs	r2, #1
 8001d40:	801a      	strh	r2, [r3, #0]
 8001d42:	46c0      	nop			; (mov r8, r8)
	}

	//correction for overrunning of valid value area
	if(value==val_max[current_state-1])
 8001d44:	4b27      	ldr	r3, [pc, #156]	; (8001de4 <_Z18submenu_2_set_datehb+0x294>)
 8001d46:	781b      	ldrb	r3, [r3, #0]
 8001d48:	1e5a      	subs	r2, r3, #1
 8001d4a:	4b2d      	ldr	r3, [pc, #180]	; (8001e00 <_Z18submenu_2_set_datehb+0x2b0>)
 8001d4c:	0052      	lsls	r2, r2, #1
 8001d4e:	5ad3      	ldrh	r3, [r2, r3]
 8001d50:	210e      	movs	r1, #14
 8001d52:	187a      	adds	r2, r7, r1
 8001d54:	8812      	ldrh	r2, [r2, #0]
 8001d56:	429a      	cmp	r2, r3
 8001d58:	d108      	bne.n	8001d6c <_Z18submenu_2_set_datehb+0x21c>
		value = val_min[current_state-1]+1;
 8001d5a:	4b22      	ldr	r3, [pc, #136]	; (8001de4 <_Z18submenu_2_set_datehb+0x294>)
 8001d5c:	781b      	ldrb	r3, [r3, #0]
 8001d5e:	1e5a      	subs	r2, r3, #1
 8001d60:	4b28      	ldr	r3, [pc, #160]	; (8001e04 <_Z18submenu_2_set_datehb+0x2b4>)
 8001d62:	0052      	lsls	r2, r2, #1
 8001d64:	5ad2      	ldrh	r2, [r2, r3]
 8001d66:	187b      	adds	r3, r7, r1
 8001d68:	3201      	adds	r2, #1
 8001d6a:	801a      	strh	r2, [r3, #0]
	if(value==val_min[current_state-1])
 8001d6c:	4b1d      	ldr	r3, [pc, #116]	; (8001de4 <_Z18submenu_2_set_datehb+0x294>)
 8001d6e:	781b      	ldrb	r3, [r3, #0]
 8001d70:	1e5a      	subs	r2, r3, #1
 8001d72:	4b24      	ldr	r3, [pc, #144]	; (8001e04 <_Z18submenu_2_set_datehb+0x2b4>)
 8001d74:	0052      	lsls	r2, r2, #1
 8001d76:	5ad3      	ldrh	r3, [r2, r3]
 8001d78:	210e      	movs	r1, #14
 8001d7a:	187a      	adds	r2, r7, r1
 8001d7c:	8812      	ldrh	r2, [r2, #0]
 8001d7e:	429a      	cmp	r2, r3
 8001d80:	d108      	bne.n	8001d94 <_Z18submenu_2_set_datehb+0x244>
		value = val_max[current_state-1]-1;
 8001d82:	4b18      	ldr	r3, [pc, #96]	; (8001de4 <_Z18submenu_2_set_datehb+0x294>)
 8001d84:	781b      	ldrb	r3, [r3, #0]
 8001d86:	1e5a      	subs	r2, r3, #1
 8001d88:	4b1d      	ldr	r3, [pc, #116]	; (8001e00 <_Z18submenu_2_set_datehb+0x2b0>)
 8001d8a:	0052      	lsls	r2, r2, #1
 8001d8c:	5ad2      	ldrh	r2, [r2, r3]
 8001d8e:	187b      	adds	r3, r7, r1
 8001d90:	3a01      	subs	r2, #1
 8001d92:	801a      	strh	r2, [r3, #0]

	//write manipulated value back to time struct
	switch(current_state){
 8001d94:	4b13      	ldr	r3, [pc, #76]	; (8001de4 <_Z18submenu_2_set_datehb+0x294>)
 8001d96:	781b      	ldrb	r3, [r3, #0]
 8001d98:	2b04      	cmp	r3, #4
 8001d9a:	d01d      	beq.n	8001dd8 <_Z18submenu_2_set_datehb+0x288>
 8001d9c:	dc34      	bgt.n	8001e08 <_Z18submenu_2_set_datehb+0x2b8>
 8001d9e:	2b03      	cmp	r3, #3
 8001da0:	d013      	beq.n	8001dca <_Z18submenu_2_set_datehb+0x27a>
 8001da2:	dc31      	bgt.n	8001e08 <_Z18submenu_2_set_datehb+0x2b8>
 8001da4:	2b01      	cmp	r3, #1
 8001da6:	d002      	beq.n	8001dae <_Z18submenu_2_set_datehb+0x25e>
 8001da8:	2b02      	cmp	r3, #2
 8001daa:	d007      	beq.n	8001dbc <_Z18submenu_2_set_datehb+0x26c>
		case 0x1: data_to_RTC.day = value; break;
		case 0x2: data_to_RTC.date = value; break;
		case 0x3: data_to_RTC.month = value; break;
		case 0x4: data_to_RTC.year = value; break;
		default: break;
 8001dac:	e02c      	b.n	8001e08 <_Z18submenu_2_set_datehb+0x2b8>
		case 0x1: data_to_RTC.day = value; break;
 8001dae:	230e      	movs	r3, #14
 8001db0:	18fb      	adds	r3, r7, r3
 8001db2:	881b      	ldrh	r3, [r3, #0]
 8001db4:	b2da      	uxtb	r2, r3
 8001db6:	4b0d      	ldr	r3, [pc, #52]	; (8001dec <_Z18submenu_2_set_datehb+0x29c>)
 8001db8:	70da      	strb	r2, [r3, #3]
 8001dba:	e026      	b.n	8001e0a <_Z18submenu_2_set_datehb+0x2ba>
		case 0x2: data_to_RTC.date = value; break;
 8001dbc:	230e      	movs	r3, #14
 8001dbe:	18fb      	adds	r3, r7, r3
 8001dc0:	881b      	ldrh	r3, [r3, #0]
 8001dc2:	b2da      	uxtb	r2, r3
 8001dc4:	4b09      	ldr	r3, [pc, #36]	; (8001dec <_Z18submenu_2_set_datehb+0x29c>)
 8001dc6:	711a      	strb	r2, [r3, #4]
 8001dc8:	e01f      	b.n	8001e0a <_Z18submenu_2_set_datehb+0x2ba>
		case 0x3: data_to_RTC.month = value; break;
 8001dca:	230e      	movs	r3, #14
 8001dcc:	18fb      	adds	r3, r7, r3
 8001dce:	881b      	ldrh	r3, [r3, #0]
 8001dd0:	b2da      	uxtb	r2, r3
 8001dd2:	4b06      	ldr	r3, [pc, #24]	; (8001dec <_Z18submenu_2_set_datehb+0x29c>)
 8001dd4:	715a      	strb	r2, [r3, #5]
 8001dd6:	e018      	b.n	8001e0a <_Z18submenu_2_set_datehb+0x2ba>
		case 0x4: data_to_RTC.year = value; break;
 8001dd8:	4b04      	ldr	r3, [pc, #16]	; (8001dec <_Z18submenu_2_set_datehb+0x29c>)
 8001dda:	220e      	movs	r2, #14
 8001ddc:	18ba      	adds	r2, r7, r2
 8001dde:	8812      	ldrh	r2, [r2, #0]
 8001de0:	80da      	strh	r2, [r3, #6]
 8001de2:	e012      	b.n	8001e0a <_Z18submenu_2_set_datehb+0x2ba>
 8001de4:	20000438 	.word	0x20000438
 8001de8:	20000014 	.word	0x20000014
 8001dec:	20000020 	.word	0x20000020
 8001df0:	20000431 	.word	0x20000431
 8001df4:	20000420 	.word	0x20000420
 8001df8:	ffffff00 	.word	0xffffff00
 8001dfc:	20000434 	.word	0x20000434
 8001e00:	20000008 	.word	0x20000008
 8001e04:	20000000 	.word	0x20000000
		default: break;
 8001e08:	46c0      	nop			; (mov r8, r8)
	}

	//display output
	if(current_state == 1){	//day
 8001e0a:	4b45      	ldr	r3, [pc, #276]	; (8001f20 <_Z18submenu_2_set_datehb+0x3d0>)
 8001e0c:	781b      	ldrb	r3, [r3, #0]
 8001e0e:	2b01      	cmp	r3, #1
 8001e10:	d105      	bne.n	8001e1e <_Z18submenu_2_set_datehb+0x2ce>
		set_number(1,data_to_RTC.day);
 8001e12:	4b44      	ldr	r3, [pc, #272]	; (8001f24 <_Z18submenu_2_set_datehb+0x3d4>)
 8001e14:	78db      	ldrb	r3, [r3, #3]
 8001e16:	0019      	movs	r1, r3
 8001e18:	2001      	movs	r0, #1
 8001e1a:	f7ff f8eb 	bl	8000ff4 <_Z10set_numberhh>
	}
	if(current_state == 2 || current_state == 3){	//date+month
 8001e1e:	4b40      	ldr	r3, [pc, #256]	; (8001f20 <_Z18submenu_2_set_datehb+0x3d0>)
 8001e20:	781b      	ldrb	r3, [r3, #0]
 8001e22:	2b02      	cmp	r3, #2
 8001e24:	d003      	beq.n	8001e2e <_Z18submenu_2_set_datehb+0x2de>
 8001e26:	4b3e      	ldr	r3, [pc, #248]	; (8001f20 <_Z18submenu_2_set_datehb+0x3d0>)
 8001e28:	781b      	ldrb	r3, [r3, #0]
 8001e2a:	2b03      	cmp	r3, #3
 8001e2c:	d12f      	bne.n	8001e8e <_Z18submenu_2_set_datehb+0x33e>
		set_number(0,data_to_RTC.date/10);
 8001e2e:	4b3d      	ldr	r3, [pc, #244]	; (8001f24 <_Z18submenu_2_set_datehb+0x3d4>)
 8001e30:	791b      	ldrb	r3, [r3, #4]
 8001e32:	210a      	movs	r1, #10
 8001e34:	0018      	movs	r0, r3
 8001e36:	f7fe f967 	bl	8000108 <__udivsi3>
 8001e3a:	0003      	movs	r3, r0
 8001e3c:	b2db      	uxtb	r3, r3
 8001e3e:	0019      	movs	r1, r3
 8001e40:	2000      	movs	r0, #0
 8001e42:	f7ff f8d7 	bl	8000ff4 <_Z10set_numberhh>
		set_number(1,data_to_RTC.date%10);
 8001e46:	4b37      	ldr	r3, [pc, #220]	; (8001f24 <_Z18submenu_2_set_datehb+0x3d4>)
 8001e48:	791b      	ldrb	r3, [r3, #4]
 8001e4a:	210a      	movs	r1, #10
 8001e4c:	0018      	movs	r0, r3
 8001e4e:	f7fe f9e1 	bl	8000214 <__aeabi_uidivmod>
 8001e52:	000b      	movs	r3, r1
 8001e54:	b2db      	uxtb	r3, r3
 8001e56:	0019      	movs	r1, r3
 8001e58:	2001      	movs	r0, #1
 8001e5a:	f7ff f8cb 	bl	8000ff4 <_Z10set_numberhh>
		set_number(2,data_to_RTC.month/10);
 8001e5e:	4b31      	ldr	r3, [pc, #196]	; (8001f24 <_Z18submenu_2_set_datehb+0x3d4>)
 8001e60:	795b      	ldrb	r3, [r3, #5]
 8001e62:	210a      	movs	r1, #10
 8001e64:	0018      	movs	r0, r3
 8001e66:	f7fe f94f 	bl	8000108 <__udivsi3>
 8001e6a:	0003      	movs	r3, r0
 8001e6c:	b2db      	uxtb	r3, r3
 8001e6e:	0019      	movs	r1, r3
 8001e70:	2002      	movs	r0, #2
 8001e72:	f7ff f8bf 	bl	8000ff4 <_Z10set_numberhh>
		set_number(3,data_to_RTC.month%10);
 8001e76:	4b2b      	ldr	r3, [pc, #172]	; (8001f24 <_Z18submenu_2_set_datehb+0x3d4>)
 8001e78:	795b      	ldrb	r3, [r3, #5]
 8001e7a:	210a      	movs	r1, #10
 8001e7c:	0018      	movs	r0, r3
 8001e7e:	f7fe f9c9 	bl	8000214 <__aeabi_uidivmod>
 8001e82:	000b      	movs	r3, r1
 8001e84:	b2db      	uxtb	r3, r3
 8001e86:	0019      	movs	r1, r3
 8001e88:	2003      	movs	r0, #3
 8001e8a:	f7ff f8b3 	bl	8000ff4 <_Z10set_numberhh>
	}
	if(current_state == 4){	//year
 8001e8e:	4b24      	ldr	r3, [pc, #144]	; (8001f20 <_Z18submenu_2_set_datehb+0x3d0>)
 8001e90:	781b      	ldrb	r3, [r3, #0]
 8001e92:	2b04      	cmp	r3, #4
 8001e94:	d140      	bne.n	8001f18 <_Z18submenu_2_set_datehb+0x3c8>
		set_number(0,data_to_RTC.year/1000);
 8001e96:	4b23      	ldr	r3, [pc, #140]	; (8001f24 <_Z18submenu_2_set_datehb+0x3d4>)
 8001e98:	88db      	ldrh	r3, [r3, #6]
 8001e9a:	22fa      	movs	r2, #250	; 0xfa
 8001e9c:	0091      	lsls	r1, r2, #2
 8001e9e:	0018      	movs	r0, r3
 8001ea0:	f7fe f932 	bl	8000108 <__udivsi3>
 8001ea4:	0003      	movs	r3, r0
 8001ea6:	b29b      	uxth	r3, r3
 8001ea8:	b2db      	uxtb	r3, r3
 8001eaa:	0019      	movs	r1, r3
 8001eac:	2000      	movs	r0, #0
 8001eae:	f7ff f8a1 	bl	8000ff4 <_Z10set_numberhh>
		set_number(1,(data_to_RTC.year/100)%10);
 8001eb2:	4b1c      	ldr	r3, [pc, #112]	; (8001f24 <_Z18submenu_2_set_datehb+0x3d4>)
 8001eb4:	88db      	ldrh	r3, [r3, #6]
 8001eb6:	2164      	movs	r1, #100	; 0x64
 8001eb8:	0018      	movs	r0, r3
 8001eba:	f7fe f925 	bl	8000108 <__udivsi3>
 8001ebe:	0003      	movs	r3, r0
 8001ec0:	b29b      	uxth	r3, r3
 8001ec2:	210a      	movs	r1, #10
 8001ec4:	0018      	movs	r0, r3
 8001ec6:	f7fe f9a5 	bl	8000214 <__aeabi_uidivmod>
 8001eca:	000b      	movs	r3, r1
 8001ecc:	b29b      	uxth	r3, r3
 8001ece:	b2db      	uxtb	r3, r3
 8001ed0:	0019      	movs	r1, r3
 8001ed2:	2001      	movs	r0, #1
 8001ed4:	f7ff f88e 	bl	8000ff4 <_Z10set_numberhh>
		set_number(2,(data_to_RTC.year/10)%10);
 8001ed8:	4b12      	ldr	r3, [pc, #72]	; (8001f24 <_Z18submenu_2_set_datehb+0x3d4>)
 8001eda:	88db      	ldrh	r3, [r3, #6]
 8001edc:	210a      	movs	r1, #10
 8001ede:	0018      	movs	r0, r3
 8001ee0:	f7fe f912 	bl	8000108 <__udivsi3>
 8001ee4:	0003      	movs	r3, r0
 8001ee6:	b29b      	uxth	r3, r3
 8001ee8:	210a      	movs	r1, #10
 8001eea:	0018      	movs	r0, r3
 8001eec:	f7fe f992 	bl	8000214 <__aeabi_uidivmod>
 8001ef0:	000b      	movs	r3, r1
 8001ef2:	b29b      	uxth	r3, r3
 8001ef4:	b2db      	uxtb	r3, r3
 8001ef6:	0019      	movs	r1, r3
 8001ef8:	2002      	movs	r0, #2
 8001efa:	f7ff f87b 	bl	8000ff4 <_Z10set_numberhh>
		set_number(3,data_to_RTC.year%10);
 8001efe:	4b09      	ldr	r3, [pc, #36]	; (8001f24 <_Z18submenu_2_set_datehb+0x3d4>)
 8001f00:	88db      	ldrh	r3, [r3, #6]
 8001f02:	210a      	movs	r1, #10
 8001f04:	0018      	movs	r0, r3
 8001f06:	f7fe f985 	bl	8000214 <__aeabi_uidivmod>
 8001f0a:	000b      	movs	r3, r1
 8001f0c:	b29b      	uxth	r3, r3
 8001f0e:	b2db      	uxtb	r3, r3
 8001f10:	0019      	movs	r1, r3
 8001f12:	2003      	movs	r0, #3
 8001f14:	f7ff f86e 	bl	8000ff4 <_Z10set_numberhh>
	}
}
 8001f18:	46c0      	nop			; (mov r8, r8)
 8001f1a:	46bd      	mov	sp, r7
 8001f1c:	b005      	add	sp, #20
 8001f1e:	bd90      	pop	{r4, r7, pc}
 8001f20:	20000438 	.word	0x20000438
 8001f24:	20000020 	.word	0x20000020

08001f28 <_Z19submenu_3_set_onoffhb>:
/**
 * @brief function to set different time-zones when the clock should be acitve
 * @param: enter input info 0x1=left; 0x2=right; 0x4=press; 0x8=long press
 * @param: new_entry set true, when menu is entered through menu select
 */
void submenu_3_set_onoff(uint8_t local_input, bool new_entry){
 8001f28:	b5f0      	push	{r4, r5, r6, r7, lr}
 8001f2a:	b087      	sub	sp, #28
 8001f2c:	af00      	add	r7, sp, #0
 8001f2e:	0002      	movs	r2, r0
 8001f30:	1dfb      	adds	r3, r7, #7
 8001f32:	701a      	strb	r2, [r3, #0]
 8001f34:	1dbb      	adds	r3, r7, #6
 8001f36:	1c0a      	adds	r2, r1, #0
 8001f38:	701a      	strb	r2, [r3, #0]
	uint8_t number_value = 0;
 8001f3a:	2317      	movs	r3, #23
 8001f3c:	18fb      	adds	r3, r7, r3
 8001f3e:	2200      	movs	r2, #0
 8001f40:	701a      	strb	r2, [r3, #0]
	static uint8_t current_substate = 0;
	static uint8_t otc[8][6] = {0};	//on time copy

	//current state: 0 - 8; each state contains 6 substates: start day, end day, start time hours/minutes, endtime hours/minutes

	if(new_entry == true){
 8001f42:	1dbb      	adds	r3, r7, #6
 8001f44:	781b      	ldrb	r3, [r3, #0]
 8001f46:	2b01      	cmp	r3, #1
 8001f48:	d140      	bne.n	8001fcc <_Z19submenu_3_set_onoffhb+0xa4>
		current_state = 0;
 8001f4a:	4ba9      	ldr	r3, [pc, #676]	; (80021f0 <_Z19submenu_3_set_onoffhb+0x2c8>)
 8001f4c:	2200      	movs	r2, #0
 8001f4e:	701a      	strb	r2, [r3, #0]
		current_substate = 0;
 8001f50:	4ba8      	ldr	r3, [pc, #672]	; (80021f4 <_Z19submenu_3_set_onoffhb+0x2cc>)
 8001f52:	2200      	movs	r2, #0
 8001f54:	701a      	strb	r2, [r3, #0]
		blink_state = false;
 8001f56:	4ba8      	ldr	r3, [pc, #672]	; (80021f8 <_Z19submenu_3_set_onoffhb+0x2d0>)
 8001f58:	2200      	movs	r2, #0
 8001f5a:	701a      	strb	r2, [r3, #0]
		for(uint8_t i=0;i<8;i++){		//copy on_time to temporary register
 8001f5c:	2316      	movs	r3, #22
 8001f5e:	18fb      	adds	r3, r7, r3
 8001f60:	2200      	movs	r2, #0
 8001f62:	701a      	strb	r2, [r3, #0]
 8001f64:	e02d      	b.n	8001fc2 <_Z19submenu_3_set_onoffhb+0x9a>
			for(uint8_t j = 0; j<6; j++){
 8001f66:	2315      	movs	r3, #21
 8001f68:	18fb      	adds	r3, r7, r3
 8001f6a:	2200      	movs	r2, #0
 8001f6c:	701a      	strb	r2, [r3, #0]
 8001f6e:	e01d      	b.n	8001fac <_Z19submenu_3_set_onoffhb+0x84>
				otc[i][j] = on_time[i][j];
 8001f70:	2216      	movs	r2, #22
 8001f72:	18bb      	adds	r3, r7, r2
 8001f74:	7819      	ldrb	r1, [r3, #0]
 8001f76:	2615      	movs	r6, #21
 8001f78:	19bb      	adds	r3, r7, r6
 8001f7a:	781c      	ldrb	r4, [r3, #0]
 8001f7c:	18bb      	adds	r3, r7, r2
 8001f7e:	781a      	ldrb	r2, [r3, #0]
 8001f80:	19bb      	adds	r3, r7, r6
 8001f82:	7818      	ldrb	r0, [r3, #0]
 8001f84:	4d9d      	ldr	r5, [pc, #628]	; (80021fc <_Z19submenu_3_set_onoffhb+0x2d4>)
 8001f86:	000b      	movs	r3, r1
 8001f88:	005b      	lsls	r3, r3, #1
 8001f8a:	185b      	adds	r3, r3, r1
 8001f8c:	005b      	lsls	r3, r3, #1
 8001f8e:	18eb      	adds	r3, r5, r3
 8001f90:	5d1c      	ldrb	r4, [r3, r4]
 8001f92:	499b      	ldr	r1, [pc, #620]	; (8002200 <_Z19submenu_3_set_onoffhb+0x2d8>)
 8001f94:	0013      	movs	r3, r2
 8001f96:	005b      	lsls	r3, r3, #1
 8001f98:	189b      	adds	r3, r3, r2
 8001f9a:	005b      	lsls	r3, r3, #1
 8001f9c:	18cb      	adds	r3, r1, r3
 8001f9e:	1c22      	adds	r2, r4, #0
 8001fa0:	541a      	strb	r2, [r3, r0]
			for(uint8_t j = 0; j<6; j++){
 8001fa2:	19bb      	adds	r3, r7, r6
 8001fa4:	781a      	ldrb	r2, [r3, #0]
 8001fa6:	19bb      	adds	r3, r7, r6
 8001fa8:	3201      	adds	r2, #1
 8001faa:	701a      	strb	r2, [r3, #0]
 8001fac:	2315      	movs	r3, #21
 8001fae:	18fb      	adds	r3, r7, r3
 8001fb0:	781b      	ldrb	r3, [r3, #0]
 8001fb2:	2b05      	cmp	r3, #5
 8001fb4:	d9dc      	bls.n	8001f70 <_Z19submenu_3_set_onoffhb+0x48>
		for(uint8_t i=0;i<8;i++){		//copy on_time to temporary register
 8001fb6:	2116      	movs	r1, #22
 8001fb8:	187b      	adds	r3, r7, r1
 8001fba:	781a      	ldrb	r2, [r3, #0]
 8001fbc:	187b      	adds	r3, r7, r1
 8001fbe:	3201      	adds	r2, #1
 8001fc0:	701a      	strb	r2, [r3, #0]
 8001fc2:	2316      	movs	r3, #22
 8001fc4:	18fb      	adds	r3, r7, r3
 8001fc6:	781b      	ldrb	r3, [r3, #0]
 8001fc8:	2b07      	cmp	r3, #7
 8001fca:	d9cc      	bls.n	8001f66 <_Z19submenu_3_set_onoffhb+0x3e>
			}
		}
	}

	//handle menu control
	if(local_input == 0x4){
 8001fcc:	1dfb      	adds	r3, r7, #7
 8001fce:	781b      	ldrb	r3, [r3, #0]
 8001fd0:	2b04      	cmp	r3, #4
 8001fd2:	d150      	bne.n	8002076 <_Z19submenu_3_set_onoffhb+0x14e>
		current_substate++;
 8001fd4:	4b87      	ldr	r3, [pc, #540]	; (80021f4 <_Z19submenu_3_set_onoffhb+0x2cc>)
 8001fd6:	781b      	ldrb	r3, [r3, #0]
 8001fd8:	3301      	adds	r3, #1
 8001fda:	b2da      	uxtb	r2, r3
 8001fdc:	4b85      	ldr	r3, [pc, #532]	; (80021f4 <_Z19submenu_3_set_onoffhb+0x2cc>)
 8001fde:	701a      	strb	r2, [r3, #0]
		if(current_substate==6){
 8001fe0:	4b84      	ldr	r3, [pc, #528]	; (80021f4 <_Z19submenu_3_set_onoffhb+0x2cc>)
 8001fe2:	781b      	ldrb	r3, [r3, #0]
 8001fe4:	2b06      	cmp	r3, #6
 8001fe6:	d140      	bne.n	800206a <_Z19submenu_3_set_onoffhb+0x142>
			current_state++;
 8001fe8:	4b81      	ldr	r3, [pc, #516]	; (80021f0 <_Z19submenu_3_set_onoffhb+0x2c8>)
 8001fea:	781b      	ldrb	r3, [r3, #0]
 8001fec:	3301      	adds	r3, #1
 8001fee:	b2da      	uxtb	r2, r3
 8001ff0:	4b7f      	ldr	r3, [pc, #508]	; (80021f0 <_Z19submenu_3_set_onoffhb+0x2c8>)
 8001ff2:	701a      	strb	r2, [r3, #0]
			current_substate = 0;
 8001ff4:	4b7f      	ldr	r3, [pc, #508]	; (80021f4 <_Z19submenu_3_set_onoffhb+0x2cc>)
 8001ff6:	2200      	movs	r2, #0
 8001ff8:	701a      	strb	r2, [r3, #0]
			for(uint8_t i=0;i<8;i++){		//copy temporary data back to on_time with every time profile changed
 8001ffa:	2314      	movs	r3, #20
 8001ffc:	18fb      	adds	r3, r7, r3
 8001ffe:	2200      	movs	r2, #0
 8002000:	701a      	strb	r2, [r3, #0]
 8002002:	e02d      	b.n	8002060 <_Z19submenu_3_set_onoffhb+0x138>
				for(uint8_t j = 0; j<6; j++){
 8002004:	2313      	movs	r3, #19
 8002006:	18fb      	adds	r3, r7, r3
 8002008:	2200      	movs	r2, #0
 800200a:	701a      	strb	r2, [r3, #0]
 800200c:	e01d      	b.n	800204a <_Z19submenu_3_set_onoffhb+0x122>
					on_time[i][j] = otc[i][j];
 800200e:	2214      	movs	r2, #20
 8002010:	18bb      	adds	r3, r7, r2
 8002012:	7819      	ldrb	r1, [r3, #0]
 8002014:	2613      	movs	r6, #19
 8002016:	19bb      	adds	r3, r7, r6
 8002018:	781c      	ldrb	r4, [r3, #0]
 800201a:	18bb      	adds	r3, r7, r2
 800201c:	781a      	ldrb	r2, [r3, #0]
 800201e:	19bb      	adds	r3, r7, r6
 8002020:	7818      	ldrb	r0, [r3, #0]
 8002022:	4d77      	ldr	r5, [pc, #476]	; (8002200 <_Z19submenu_3_set_onoffhb+0x2d8>)
 8002024:	000b      	movs	r3, r1
 8002026:	005b      	lsls	r3, r3, #1
 8002028:	185b      	adds	r3, r3, r1
 800202a:	005b      	lsls	r3, r3, #1
 800202c:	18eb      	adds	r3, r5, r3
 800202e:	5d1c      	ldrb	r4, [r3, r4]
 8002030:	4972      	ldr	r1, [pc, #456]	; (80021fc <_Z19submenu_3_set_onoffhb+0x2d4>)
 8002032:	0013      	movs	r3, r2
 8002034:	005b      	lsls	r3, r3, #1
 8002036:	189b      	adds	r3, r3, r2
 8002038:	005b      	lsls	r3, r3, #1
 800203a:	18cb      	adds	r3, r1, r3
 800203c:	1c22      	adds	r2, r4, #0
 800203e:	541a      	strb	r2, [r3, r0]
				for(uint8_t j = 0; j<6; j++){
 8002040:	19bb      	adds	r3, r7, r6
 8002042:	781a      	ldrb	r2, [r3, #0]
 8002044:	19bb      	adds	r3, r7, r6
 8002046:	3201      	adds	r2, #1
 8002048:	701a      	strb	r2, [r3, #0]
 800204a:	2313      	movs	r3, #19
 800204c:	18fb      	adds	r3, r7, r3
 800204e:	781b      	ldrb	r3, [r3, #0]
 8002050:	2b05      	cmp	r3, #5
 8002052:	d9dc      	bls.n	800200e <_Z19submenu_3_set_onoffhb+0xe6>
			for(uint8_t i=0;i<8;i++){		//copy temporary data back to on_time with every time profile changed
 8002054:	2114      	movs	r1, #20
 8002056:	187b      	adds	r3, r7, r1
 8002058:	781a      	ldrb	r2, [r3, #0]
 800205a:	187b      	adds	r3, r7, r1
 800205c:	3201      	adds	r2, #1
 800205e:	701a      	strb	r2, [r3, #0]
 8002060:	2314      	movs	r3, #20
 8002062:	18fb      	adds	r3, r7, r3
 8002064:	781b      	ldrb	r3, [r3, #0]
 8002066:	2b07      	cmp	r3, #7
 8002068:	d9cc      	bls.n	8002004 <_Z19submenu_3_set_onoffhb+0xdc>
				}
			}
		}
		local_input=0;
 800206a:	1dfb      	adds	r3, r7, #7
 800206c:	2200      	movs	r2, #0
 800206e:	701a      	strb	r2, [r3, #0]
		blink_state = false;
 8002070:	4b61      	ldr	r3, [pc, #388]	; (80021f8 <_Z19submenu_3_set_onoffhb+0x2d0>)
 8002072:	2200      	movs	r2, #0
 8002074:	701a      	strb	r2, [r3, #0]
	}

	if(local_input == 0x8){	//safe made changes and leave
 8002076:	1dfb      	adds	r3, r7, #7
 8002078:	781b      	ldrb	r3, [r3, #0]
 800207a:	2b08      	cmp	r3, #8
 800207c:	d105      	bne.n	800208a <_Z19submenu_3_set_onoffhb+0x162>
		current_menu = 9;
 800207e:	4b61      	ldr	r3, [pc, #388]	; (8002204 <_Z19submenu_3_set_onoffhb+0x2dc>)
 8002080:	2209      	movs	r2, #9
 8002082:	701a      	strb	r2, [r3, #0]
		flash_write = true;
 8002084:	4b60      	ldr	r3, [pc, #384]	; (8002208 <_Z19submenu_3_set_onoffhb+0x2e0>)
 8002086:	2201      	movs	r2, #1
 8002088:	701a      	strb	r2, [r3, #0]
	}

	if(current_state == 8){
 800208a:	4b59      	ldr	r3, [pc, #356]	; (80021f0 <_Z19submenu_3_set_onoffhb+0x2c8>)
 800208c:	781b      	ldrb	r3, [r3, #0]
 800208e:	2b08      	cmp	r3, #8
 8002090:	d108      	bne.n	80020a4 <_Z19submenu_3_set_onoffhb+0x17c>
		current_state = 7;	//set state back to legal value to prevent writing in illegal memory space
 8002092:	4b57      	ldr	r3, [pc, #348]	; (80021f0 <_Z19submenu_3_set_onoffhb+0x2c8>)
 8002094:	2207      	movs	r2, #7
 8002096:	701a      	strb	r2, [r3, #0]
		current_menu = 9;
 8002098:	4b5a      	ldr	r3, [pc, #360]	; (8002204 <_Z19submenu_3_set_onoffhb+0x2dc>)
 800209a:	2209      	movs	r2, #9
 800209c:	701a      	strb	r2, [r3, #0]
		flash_write = true;
 800209e:	4b5a      	ldr	r3, [pc, #360]	; (8002208 <_Z19submenu_3_set_onoffhb+0x2e0>)
 80020a0:	2201      	movs	r2, #1
 80020a2:	701a      	strb	r2, [r3, #0]
	}

	//menu function
	number_value = otc[current_state][current_substate];
 80020a4:	4b52      	ldr	r3, [pc, #328]	; (80021f0 <_Z19submenu_3_set_onoffhb+0x2c8>)
 80020a6:	781b      	ldrb	r3, [r3, #0]
 80020a8:	0018      	movs	r0, r3
 80020aa:	4b52      	ldr	r3, [pc, #328]	; (80021f4 <_Z19submenu_3_set_onoffhb+0x2cc>)
 80020ac:	781b      	ldrb	r3, [r3, #0]
 80020ae:	001c      	movs	r4, r3
 80020b0:	2317      	movs	r3, #23
 80020b2:	18fa      	adds	r2, r7, r3
 80020b4:	4952      	ldr	r1, [pc, #328]	; (8002200 <_Z19submenu_3_set_onoffhb+0x2d8>)
 80020b6:	0003      	movs	r3, r0
 80020b8:	005b      	lsls	r3, r3, #1
 80020ba:	181b      	adds	r3, r3, r0
 80020bc:	005b      	lsls	r3, r3, #1
 80020be:	18cb      	adds	r3, r1, r3
 80020c0:	5d1b      	ldrb	r3, [r3, r4]
 80020c2:	7013      	strb	r3, [r2, #0]

	//blink active digits
	uint32_t blink_color = 0;
 80020c4:	2300      	movs	r3, #0
 80020c6:	60fb      	str	r3, [r7, #12]
	uint32_t static_color = 0;
 80020c8:	2300      	movs	r3, #0
 80020ca:	60bb      	str	r3, [r7, #8]

	if(current_substate == 0){
 80020cc:	4b49      	ldr	r3, [pc, #292]	; (80021f4 <_Z19submenu_3_set_onoffhb+0x2cc>)
 80020ce:	781b      	ldrb	r3, [r3, #0]
 80020d0:	2b00      	cmp	r3, #0
 80020d2:	d105      	bne.n	80020e0 <_Z19submenu_3_set_onoffhb+0x1b8>
		static_color = RED;
 80020d4:	23ff      	movs	r3, #255	; 0xff
 80020d6:	041b      	lsls	r3, r3, #16
 80020d8:	60bb      	str	r3, [r7, #8]
		blink_color = GREEN;
 80020da:	23ff      	movs	r3, #255	; 0xff
 80020dc:	021b      	lsls	r3, r3, #8
 80020de:	60fb      	str	r3, [r7, #12]
	}
	if(current_substate == 1){
 80020e0:	4b44      	ldr	r3, [pc, #272]	; (80021f4 <_Z19submenu_3_set_onoffhb+0x2cc>)
 80020e2:	781b      	ldrb	r3, [r3, #0]
 80020e4:	2b01      	cmp	r3, #1
 80020e6:	d106      	bne.n	80020f6 <_Z19submenu_3_set_onoffhb+0x1ce>
		static_color = GREEN;
 80020e8:	23ff      	movs	r3, #255	; 0xff
 80020ea:	021b      	lsls	r3, r3, #8
 80020ec:	60bb      	str	r3, [r7, #8]
		blink_color = RED;
 80020ee:	23ff      	movs	r3, #255	; 0xff
 80020f0:	041b      	lsls	r3, r3, #16
 80020f2:	60fb      	str	r3, [r7, #12]
 80020f4:	e016      	b.n	8002124 <_Z19submenu_3_set_onoffhb+0x1fc>
	}
	else if(current_substate == 2 || current_substate == 3){
 80020f6:	4b3f      	ldr	r3, [pc, #252]	; (80021f4 <_Z19submenu_3_set_onoffhb+0x2cc>)
 80020f8:	781b      	ldrb	r3, [r3, #0]
 80020fa:	2b02      	cmp	r3, #2
 80020fc:	d003      	beq.n	8002106 <_Z19submenu_3_set_onoffhb+0x1de>
 80020fe:	4b3d      	ldr	r3, [pc, #244]	; (80021f4 <_Z19submenu_3_set_onoffhb+0x2cc>)
 8002100:	781b      	ldrb	r3, [r3, #0]
 8002102:	2b03      	cmp	r3, #3
 8002104:	d105      	bne.n	8002112 <_Z19submenu_3_set_onoffhb+0x1ea>
		static_color = blink_color = GREEN;
 8002106:	23ff      	movs	r3, #255	; 0xff
 8002108:	021b      	lsls	r3, r3, #8
 800210a:	60fb      	str	r3, [r7, #12]
 800210c:	68fb      	ldr	r3, [r7, #12]
 800210e:	60bb      	str	r3, [r7, #8]
 8002110:	e008      	b.n	8002124 <_Z19submenu_3_set_onoffhb+0x1fc>
	}
	else if(current_substate > 3){	// current_substate == 4 || == 5
 8002112:	4b38      	ldr	r3, [pc, #224]	; (80021f4 <_Z19submenu_3_set_onoffhb+0x2cc>)
 8002114:	781b      	ldrb	r3, [r3, #0]
 8002116:	2b03      	cmp	r3, #3
 8002118:	d904      	bls.n	8002124 <_Z19submenu_3_set_onoffhb+0x1fc>
		static_color = blink_color = RED;
 800211a:	23ff      	movs	r3, #255	; 0xff
 800211c:	041b      	lsls	r3, r3, #16
 800211e:	60fb      	str	r3, [r7, #12]
 8002120:	68fb      	ldr	r3, [r7, #12]
 8002122:	60bb      	str	r3, [r7, #8]
	}

	if(blink_state==!true)
 8002124:	4b34      	ldr	r3, [pc, #208]	; (80021f8 <_Z19submenu_3_set_onoffhb+0x2d0>)
 8002126:	781b      	ldrb	r3, [r3, #0]
 8002128:	2b00      	cmp	r3, #0
 800212a:	d101      	bne.n	8002130 <_Z19submenu_3_set_onoffhb+0x208>
		blink_color = 0;
 800212c:	2300      	movs	r3, #0
 800212e:	60fb      	str	r3, [r7, #12]

	if(current_substate%2 == 0){	//when first two tubes display changed number
 8002130:	4b30      	ldr	r3, [pc, #192]	; (80021f4 <_Z19submenu_3_set_onoffhb+0x2cc>)
 8002132:	781b      	ldrb	r3, [r3, #0]
 8002134:	001a      	movs	r2, r3
 8002136:	2301      	movs	r3, #1
 8002138:	4013      	ands	r3, r2
 800213a:	d118      	bne.n	800216e <_Z19submenu_3_set_onoffhb+0x246>
		set_color(0,blink_color,25);
 800213c:	68fb      	ldr	r3, [r7, #12]
 800213e:	2219      	movs	r2, #25
 8002140:	0019      	movs	r1, r3
 8002142:	2000      	movs	r0, #0
 8002144:	f7fe fc6e 	bl	8000a24 <_Z9set_colorhmh>
		set_color(1,blink_color,25);
 8002148:	68fb      	ldr	r3, [r7, #12]
 800214a:	2219      	movs	r2, #25
 800214c:	0019      	movs	r1, r3
 800214e:	2001      	movs	r0, #1
 8002150:	f7fe fc68 	bl	8000a24 <_Z9set_colorhmh>
		set_color(2,static_color,25);
 8002154:	68bb      	ldr	r3, [r7, #8]
 8002156:	2219      	movs	r2, #25
 8002158:	0019      	movs	r1, r3
 800215a:	2002      	movs	r0, #2
 800215c:	f7fe fc62 	bl	8000a24 <_Z9set_colorhmh>
		set_color(3,static_color,25);
 8002160:	68bb      	ldr	r3, [r7, #8]
 8002162:	2219      	movs	r2, #25
 8002164:	0019      	movs	r1, r3
 8002166:	2003      	movs	r0, #3
 8002168:	f7fe fc5c 	bl	8000a24 <_Z9set_colorhmh>
 800216c:	e017      	b.n	800219e <_Z19submenu_3_set_onoffhb+0x276>
	}else{
		set_color(0,static_color,25);
 800216e:	68bb      	ldr	r3, [r7, #8]
 8002170:	2219      	movs	r2, #25
 8002172:	0019      	movs	r1, r3
 8002174:	2000      	movs	r0, #0
 8002176:	f7fe fc55 	bl	8000a24 <_Z9set_colorhmh>
		set_color(1,static_color,25);
 800217a:	68bb      	ldr	r3, [r7, #8]
 800217c:	2219      	movs	r2, #25
 800217e:	0019      	movs	r1, r3
 8002180:	2001      	movs	r0, #1
 8002182:	f7fe fc4f 	bl	8000a24 <_Z9set_colorhmh>
		set_color(2,blink_color,25);
 8002186:	68fb      	ldr	r3, [r7, #12]
 8002188:	2219      	movs	r2, #25
 800218a:	0019      	movs	r1, r3
 800218c:	2002      	movs	r0, #2
 800218e:	f7fe fc49 	bl	8000a24 <_Z9set_colorhmh>
		set_color(3,blink_color,25);
 8002192:	68fb      	ldr	r3, [r7, #12]
 8002194:	2219      	movs	r2, #25
 8002196:	0019      	movs	r1, r3
 8002198:	2003      	movs	r0, #3
 800219a:	f7fe fc43 	bl	8000a24 <_Z9set_colorhmh>
	}

	if(timeout(blink_timer)==true){	//500ms loop
 800219e:	4b1b      	ldr	r3, [pc, #108]	; (800220c <_Z19submenu_3_set_onoffhb+0x2e4>)
 80021a0:	681b      	ldr	r3, [r3, #0]
 80021a2:	0018      	movs	r0, r3
 80021a4:	f7fe fef0 	bl	8000f88 <timeout>
 80021a8:	0003      	movs	r3, r0
 80021aa:	3b01      	subs	r3, #1
 80021ac:	425a      	negs	r2, r3
 80021ae:	4153      	adcs	r3, r2
 80021b0:	b2db      	uxtb	r3, r3
 80021b2:	2b00      	cmp	r3, #0
 80021b4:	d00e      	beq.n	80021d4 <_Z19submenu_3_set_onoffhb+0x2ac>
		blink_timer = start_timer_ms(500);
 80021b6:	23fa      	movs	r3, #250	; 0xfa
 80021b8:	005b      	lsls	r3, r3, #1
 80021ba:	0018      	movs	r0, r3
 80021bc:	f7fe fed4 	bl	8000f68 <start_timer_ms>
 80021c0:	0002      	movs	r2, r0
 80021c2:	4b12      	ldr	r3, [pc, #72]	; (800220c <_Z19submenu_3_set_onoffhb+0x2e4>)
 80021c4:	601a      	str	r2, [r3, #0]
		blink_state = !blink_state;
 80021c6:	4b0c      	ldr	r3, [pc, #48]	; (80021f8 <_Z19submenu_3_set_onoffhb+0x2d0>)
 80021c8:	781b      	ldrb	r3, [r3, #0]
 80021ca:	2201      	movs	r2, #1
 80021cc:	4053      	eors	r3, r2
 80021ce:	b2da      	uxtb	r2, r3
 80021d0:	4b09      	ldr	r3, [pc, #36]	; (80021f8 <_Z19submenu_3_set_onoffhb+0x2d0>)
 80021d2:	701a      	strb	r2, [r3, #0]
	}

	//change data according to input
	switch(local_input){
 80021d4:	1dfb      	adds	r3, r7, #7
 80021d6:	781b      	ldrb	r3, [r3, #0]
 80021d8:	2b01      	cmp	r3, #1
 80021da:	d002      	beq.n	80021e2 <_Z19submenu_3_set_onoffhb+0x2ba>
 80021dc:	2b02      	cmp	r3, #2
 80021de:	d017      	beq.n	8002210 <_Z19submenu_3_set_onoffhb+0x2e8>
		case 0x1:	number_value++;	break;
		case 0x2:	number_value--;	break;
		default: break;
 80021e0:	e01d      	b.n	800221e <_Z19submenu_3_set_onoffhb+0x2f6>
		case 0x1:	number_value++;	break;
 80021e2:	2117      	movs	r1, #23
 80021e4:	187b      	adds	r3, r7, r1
 80021e6:	781a      	ldrb	r2, [r3, #0]
 80021e8:	187b      	adds	r3, r7, r1
 80021ea:	3201      	adds	r2, #1
 80021ec:	701a      	strb	r2, [r3, #0]
 80021ee:	e016      	b.n	800221e <_Z19submenu_3_set_onoffhb+0x2f6>
 80021f0:	20000440 	.word	0x20000440
 80021f4:	20000441 	.word	0x20000441
 80021f8:	20000439 	.word	0x20000439
 80021fc:	200003dc 	.word	0x200003dc
 8002200:	20000444 	.word	0x20000444
 8002204:	20000420 	.word	0x20000420
 8002208:	20000424 	.word	0x20000424
 800220c:	2000043c 	.word	0x2000043c
		case 0x2:	number_value--;	break;
 8002210:	2117      	movs	r1, #23
 8002212:	187b      	adds	r3, r7, r1
 8002214:	781a      	ldrb	r2, [r3, #0]
 8002216:	187b      	adds	r3, r7, r1
 8002218:	3a01      	subs	r2, #1
 800221a:	701a      	strb	r2, [r3, #0]
 800221c:	46c0      	nop			; (mov r8, r8)
	}

	if(current_substate == 0 || current_substate == 1){	//days
 800221e:	4b95      	ldr	r3, [pc, #596]	; (8002474 <_Z19submenu_3_set_onoffhb+0x54c>)
 8002220:	781b      	ldrb	r3, [r3, #0]
 8002222:	2b00      	cmp	r3, #0
 8002224:	d003      	beq.n	800222e <_Z19submenu_3_set_onoffhb+0x306>
 8002226:	4b93      	ldr	r3, [pc, #588]	; (8002474 <_Z19submenu_3_set_onoffhb+0x54c>)
 8002228:	781b      	ldrb	r3, [r3, #0]
 800222a:	2b01      	cmp	r3, #1
 800222c:	d10f      	bne.n	800224e <_Z19submenu_3_set_onoffhb+0x326>
		if(number_value == 0)
 800222e:	2217      	movs	r2, #23
 8002230:	18bb      	adds	r3, r7, r2
 8002232:	781b      	ldrb	r3, [r3, #0]
 8002234:	2b00      	cmp	r3, #0
 8002236:	d102      	bne.n	800223e <_Z19submenu_3_set_onoffhb+0x316>
			number_value = 7;
 8002238:	18bb      	adds	r3, r7, r2
 800223a:	2207      	movs	r2, #7
 800223c:	701a      	strb	r2, [r3, #0]
		if(number_value == 8)
 800223e:	2217      	movs	r2, #23
 8002240:	18bb      	adds	r3, r7, r2
 8002242:	781b      	ldrb	r3, [r3, #0]
 8002244:	2b08      	cmp	r3, #8
 8002246:	d102      	bne.n	800224e <_Z19submenu_3_set_onoffhb+0x326>
			number_value = 1;
 8002248:	18bb      	adds	r3, r7, r2
 800224a:	2201      	movs	r2, #1
 800224c:	701a      	strb	r2, [r3, #0]
	}
	if(current_substate == 2 || current_substate == 4){ //hours
 800224e:	4b89      	ldr	r3, [pc, #548]	; (8002474 <_Z19submenu_3_set_onoffhb+0x54c>)
 8002250:	781b      	ldrb	r3, [r3, #0]
 8002252:	2b02      	cmp	r3, #2
 8002254:	d003      	beq.n	800225e <_Z19submenu_3_set_onoffhb+0x336>
 8002256:	4b87      	ldr	r3, [pc, #540]	; (8002474 <_Z19submenu_3_set_onoffhb+0x54c>)
 8002258:	781b      	ldrb	r3, [r3, #0]
 800225a:	2b04      	cmp	r3, #4
 800225c:	d10f      	bne.n	800227e <_Z19submenu_3_set_onoffhb+0x356>
		if(number_value == 255)
 800225e:	2217      	movs	r2, #23
 8002260:	18bb      	adds	r3, r7, r2
 8002262:	781b      	ldrb	r3, [r3, #0]
 8002264:	2bff      	cmp	r3, #255	; 0xff
 8002266:	d102      	bne.n	800226e <_Z19submenu_3_set_onoffhb+0x346>
			number_value = 23;
 8002268:	18bb      	adds	r3, r7, r2
 800226a:	2217      	movs	r2, #23
 800226c:	701a      	strb	r2, [r3, #0]
		if(number_value == 24)
 800226e:	2217      	movs	r2, #23
 8002270:	18bb      	adds	r3, r7, r2
 8002272:	781b      	ldrb	r3, [r3, #0]
 8002274:	2b18      	cmp	r3, #24
 8002276:	d102      	bne.n	800227e <_Z19submenu_3_set_onoffhb+0x356>
			number_value = 0;
 8002278:	18bb      	adds	r3, r7, r2
 800227a:	2200      	movs	r2, #0
 800227c:	701a      	strb	r2, [r3, #0]
	}
	if(current_substate == 3 || current_substate == 5){ //minutes
 800227e:	4b7d      	ldr	r3, [pc, #500]	; (8002474 <_Z19submenu_3_set_onoffhb+0x54c>)
 8002280:	781b      	ldrb	r3, [r3, #0]
 8002282:	2b03      	cmp	r3, #3
 8002284:	d003      	beq.n	800228e <_Z19submenu_3_set_onoffhb+0x366>
 8002286:	4b7b      	ldr	r3, [pc, #492]	; (8002474 <_Z19submenu_3_set_onoffhb+0x54c>)
 8002288:	781b      	ldrb	r3, [r3, #0]
 800228a:	2b05      	cmp	r3, #5
 800228c:	d10f      	bne.n	80022ae <_Z19submenu_3_set_onoffhb+0x386>
		if(number_value == 255)
 800228e:	2217      	movs	r2, #23
 8002290:	18bb      	adds	r3, r7, r2
 8002292:	781b      	ldrb	r3, [r3, #0]
 8002294:	2bff      	cmp	r3, #255	; 0xff
 8002296:	d102      	bne.n	800229e <_Z19submenu_3_set_onoffhb+0x376>
			number_value = 59;
 8002298:	18bb      	adds	r3, r7, r2
 800229a:	223b      	movs	r2, #59	; 0x3b
 800229c:	701a      	strb	r2, [r3, #0]
		if(number_value == 60)
 800229e:	2217      	movs	r2, #23
 80022a0:	18bb      	adds	r3, r7, r2
 80022a2:	781b      	ldrb	r3, [r3, #0]
 80022a4:	2b3c      	cmp	r3, #60	; 0x3c
 80022a6:	d102      	bne.n	80022ae <_Z19submenu_3_set_onoffhb+0x386>
			number_value = 0;
 80022a8:	18bb      	adds	r3, r7, r2
 80022aa:	2200      	movs	r2, #0
 80022ac:	701a      	strb	r2, [r3, #0]
	}

	otc[current_state][current_substate] = number_value;
 80022ae:	4b72      	ldr	r3, [pc, #456]	; (8002478 <_Z19submenu_3_set_onoffhb+0x550>)
 80022b0:	781b      	ldrb	r3, [r3, #0]
 80022b2:	0019      	movs	r1, r3
 80022b4:	4b6f      	ldr	r3, [pc, #444]	; (8002474 <_Z19submenu_3_set_onoffhb+0x54c>)
 80022b6:	781b      	ldrb	r3, [r3, #0]
 80022b8:	0018      	movs	r0, r3
 80022ba:	4a70      	ldr	r2, [pc, #448]	; (800247c <_Z19submenu_3_set_onoffhb+0x554>)
 80022bc:	000b      	movs	r3, r1
 80022be:	005b      	lsls	r3, r3, #1
 80022c0:	185b      	adds	r3, r3, r1
 80022c2:	005b      	lsls	r3, r3, #1
 80022c4:	18d3      	adds	r3, r2, r3
 80022c6:	2117      	movs	r1, #23
 80022c8:	187a      	adds	r2, r7, r1
 80022ca:	7812      	ldrb	r2, [r2, #0]
 80022cc:	541a      	strb	r2, [r3, r0]

	//display output
	if(current_substate == 0){
 80022ce:	4b69      	ldr	r3, [pc, #420]	; (8002474 <_Z19submenu_3_set_onoffhb+0x54c>)
 80022d0:	781b      	ldrb	r3, [r3, #0]
 80022d2:	2b00      	cmp	r3, #0
 80022d4:	d114      	bne.n	8002300 <_Z19submenu_3_set_onoffhb+0x3d8>
		set_number(1, number_value);
 80022d6:	187b      	adds	r3, r7, r1
 80022d8:	781b      	ldrb	r3, [r3, #0]
 80022da:	0019      	movs	r1, r3
 80022dc:	2001      	movs	r0, #1
 80022de:	f7fe fe89 	bl	8000ff4 <_Z10set_numberhh>
		set_number(3, otc[current_state][1]);
 80022e2:	4b65      	ldr	r3, [pc, #404]	; (8002478 <_Z19submenu_3_set_onoffhb+0x550>)
 80022e4:	781b      	ldrb	r3, [r3, #0]
 80022e6:	0019      	movs	r1, r3
 80022e8:	4a64      	ldr	r2, [pc, #400]	; (800247c <_Z19submenu_3_set_onoffhb+0x554>)
 80022ea:	000b      	movs	r3, r1
 80022ec:	005b      	lsls	r3, r3, #1
 80022ee:	185b      	adds	r3, r3, r1
 80022f0:	005b      	lsls	r3, r3, #1
 80022f2:	18d3      	adds	r3, r2, r3
 80022f4:	3301      	adds	r3, #1
 80022f6:	781b      	ldrb	r3, [r3, #0]
 80022f8:	0019      	movs	r1, r3
 80022fa:	2003      	movs	r0, #3
 80022fc:	f7fe fe7a 	bl	8000ff4 <_Z10set_numberhh>
	}
	if(current_substate == 1){
 8002300:	4b5c      	ldr	r3, [pc, #368]	; (8002474 <_Z19submenu_3_set_onoffhb+0x54c>)
 8002302:	781b      	ldrb	r3, [r3, #0]
 8002304:	2b01      	cmp	r3, #1
 8002306:	d113      	bne.n	8002330 <_Z19submenu_3_set_onoffhb+0x408>
		set_number(1, otc[current_state][0]);
 8002308:	4b5b      	ldr	r3, [pc, #364]	; (8002478 <_Z19submenu_3_set_onoffhb+0x550>)
 800230a:	781b      	ldrb	r3, [r3, #0]
 800230c:	0019      	movs	r1, r3
 800230e:	4a5b      	ldr	r2, [pc, #364]	; (800247c <_Z19submenu_3_set_onoffhb+0x554>)
 8002310:	000b      	movs	r3, r1
 8002312:	005b      	lsls	r3, r3, #1
 8002314:	185b      	adds	r3, r3, r1
 8002316:	005b      	lsls	r3, r3, #1
 8002318:	5c9b      	ldrb	r3, [r3, r2]
 800231a:	0019      	movs	r1, r3
 800231c:	2001      	movs	r0, #1
 800231e:	f7fe fe69 	bl	8000ff4 <_Z10set_numberhh>
		set_number(3, number_value);
 8002322:	2317      	movs	r3, #23
 8002324:	18fb      	adds	r3, r7, r3
 8002326:	781b      	ldrb	r3, [r3, #0]
 8002328:	0019      	movs	r1, r3
 800232a:	2003      	movs	r0, #3
 800232c:	f7fe fe62 	bl	8000ff4 <_Z10set_numberhh>
	}
	if(current_substate == 2 || current_substate == 4){
 8002330:	4b50      	ldr	r3, [pc, #320]	; (8002474 <_Z19submenu_3_set_onoffhb+0x54c>)
 8002332:	781b      	ldrb	r3, [r3, #0]
 8002334:	2b02      	cmp	r3, #2
 8002336:	d003      	beq.n	8002340 <_Z19submenu_3_set_onoffhb+0x418>
 8002338:	4b4e      	ldr	r3, [pc, #312]	; (8002474 <_Z19submenu_3_set_onoffhb+0x54c>)
 800233a:	781b      	ldrb	r3, [r3, #0]
 800233c:	2b04      	cmp	r3, #4
 800233e:	d146      	bne.n	80023ce <_Z19submenu_3_set_onoffhb+0x4a6>
		set_number(0, number_value/10);
 8002340:	2417      	movs	r4, #23
 8002342:	193b      	adds	r3, r7, r4
 8002344:	781b      	ldrb	r3, [r3, #0]
 8002346:	210a      	movs	r1, #10
 8002348:	0018      	movs	r0, r3
 800234a:	f7fd fedd 	bl	8000108 <__udivsi3>
 800234e:	0003      	movs	r3, r0
 8002350:	b2db      	uxtb	r3, r3
 8002352:	0019      	movs	r1, r3
 8002354:	2000      	movs	r0, #0
 8002356:	f7fe fe4d 	bl	8000ff4 <_Z10set_numberhh>
		set_number(1, number_value%10);
 800235a:	193b      	adds	r3, r7, r4
 800235c:	781b      	ldrb	r3, [r3, #0]
 800235e:	210a      	movs	r1, #10
 8002360:	0018      	movs	r0, r3
 8002362:	f7fd ff57 	bl	8000214 <__aeabi_uidivmod>
 8002366:	000b      	movs	r3, r1
 8002368:	b2db      	uxtb	r3, r3
 800236a:	0019      	movs	r1, r3
 800236c:	2001      	movs	r0, #1
 800236e:	f7fe fe41 	bl	8000ff4 <_Z10set_numberhh>
		set_number(2, otc[current_state][current_substate+1]/10);
 8002372:	4b41      	ldr	r3, [pc, #260]	; (8002478 <_Z19submenu_3_set_onoffhb+0x550>)
 8002374:	781b      	ldrb	r3, [r3, #0]
 8002376:	0018      	movs	r0, r3
 8002378:	4b3e      	ldr	r3, [pc, #248]	; (8002474 <_Z19submenu_3_set_onoffhb+0x54c>)
 800237a:	781b      	ldrb	r3, [r3, #0]
 800237c:	1c5a      	adds	r2, r3, #1
 800237e:	493f      	ldr	r1, [pc, #252]	; (800247c <_Z19submenu_3_set_onoffhb+0x554>)
 8002380:	0003      	movs	r3, r0
 8002382:	005b      	lsls	r3, r3, #1
 8002384:	181b      	adds	r3, r3, r0
 8002386:	005b      	lsls	r3, r3, #1
 8002388:	18cb      	adds	r3, r1, r3
 800238a:	5c9b      	ldrb	r3, [r3, r2]
 800238c:	210a      	movs	r1, #10
 800238e:	0018      	movs	r0, r3
 8002390:	f7fd feba 	bl	8000108 <__udivsi3>
 8002394:	0003      	movs	r3, r0
 8002396:	b2db      	uxtb	r3, r3
 8002398:	0019      	movs	r1, r3
 800239a:	2002      	movs	r0, #2
 800239c:	f7fe fe2a 	bl	8000ff4 <_Z10set_numberhh>
		set_number(3, otc[current_state][current_substate+1]%10);
 80023a0:	4b35      	ldr	r3, [pc, #212]	; (8002478 <_Z19submenu_3_set_onoffhb+0x550>)
 80023a2:	781b      	ldrb	r3, [r3, #0]
 80023a4:	0018      	movs	r0, r3
 80023a6:	4b33      	ldr	r3, [pc, #204]	; (8002474 <_Z19submenu_3_set_onoffhb+0x54c>)
 80023a8:	781b      	ldrb	r3, [r3, #0]
 80023aa:	1c5a      	adds	r2, r3, #1
 80023ac:	4933      	ldr	r1, [pc, #204]	; (800247c <_Z19submenu_3_set_onoffhb+0x554>)
 80023ae:	0003      	movs	r3, r0
 80023b0:	005b      	lsls	r3, r3, #1
 80023b2:	181b      	adds	r3, r3, r0
 80023b4:	005b      	lsls	r3, r3, #1
 80023b6:	18cb      	adds	r3, r1, r3
 80023b8:	5c9b      	ldrb	r3, [r3, r2]
 80023ba:	210a      	movs	r1, #10
 80023bc:	0018      	movs	r0, r3
 80023be:	f7fd ff29 	bl	8000214 <__aeabi_uidivmod>
 80023c2:	000b      	movs	r3, r1
 80023c4:	b2db      	uxtb	r3, r3
 80023c6:	0019      	movs	r1, r3
 80023c8:	2003      	movs	r0, #3
 80023ca:	f7fe fe13 	bl	8000ff4 <_Z10set_numberhh>

	}
	if(current_substate == 3 || current_substate == 5){
 80023ce:	4b29      	ldr	r3, [pc, #164]	; (8002474 <_Z19submenu_3_set_onoffhb+0x54c>)
 80023d0:	781b      	ldrb	r3, [r3, #0]
 80023d2:	2b03      	cmp	r3, #3
 80023d4:	d003      	beq.n	80023de <_Z19submenu_3_set_onoffhb+0x4b6>
 80023d6:	4b27      	ldr	r3, [pc, #156]	; (8002474 <_Z19submenu_3_set_onoffhb+0x54c>)
 80023d8:	781b      	ldrb	r3, [r3, #0]
 80023da:	2b05      	cmp	r3, #5
 80023dc:	d146      	bne.n	800246c <_Z19submenu_3_set_onoffhb+0x544>
		set_number(0, otc[current_state][current_substate-1]/10);
 80023de:	4b26      	ldr	r3, [pc, #152]	; (8002478 <_Z19submenu_3_set_onoffhb+0x550>)
 80023e0:	781b      	ldrb	r3, [r3, #0]
 80023e2:	0018      	movs	r0, r3
 80023e4:	4b23      	ldr	r3, [pc, #140]	; (8002474 <_Z19submenu_3_set_onoffhb+0x54c>)
 80023e6:	781b      	ldrb	r3, [r3, #0]
 80023e8:	1e5a      	subs	r2, r3, #1
 80023ea:	4924      	ldr	r1, [pc, #144]	; (800247c <_Z19submenu_3_set_onoffhb+0x554>)
 80023ec:	0003      	movs	r3, r0
 80023ee:	005b      	lsls	r3, r3, #1
 80023f0:	181b      	adds	r3, r3, r0
 80023f2:	005b      	lsls	r3, r3, #1
 80023f4:	18cb      	adds	r3, r1, r3
 80023f6:	5c9b      	ldrb	r3, [r3, r2]
 80023f8:	210a      	movs	r1, #10
 80023fa:	0018      	movs	r0, r3
 80023fc:	f7fd fe84 	bl	8000108 <__udivsi3>
 8002400:	0003      	movs	r3, r0
 8002402:	b2db      	uxtb	r3, r3
 8002404:	0019      	movs	r1, r3
 8002406:	2000      	movs	r0, #0
 8002408:	f7fe fdf4 	bl	8000ff4 <_Z10set_numberhh>
		set_number(1, otc[current_state][current_substate-1]%10);
 800240c:	4b1a      	ldr	r3, [pc, #104]	; (8002478 <_Z19submenu_3_set_onoffhb+0x550>)
 800240e:	781b      	ldrb	r3, [r3, #0]
 8002410:	0018      	movs	r0, r3
 8002412:	4b18      	ldr	r3, [pc, #96]	; (8002474 <_Z19submenu_3_set_onoffhb+0x54c>)
 8002414:	781b      	ldrb	r3, [r3, #0]
 8002416:	1e5a      	subs	r2, r3, #1
 8002418:	4918      	ldr	r1, [pc, #96]	; (800247c <_Z19submenu_3_set_onoffhb+0x554>)
 800241a:	0003      	movs	r3, r0
 800241c:	005b      	lsls	r3, r3, #1
 800241e:	181b      	adds	r3, r3, r0
 8002420:	005b      	lsls	r3, r3, #1
 8002422:	18cb      	adds	r3, r1, r3
 8002424:	5c9b      	ldrb	r3, [r3, r2]
 8002426:	210a      	movs	r1, #10
 8002428:	0018      	movs	r0, r3
 800242a:	f7fd fef3 	bl	8000214 <__aeabi_uidivmod>
 800242e:	000b      	movs	r3, r1
 8002430:	b2db      	uxtb	r3, r3
 8002432:	0019      	movs	r1, r3
 8002434:	2001      	movs	r0, #1
 8002436:	f7fe fddd 	bl	8000ff4 <_Z10set_numberhh>
		set_number(2, number_value/10);
 800243a:	2417      	movs	r4, #23
 800243c:	193b      	adds	r3, r7, r4
 800243e:	781b      	ldrb	r3, [r3, #0]
 8002440:	210a      	movs	r1, #10
 8002442:	0018      	movs	r0, r3
 8002444:	f7fd fe60 	bl	8000108 <__udivsi3>
 8002448:	0003      	movs	r3, r0
 800244a:	b2db      	uxtb	r3, r3
 800244c:	0019      	movs	r1, r3
 800244e:	2002      	movs	r0, #2
 8002450:	f7fe fdd0 	bl	8000ff4 <_Z10set_numberhh>
		set_number(3, number_value%10);
 8002454:	193b      	adds	r3, r7, r4
 8002456:	781b      	ldrb	r3, [r3, #0]
 8002458:	210a      	movs	r1, #10
 800245a:	0018      	movs	r0, r3
 800245c:	f7fd feda 	bl	8000214 <__aeabi_uidivmod>
 8002460:	000b      	movs	r3, r1
 8002462:	b2db      	uxtb	r3, r3
 8002464:	0019      	movs	r1, r3
 8002466:	2003      	movs	r0, #3
 8002468:	f7fe fdc4 	bl	8000ff4 <_Z10set_numberhh>
	}
}
 800246c:	46c0      	nop			; (mov r8, r8)
 800246e:	46bd      	mov	sp, r7
 8002470:	b007      	add	sp, #28
 8002472:	bdf0      	pop	{r4, r5, r6, r7, pc}
 8002474:	20000441 	.word	0x20000441
 8002478:	20000440 	.word	0x20000440
 800247c:	20000444 	.word	0x20000444

08002480 <_Z23submenu_4_set_led_colorhb>:
 * @brief: function to select which led color should be displayed beneath the tubes
 * @info: when entering, show already selected color
 * @param: local_input: input info: 0x1=left; 0x2=right; 0x4=press; 0x8=long press
 * @param: new_entry: true = first entry, reset all variables, false = do nothing
 */
void submenu_4_set_led_color(uint8_t local_input, bool new_entry){
 8002480:	b580      	push	{r7, lr}
 8002482:	b084      	sub	sp, #16
 8002484:	af00      	add	r7, sp, #0
 8002486:	0002      	movs	r2, r0
 8002488:	1dfb      	adds	r3, r7, #7
 800248a:	701a      	strb	r2, [r3, #0]
 800248c:	1dbb      	adds	r3, r7, #6
 800248e:	1c0a      	adds	r2, r1, #0
 8002490:	701a      	strb	r2, [r3, #0]
	//when we enter current state 2, we save led data and load brightness data into that variable
	//since we only have two activations of the local_imput==0x4 loop, and the second entry is meaningless, this works :D


	// load temporary values and reset state on new entry
	if(new_entry){
 8002492:	1dbb      	adds	r3, r7, #6
 8002494:	781b      	ldrb	r3, [r3, #0]
 8002496:	2b00      	cmp	r3, #0
 8002498:	d006      	beq.n	80024a8 <_Z23submenu_4_set_led_colorhb+0x28>
		current_state = 1;						//0 - 3
 800249a:	4b4d      	ldr	r3, [pc, #308]	; (80025d0 <_Z23submenu_4_set_led_colorhb+0x150>)
 800249c:	2201      	movs	r2, #1
 800249e:	701a      	strb	r2, [r3, #0]
		changing_value = misc_setting[0];		//now holds LED data: 0 - 13
 80024a0:	4b4c      	ldr	r3, [pc, #304]	; (80025d4 <_Z23submenu_4_set_led_colorhb+0x154>)
 80024a2:	781a      	ldrb	r2, [r3, #0]
 80024a4:	4b4c      	ldr	r3, [pc, #304]	; (80025d8 <_Z23submenu_4_set_led_colorhb+0x158>)
 80024a6:	701a      	strb	r2, [r3, #0]
	}

	//go to next step in setting
	if(local_input==0x4){
 80024a8:	1dfb      	adds	r3, r7, #7
 80024aa:	781b      	ldrb	r3, [r3, #0]
 80024ac:	2b04      	cmp	r3, #4
 80024ae:	d114      	bne.n	80024da <_Z23submenu_4_set_led_colorhb+0x5a>
		if(current_state == 1){
 80024b0:	4b47      	ldr	r3, [pc, #284]	; (80025d0 <_Z23submenu_4_set_led_colorhb+0x150>)
 80024b2:	781b      	ldrb	r3, [r3, #0]
 80024b4:	2b01      	cmp	r3, #1
 80024b6:	d107      	bne.n	80024c8 <_Z23submenu_4_set_led_colorhb+0x48>
			misc_setting[0] = changing_value;
 80024b8:	4b47      	ldr	r3, [pc, #284]	; (80025d8 <_Z23submenu_4_set_led_colorhb+0x158>)
 80024ba:	781a      	ldrb	r2, [r3, #0]
 80024bc:	4b45      	ldr	r3, [pc, #276]	; (80025d4 <_Z23submenu_4_set_led_colorhb+0x154>)
 80024be:	701a      	strb	r2, [r3, #0]
			changing_value = misc_setting[1];	//now holds brightness data: 10 - 100
 80024c0:	4b44      	ldr	r3, [pc, #272]	; (80025d4 <_Z23submenu_4_set_led_colorhb+0x154>)
 80024c2:	785a      	ldrb	r2, [r3, #1]
 80024c4:	4b44      	ldr	r3, [pc, #272]	; (80025d8 <_Z23submenu_4_set_led_colorhb+0x158>)
 80024c6:	701a      	strb	r2, [r3, #0]
		}
		current_state++;
 80024c8:	4b41      	ldr	r3, [pc, #260]	; (80025d0 <_Z23submenu_4_set_led_colorhb+0x150>)
 80024ca:	781b      	ldrb	r3, [r3, #0]
 80024cc:	3301      	adds	r3, #1
 80024ce:	b2da      	uxtb	r2, r3
 80024d0:	4b3f      	ldr	r3, [pc, #252]	; (80025d0 <_Z23submenu_4_set_led_colorhb+0x150>)
 80024d2:	701a      	strb	r2, [r3, #0]
		local_input=0;
 80024d4:	1dfb      	adds	r3, r7, #7
 80024d6:	2200      	movs	r2, #0
 80024d8:	701a      	strb	r2, [r3, #0]
	}

	//leave setting and safe changes - go back to menu selection
	if(current_state == 3){
 80024da:	4b3d      	ldr	r3, [pc, #244]	; (80025d0 <_Z23submenu_4_set_led_colorhb+0x150>)
 80024dc:	781b      	ldrb	r3, [r3, #0]
 80024de:	2b03      	cmp	r3, #3
 80024e0:	d106      	bne.n	80024f0 <_Z23submenu_4_set_led_colorhb+0x70>
		misc_setting[1] = changing_value;
 80024e2:	4b3d      	ldr	r3, [pc, #244]	; (80025d8 <_Z23submenu_4_set_led_colorhb+0x158>)
 80024e4:	781a      	ldrb	r2, [r3, #0]
 80024e6:	4b3b      	ldr	r3, [pc, #236]	; (80025d4 <_Z23submenu_4_set_led_colorhb+0x154>)
 80024e8:	705a      	strb	r2, [r3, #1]
		flash_write == true;
		current_menu = 9;
 80024ea:	4b3c      	ldr	r3, [pc, #240]	; (80025dc <_Z23submenu_4_set_led_colorhb+0x15c>)
 80024ec:	2209      	movs	r2, #9
 80024ee:	701a      	strb	r2, [r3, #0]
	}

	if(local_input == 0x1)
 80024f0:	1dfb      	adds	r3, r7, #7
 80024f2:	781b      	ldrb	r3, [r3, #0]
 80024f4:	2b01      	cmp	r3, #1
 80024f6:	d105      	bne.n	8002504 <_Z23submenu_4_set_led_colorhb+0x84>
		changing_value++;
 80024f8:	4b37      	ldr	r3, [pc, #220]	; (80025d8 <_Z23submenu_4_set_led_colorhb+0x158>)
 80024fa:	781b      	ldrb	r3, [r3, #0]
 80024fc:	3301      	adds	r3, #1
 80024fe:	b2da      	uxtb	r2, r3
 8002500:	4b35      	ldr	r3, [pc, #212]	; (80025d8 <_Z23submenu_4_set_led_colorhb+0x158>)
 8002502:	701a      	strb	r2, [r3, #0]
	if(local_input == 0x2)
 8002504:	1dfb      	adds	r3, r7, #7
 8002506:	781b      	ldrb	r3, [r3, #0]
 8002508:	2b02      	cmp	r3, #2
 800250a:	d105      	bne.n	8002518 <_Z23submenu_4_set_led_colorhb+0x98>
		changing_value--;
 800250c:	4b32      	ldr	r3, [pc, #200]	; (80025d8 <_Z23submenu_4_set_led_colorhb+0x158>)
 800250e:	781b      	ldrb	r3, [r3, #0]
 8002510:	3b01      	subs	r3, #1
 8002512:	b2da      	uxtb	r2, r3
 8002514:	4b30      	ldr	r3, [pc, #192]	; (80025d8 <_Z23submenu_4_set_led_colorhb+0x158>)
 8002516:	701a      	strb	r2, [r3, #0]

	//convert number of color to actual hex value for color

	uint32_t displayed_color = 0;
 8002518:	2300      	movs	r3, #0
 800251a:	60bb      	str	r3, [r7, #8]

	//Display color and brightness as well as setting number
	for(uint8_t i=0; 0<board_size; i++)	{		//board size 4 or 6
 800251c:	230f      	movs	r3, #15
 800251e:	18fb      	adds	r3, r7, r3
 8002520:	2200      	movs	r2, #0
 8002522:	701a      	strb	r2, [r3, #0]
 8002524:	e01f      	b.n	8002566 <_Z23submenu_4_set_led_colorhb+0xe6>
		if(current_state == 1)
 8002526:	4b2a      	ldr	r3, [pc, #168]	; (80025d0 <_Z23submenu_4_set_led_colorhb+0x150>)
 8002528:	781b      	ldrb	r3, [r3, #0]
 800252a:	2b01      	cmp	r3, #1
 800252c:	d108      	bne.n	8002540 <_Z23submenu_4_set_led_colorhb+0xc0>
			set_color(i, displayed_color, misc_setting[1]);
 800252e:	4b29      	ldr	r3, [pc, #164]	; (80025d4 <_Z23submenu_4_set_led_colorhb+0x154>)
 8002530:	785a      	ldrb	r2, [r3, #1]
 8002532:	68b9      	ldr	r1, [r7, #8]
 8002534:	230f      	movs	r3, #15
 8002536:	18fb      	adds	r3, r7, r3
 8002538:	781b      	ldrb	r3, [r3, #0]
 800253a:	0018      	movs	r0, r3
 800253c:	f7fe fa72 	bl	8000a24 <_Z9set_colorhmh>
		if(current_state == 2)
 8002540:	4b23      	ldr	r3, [pc, #140]	; (80025d0 <_Z23submenu_4_set_led_colorhb+0x150>)
 8002542:	781b      	ldrb	r3, [r3, #0]
 8002544:	2b02      	cmp	r3, #2
 8002546:	d108      	bne.n	800255a <_Z23submenu_4_set_led_colorhb+0xda>
			set_color(i, displayed_color, changing_value);
 8002548:	4b23      	ldr	r3, [pc, #140]	; (80025d8 <_Z23submenu_4_set_led_colorhb+0x158>)
 800254a:	781a      	ldrb	r2, [r3, #0]
 800254c:	68b9      	ldr	r1, [r7, #8]
 800254e:	230f      	movs	r3, #15
 8002550:	18fb      	adds	r3, r7, r3
 8002552:	781b      	ldrb	r3, [r3, #0]
 8002554:	0018      	movs	r0, r3
 8002556:	f7fe fa65 	bl	8000a24 <_Z9set_colorhmh>
	for(uint8_t i=0; 0<board_size; i++)	{		//board size 4 or 6
 800255a:	210f      	movs	r1, #15
 800255c:	187b      	adds	r3, r7, r1
 800255e:	781a      	ldrb	r2, [r3, #0]
 8002560:	187b      	adds	r3, r7, r1
 8002562:	3201      	adds	r2, #1
 8002564:	701a      	strb	r2, [r3, #0]
 8002566:	4b1e      	ldr	r3, [pc, #120]	; (80025e0 <_Z23submenu_4_set_led_colorhb+0x160>)
 8002568:	781b      	ldrb	r3, [r3, #0]
 800256a:	2b00      	cmp	r3, #0
 800256c:	d1db      	bne.n	8002526 <_Z23submenu_4_set_led_colorhb+0xa6>
	}

	set_number(0, changing_value/100);
 800256e:	4b1a      	ldr	r3, [pc, #104]	; (80025d8 <_Z23submenu_4_set_led_colorhb+0x158>)
 8002570:	781b      	ldrb	r3, [r3, #0]
 8002572:	2164      	movs	r1, #100	; 0x64
 8002574:	0018      	movs	r0, r3
 8002576:	f7fd fdc7 	bl	8000108 <__udivsi3>
 800257a:	0003      	movs	r3, r0
 800257c:	b2db      	uxtb	r3, r3
 800257e:	0019      	movs	r1, r3
 8002580:	2000      	movs	r0, #0
 8002582:	f7fe fd37 	bl	8000ff4 <_Z10set_numberhh>
	set_number(1, changing_value%100);
 8002586:	4b14      	ldr	r3, [pc, #80]	; (80025d8 <_Z23submenu_4_set_led_colorhb+0x158>)
 8002588:	781b      	ldrb	r3, [r3, #0]
 800258a:	2164      	movs	r1, #100	; 0x64
 800258c:	0018      	movs	r0, r3
 800258e:	f7fd fe41 	bl	8000214 <__aeabi_uidivmod>
 8002592:	000b      	movs	r3, r1
 8002594:	b2db      	uxtb	r3, r3
 8002596:	0019      	movs	r1, r3
 8002598:	2001      	movs	r0, #1
 800259a:	f7fe fd2b 	bl	8000ff4 <_Z10set_numberhh>
	set_number(2, changing_value%10);
 800259e:	4b0e      	ldr	r3, [pc, #56]	; (80025d8 <_Z23submenu_4_set_led_colorhb+0x158>)
 80025a0:	781b      	ldrb	r3, [r3, #0]
 80025a2:	210a      	movs	r1, #10
 80025a4:	0018      	movs	r0, r3
 80025a6:	f7fd fe35 	bl	8000214 <__aeabi_uidivmod>
 80025aa:	000b      	movs	r3, r1
 80025ac:	b2db      	uxtb	r3, r3
 80025ae:	0019      	movs	r1, r3
 80025b0:	2002      	movs	r0, #2
 80025b2:	f7fe fd1f 	bl	8000ff4 <_Z10set_numberhh>

	//if state 1, value 0 - 13 -> first tube is masked out
	if(current_state == 1)
 80025b6:	4b06      	ldr	r3, [pc, #24]	; (80025d0 <_Z23submenu_4_set_led_colorhb+0x150>)
 80025b8:	781b      	ldrb	r3, [r3, #0]
 80025ba:	2b01      	cmp	r3, #1
 80025bc:	d103      	bne.n	80025c6 <_Z23submenu_4_set_led_colorhb+0x146>
			set_number(0, 0xA);
 80025be:	210a      	movs	r1, #10
 80025c0:	2000      	movs	r0, #0
 80025c2:	f7fe fd17 	bl	8000ff4 <_Z10set_numberhh>
}
 80025c6:	46c0      	nop			; (mov r8, r8)
 80025c8:	46bd      	mov	sp, r7
 80025ca:	b004      	add	sp, #16
 80025cc:	bd80      	pop	{r7, pc}
 80025ce:	46c0      	nop			; (mov r8, r8)
 80025d0:	20000474 	.word	0x20000474
 80025d4:	2000040c 	.word	0x2000040c
 80025d8:	20000475 	.word	0x20000475
 80025dc:	20000420 	.word	0x20000420
 80025e0:	200003d8 	.word	0x200003d8

080025e4 <_Z21submenu_9_menu_selecth>:

/**
 * @brief: function to select new setting option
 * @param: enter input info 0x1=left; 0x2=right; 0x4=press; 0x8=long press
 */
bool submenu_9_menu_select(uint8_t local_input){
 80025e4:	b580      	push	{r7, lr}
 80025e6:	b082      	sub	sp, #8
 80025e8:	af00      	add	r7, sp, #0
 80025ea:	0002      	movs	r2, r0
 80025ec:	1dfb      	adds	r3, r7, #7
 80025ee:	701a      	strb	r2, [r3, #0]
	if(local_input == 0x1)
 80025f0:	1dfb      	adds	r3, r7, #7
 80025f2:	781b      	ldrb	r3, [r3, #0]
 80025f4:	2b01      	cmp	r3, #1
 80025f6:	d105      	bne.n	8002604 <_Z21submenu_9_menu_selecth+0x20>
		selected_menu++;
 80025f8:	4b19      	ldr	r3, [pc, #100]	; (8002660 <_Z21submenu_9_menu_selecth+0x7c>)
 80025fa:	781b      	ldrb	r3, [r3, #0]
 80025fc:	3301      	adds	r3, #1
 80025fe:	b2da      	uxtb	r2, r3
 8002600:	4b17      	ldr	r3, [pc, #92]	; (8002660 <_Z21submenu_9_menu_selecth+0x7c>)
 8002602:	701a      	strb	r2, [r3, #0]
	if(local_input == 0x2)
 8002604:	1dfb      	adds	r3, r7, #7
 8002606:	781b      	ldrb	r3, [r3, #0]
 8002608:	2b02      	cmp	r3, #2
 800260a:	d105      	bne.n	8002618 <_Z21submenu_9_menu_selecth+0x34>
		selected_menu--;
 800260c:	4b14      	ldr	r3, [pc, #80]	; (8002660 <_Z21submenu_9_menu_selecth+0x7c>)
 800260e:	781b      	ldrb	r3, [r3, #0]
 8002610:	3b01      	subs	r3, #1
 8002612:	b2da      	uxtb	r2, r3
 8002614:	4b12      	ldr	r3, [pc, #72]	; (8002660 <_Z21submenu_9_menu_selecth+0x7c>)
 8002616:	701a      	strb	r2, [r3, #0]
	if(selected_menu == 255)
 8002618:	4b11      	ldr	r3, [pc, #68]	; (8002660 <_Z21submenu_9_menu_selecth+0x7c>)
 800261a:	781b      	ldrb	r3, [r3, #0]
 800261c:	2bff      	cmp	r3, #255	; 0xff
 800261e:	d102      	bne.n	8002626 <_Z21submenu_9_menu_selecth+0x42>
		selected_menu = 6;
 8002620:	4b0f      	ldr	r3, [pc, #60]	; (8002660 <_Z21submenu_9_menu_selecth+0x7c>)
 8002622:	2206      	movs	r2, #6
 8002624:	701a      	strb	r2, [r3, #0]
	if(selected_menu == 7)
 8002626:	4b0e      	ldr	r3, [pc, #56]	; (8002660 <_Z21submenu_9_menu_selecth+0x7c>)
 8002628:	781b      	ldrb	r3, [r3, #0]
 800262a:	2b07      	cmp	r3, #7
 800262c:	d102      	bne.n	8002634 <_Z21submenu_9_menu_selecth+0x50>
		selected_menu = 0;
 800262e:	4b0c      	ldr	r3, [pc, #48]	; (8002660 <_Z21submenu_9_menu_selecth+0x7c>)
 8002630:	2200      	movs	r2, #0
 8002632:	701a      	strb	r2, [r3, #0]
	set_number(0, selected_menu);
 8002634:	4b0a      	ldr	r3, [pc, #40]	; (8002660 <_Z21submenu_9_menu_selecth+0x7c>)
 8002636:	781b      	ldrb	r3, [r3, #0]
 8002638:	0019      	movs	r1, r3
 800263a:	2000      	movs	r0, #0
 800263c:	f7fe fcda 	bl	8000ff4 <_Z10set_numberhh>
	if(local_input == 0x4){
 8002640:	1dfb      	adds	r3, r7, #7
 8002642:	781b      	ldrb	r3, [r3, #0]
 8002644:	2b04      	cmp	r3, #4
 8002646:	d105      	bne.n	8002654 <_Z21submenu_9_menu_selecth+0x70>
		current_menu = selected_menu;
 8002648:	4b05      	ldr	r3, [pc, #20]	; (8002660 <_Z21submenu_9_menu_selecth+0x7c>)
 800264a:	781a      	ldrb	r2, [r3, #0]
 800264c:	4b05      	ldr	r3, [pc, #20]	; (8002664 <_Z21submenu_9_menu_selecth+0x80>)
 800264e:	701a      	strb	r2, [r3, #0]
		return true;
 8002650:	2301      	movs	r3, #1
 8002652:	e000      	b.n	8002656 <_Z21submenu_9_menu_selecth+0x72>
		//TODO: move current state to separate subfunctions
		//		current_state=0;	//reset state when entering new menu
	}
	else
		return false;
 8002654:	2300      	movs	r3, #0
}
 8002656:	0018      	movs	r0, r3
 8002658:	46bd      	mov	sp, r7
 800265a:	b002      	add	sp, #8
 800265c:	bd80      	pop	{r7, pc}
 800265e:	46c0      	nop			; (mov r8, r8)
 8002660:	20000421 	.word	0x20000421
 8002664:	20000420 	.word	0x20000420

08002668 <_Z20write_flash_new_datav>:

/**
 * @brief function to write new settings to flash, when input is complete
 * @return returns 0 if write was successful, else return 1
 */
bool write_flash_new_data(void){
 8002668:	b5b0      	push	{r4, r5, r7, lr}
 800266a:	b084      	sub	sp, #16
 800266c:	af00      	add	r7, sp, #0
	uint8_t temp = 1;
 800266e:	210f      	movs	r1, #15
 8002670:	187b      	adds	r3, r7, r1
 8002672:	2201      	movs	r2, #1
 8002674:	701a      	strb	r2, [r3, #0]
	uint8_t data = 0;
 8002676:	230e      	movs	r3, #14
 8002678:	18fb      	adds	r3, r7, r3
 800267a:	2200      	movs	r2, #0
 800267c:	701a      	strb	r2, [r3, #0]
	uint32_t addr = UP_FLASH_ADDR;
 800267e:	4b2f      	ldr	r3, [pc, #188]	; (800273c <_Z20write_flash_new_datav+0xd4>)
 8002680:	60bb      	str	r3, [r7, #8]

	temp = HAL_FLASHEx_DATAEEPROM_Unlock();
 8002682:	000d      	movs	r5, r1
 8002684:	187c      	adds	r4, r7, r1
 8002686:	f001 fa41 	bl	8003b0c <HAL_FLASHEx_DATAEEPROM_Unlock>
 800268a:	0003      	movs	r3, r0
 800268c:	7023      	strb	r3, [r4, #0]

	if(temp == 0){
 800268e:	197b      	adds	r3, r7, r5
 8002690:	781b      	ldrb	r3, [r3, #0]
 8002692:	2b00      	cmp	r3, #0
 8002694:	d145      	bne.n	8002722 <_Z20write_flash_new_datav+0xba>
		for(uint8_t i=0; i<51; i++){	//50 bytes to write in flash (8*6 time area; 3 led+brightness+points)
 8002696:	1dfb      	adds	r3, r7, #7
 8002698:	2200      	movs	r2, #0
 800269a:	701a      	strb	r2, [r3, #0]
 800269c:	e03d      	b.n	800271a <_Z20write_flash_new_datav+0xb2>
			if(i<48)
 800269e:	1dfb      	adds	r3, r7, #7
 80026a0:	781b      	ldrb	r3, [r3, #0]
 80026a2:	2b2f      	cmp	r3, #47	; 0x2f
 80026a4:	d81c      	bhi.n	80026e0 <_Z20write_flash_new_datav+0x78>
				data = on_time[i/6][i%6];
 80026a6:	1dfb      	adds	r3, r7, #7
 80026a8:	781b      	ldrb	r3, [r3, #0]
 80026aa:	2106      	movs	r1, #6
 80026ac:	0018      	movs	r0, r3
 80026ae:	f7fd fd2b 	bl	8000108 <__udivsi3>
 80026b2:	0003      	movs	r3, r0
 80026b4:	b2db      	uxtb	r3, r3
 80026b6:	001c      	movs	r4, r3
 80026b8:	1dfb      	adds	r3, r7, #7
 80026ba:	781b      	ldrb	r3, [r3, #0]
 80026bc:	2106      	movs	r1, #6
 80026be:	0018      	movs	r0, r3
 80026c0:	f7fd fda8 	bl	8000214 <__aeabi_uidivmod>
 80026c4:	000b      	movs	r3, r1
 80026c6:	b2db      	uxtb	r3, r3
 80026c8:	0018      	movs	r0, r3
 80026ca:	230e      	movs	r3, #14
 80026cc:	18fa      	adds	r2, r7, r3
 80026ce:	491c      	ldr	r1, [pc, #112]	; (8002740 <_Z20write_flash_new_datav+0xd8>)
 80026d0:	0023      	movs	r3, r4
 80026d2:	005b      	lsls	r3, r3, #1
 80026d4:	191b      	adds	r3, r3, r4
 80026d6:	005b      	lsls	r3, r3, #1
 80026d8:	18cb      	adds	r3, r1, r3
 80026da:	5c1b      	ldrb	r3, [r3, r0]
 80026dc:	7013      	strb	r3, [r2, #0]
 80026de:	e008      	b.n	80026f2 <_Z20write_flash_new_datav+0x8a>
			else
				data = misc_setting[i-48];
 80026e0:	1dfb      	adds	r3, r7, #7
 80026e2:	781b      	ldrb	r3, [r3, #0]
 80026e4:	3b30      	subs	r3, #48	; 0x30
 80026e6:	001a      	movs	r2, r3
 80026e8:	230e      	movs	r3, #14
 80026ea:	18fb      	adds	r3, r7, r3
 80026ec:	4915      	ldr	r1, [pc, #84]	; (8002744 <_Z20write_flash_new_datav+0xdc>)
 80026ee:	5c8a      	ldrb	r2, [r1, r2]
 80026f0:	701a      	strb	r2, [r3, #0]
			temp = HAL_FLASHEx_DATAEEPROM_Program(FLASH_TYPEPROGRAMDATA_BYTE, addr, data);
 80026f2:	230e      	movs	r3, #14
 80026f4:	18fb      	adds	r3, r7, r3
 80026f6:	781a      	ldrb	r2, [r3, #0]
 80026f8:	230f      	movs	r3, #15
 80026fa:	18fc      	adds	r4, r7, r3
 80026fc:	68bb      	ldr	r3, [r7, #8]
 80026fe:	0019      	movs	r1, r3
 8002700:	2000      	movs	r0, #0
 8002702:	f001 fa3f 	bl	8003b84 <HAL_FLASHEx_DATAEEPROM_Program>
 8002706:	0003      	movs	r3, r0
 8002708:	7023      	strb	r3, [r4, #0]
			addr++;
 800270a:	68bb      	ldr	r3, [r7, #8]
 800270c:	3301      	adds	r3, #1
 800270e:	60bb      	str	r3, [r7, #8]
		for(uint8_t i=0; i<51; i++){	//50 bytes to write in flash (8*6 time area; 3 led+brightness+points)
 8002710:	1dfb      	adds	r3, r7, #7
 8002712:	781a      	ldrb	r2, [r3, #0]
 8002714:	1dfb      	adds	r3, r7, #7
 8002716:	3201      	adds	r2, #1
 8002718:	701a      	strb	r2, [r3, #0]
 800271a:	1dfb      	adds	r3, r7, #7
 800271c:	781b      	ldrb	r3, [r3, #0]
 800271e:	2b32      	cmp	r3, #50	; 0x32
 8002720:	d9bd      	bls.n	800269e <_Z20write_flash_new_datav+0x36>
		}
	}
	HAL_FLASHEx_DATAEEPROM_Lock();
 8002722:	f001 fa21 	bl	8003b68 <HAL_FLASHEx_DATAEEPROM_Lock>
	return temp;
 8002726:	230f      	movs	r3, #15
 8002728:	18fb      	adds	r3, r7, r3
 800272a:	781b      	ldrb	r3, [r3, #0]
 800272c:	1e5a      	subs	r2, r3, #1
 800272e:	4193      	sbcs	r3, r2
 8002730:	b2db      	uxtb	r3, r3
}
 8002732:	0018      	movs	r0, r3
 8002734:	46bd      	mov	sp, r7
 8002736:	b004      	add	sp, #16
 8002738:	bdb0      	pop	{r4, r5, r7, pc}
 800273a:	46c0      	nop			; (mov r8, r8)
 800273c:	08080000 	.word	0x08080000
 8002740:	200003dc 	.word	0x200003dc
 8002744:	2000040c 	.word	0x2000040c

08002748 <MX_SPI1_Init>:

SPI_HandleTypeDef hspi1;

/* SPI1 init function */
void MX_SPI1_Init(void)
{
 8002748:	b580      	push	{r7, lr}
 800274a:	af00      	add	r7, sp, #0
  /* USER CODE END SPI1_Init 0 */

  /* USER CODE BEGIN SPI1_Init 1 */

  /* USER CODE END SPI1_Init 1 */
  hspi1.Instance = SPI1;
 800274c:	4b18      	ldr	r3, [pc, #96]	; (80027b0 <MX_SPI1_Init+0x68>)
 800274e:	4a19      	ldr	r2, [pc, #100]	; (80027b4 <MX_SPI1_Init+0x6c>)
 8002750:	601a      	str	r2, [r3, #0]
  hspi1.Init.Mode = SPI_MODE_MASTER;
 8002752:	4b17      	ldr	r3, [pc, #92]	; (80027b0 <MX_SPI1_Init+0x68>)
 8002754:	2282      	movs	r2, #130	; 0x82
 8002756:	0052      	lsls	r2, r2, #1
 8002758:	605a      	str	r2, [r3, #4]
  hspi1.Init.Direction = SPI_DIRECTION_2LINES;
 800275a:	4b15      	ldr	r3, [pc, #84]	; (80027b0 <MX_SPI1_Init+0x68>)
 800275c:	2200      	movs	r2, #0
 800275e:	609a      	str	r2, [r3, #8]
  hspi1.Init.DataSize = SPI_DATASIZE_8BIT;
 8002760:	4b13      	ldr	r3, [pc, #76]	; (80027b0 <MX_SPI1_Init+0x68>)
 8002762:	2200      	movs	r2, #0
 8002764:	60da      	str	r2, [r3, #12]
  hspi1.Init.CLKPolarity = SPI_POLARITY_LOW;
 8002766:	4b12      	ldr	r3, [pc, #72]	; (80027b0 <MX_SPI1_Init+0x68>)
 8002768:	2200      	movs	r2, #0
 800276a:	611a      	str	r2, [r3, #16]
  hspi1.Init.CLKPhase = SPI_PHASE_1EDGE;
 800276c:	4b10      	ldr	r3, [pc, #64]	; (80027b0 <MX_SPI1_Init+0x68>)
 800276e:	2200      	movs	r2, #0
 8002770:	615a      	str	r2, [r3, #20]
  hspi1.Init.NSS = SPI_NSS_SOFT;
 8002772:	4b0f      	ldr	r3, [pc, #60]	; (80027b0 <MX_SPI1_Init+0x68>)
 8002774:	2280      	movs	r2, #128	; 0x80
 8002776:	0092      	lsls	r2, r2, #2
 8002778:	619a      	str	r2, [r3, #24]
  hspi1.Init.BaudRatePrescaler = SPI_BAUDRATEPRESCALER_4;
 800277a:	4b0d      	ldr	r3, [pc, #52]	; (80027b0 <MX_SPI1_Init+0x68>)
 800277c:	2208      	movs	r2, #8
 800277e:	61da      	str	r2, [r3, #28]
  hspi1.Init.FirstBit = SPI_FIRSTBIT_MSB;
 8002780:	4b0b      	ldr	r3, [pc, #44]	; (80027b0 <MX_SPI1_Init+0x68>)
 8002782:	2200      	movs	r2, #0
 8002784:	621a      	str	r2, [r3, #32]
  hspi1.Init.TIMode = SPI_TIMODE_DISABLE;
 8002786:	4b0a      	ldr	r3, [pc, #40]	; (80027b0 <MX_SPI1_Init+0x68>)
 8002788:	2200      	movs	r2, #0
 800278a:	625a      	str	r2, [r3, #36]	; 0x24
  hspi1.Init.CRCCalculation = SPI_CRCCALCULATION_DISABLE;
 800278c:	4b08      	ldr	r3, [pc, #32]	; (80027b0 <MX_SPI1_Init+0x68>)
 800278e:	2200      	movs	r2, #0
 8002790:	629a      	str	r2, [r3, #40]	; 0x28
  hspi1.Init.CRCPolynomial = 7;
 8002792:	4b07      	ldr	r3, [pc, #28]	; (80027b0 <MX_SPI1_Init+0x68>)
 8002794:	2207      	movs	r2, #7
 8002796:	62da      	str	r2, [r3, #44]	; 0x2c
  if (HAL_SPI_Init(&hspi1) != HAL_OK)
 8002798:	4b05      	ldr	r3, [pc, #20]	; (80027b0 <MX_SPI1_Init+0x68>)
 800279a:	0018      	movs	r0, r3
 800279c:	f003 f87c 	bl	8005898 <HAL_SPI_Init>
 80027a0:	1e03      	subs	r3, r0, #0
 80027a2:	d001      	beq.n	80027a8 <MX_SPI1_Init+0x60>
  {
    Error_Handler();
 80027a4:	f7fe fc02 	bl	8000fac <Error_Handler>
  }
  /* USER CODE BEGIN SPI1_Init 2 */

  /* USER CODE END SPI1_Init 2 */

}
 80027a8:	46c0      	nop			; (mov r8, r8)
 80027aa:	46bd      	mov	sp, r7
 80027ac:	bd80      	pop	{r7, pc}
 80027ae:	46c0      	nop			; (mov r8, r8)
 80027b0:	20000478 	.word	0x20000478
 80027b4:	40013000 	.word	0x40013000

080027b8 <HAL_SPI_MspInit>:

void HAL_SPI_MspInit(SPI_HandleTypeDef* spiHandle)
{
 80027b8:	b590      	push	{r4, r7, lr}
 80027ba:	b089      	sub	sp, #36	; 0x24
 80027bc:	af00      	add	r7, sp, #0
 80027be:	6078      	str	r0, [r7, #4]

  GPIO_InitTypeDef GPIO_InitStruct = {0};
 80027c0:	240c      	movs	r4, #12
 80027c2:	193b      	adds	r3, r7, r4
 80027c4:	0018      	movs	r0, r3
 80027c6:	2314      	movs	r3, #20
 80027c8:	001a      	movs	r2, r3
 80027ca:	2100      	movs	r1, #0
 80027cc:	f004 fd36 	bl	800723c <memset>
  if(spiHandle->Instance==SPI1)
 80027d0:	687b      	ldr	r3, [r7, #4]
 80027d2:	681b      	ldr	r3, [r3, #0]
 80027d4:	4a18      	ldr	r2, [pc, #96]	; (8002838 <HAL_SPI_MspInit+0x80>)
 80027d6:	4293      	cmp	r3, r2
 80027d8:	d129      	bne.n	800282e <HAL_SPI_MspInit+0x76>
  {
  /* USER CODE BEGIN SPI1_MspInit 0 */

  /* USER CODE END SPI1_MspInit 0 */
    /* SPI1 clock enable */
    __HAL_RCC_SPI1_CLK_ENABLE();
 80027da:	4b18      	ldr	r3, [pc, #96]	; (800283c <HAL_SPI_MspInit+0x84>)
 80027dc:	6b5a      	ldr	r2, [r3, #52]	; 0x34
 80027de:	4b17      	ldr	r3, [pc, #92]	; (800283c <HAL_SPI_MspInit+0x84>)
 80027e0:	2180      	movs	r1, #128	; 0x80
 80027e2:	0149      	lsls	r1, r1, #5
 80027e4:	430a      	orrs	r2, r1
 80027e6:	635a      	str	r2, [r3, #52]	; 0x34

    __HAL_RCC_GPIOA_CLK_ENABLE();
 80027e8:	4b14      	ldr	r3, [pc, #80]	; (800283c <HAL_SPI_MspInit+0x84>)
 80027ea:	6ada      	ldr	r2, [r3, #44]	; 0x2c
 80027ec:	4b13      	ldr	r3, [pc, #76]	; (800283c <HAL_SPI_MspInit+0x84>)
 80027ee:	2101      	movs	r1, #1
 80027f0:	430a      	orrs	r2, r1
 80027f2:	62da      	str	r2, [r3, #44]	; 0x2c
 80027f4:	4b11      	ldr	r3, [pc, #68]	; (800283c <HAL_SPI_MspInit+0x84>)
 80027f6:	6adb      	ldr	r3, [r3, #44]	; 0x2c
 80027f8:	2201      	movs	r2, #1
 80027fa:	4013      	ands	r3, r2
 80027fc:	60bb      	str	r3, [r7, #8]
 80027fe:	68bb      	ldr	r3, [r7, #8]
    /**SPI1 GPIO Configuration
    PA5     ------> SPI1_SCK
    PA7     ------> SPI1_MOSI
    */
    GPIO_InitStruct.Pin = GPIO_PIN_5|GPIO_PIN_7;
 8002800:	0021      	movs	r1, r4
 8002802:	187b      	adds	r3, r7, r1
 8002804:	22a0      	movs	r2, #160	; 0xa0
 8002806:	601a      	str	r2, [r3, #0]
    GPIO_InitStruct.Mode = GPIO_MODE_AF_PP;
 8002808:	187b      	adds	r3, r7, r1
 800280a:	2202      	movs	r2, #2
 800280c:	605a      	str	r2, [r3, #4]
    GPIO_InitStruct.Pull = GPIO_NOPULL;
 800280e:	187b      	adds	r3, r7, r1
 8002810:	2200      	movs	r2, #0
 8002812:	609a      	str	r2, [r3, #8]
    GPIO_InitStruct.Speed = GPIO_SPEED_FREQ_VERY_HIGH;
 8002814:	187b      	adds	r3, r7, r1
 8002816:	2203      	movs	r2, #3
 8002818:	60da      	str	r2, [r3, #12]
    GPIO_InitStruct.Alternate = GPIO_AF0_SPI1;
 800281a:	187b      	adds	r3, r7, r1
 800281c:	2200      	movs	r2, #0
 800281e:	611a      	str	r2, [r3, #16]
    HAL_GPIO_Init(GPIOA, &GPIO_InitStruct);
 8002820:	187a      	adds	r2, r7, r1
 8002822:	23a0      	movs	r3, #160	; 0xa0
 8002824:	05db      	lsls	r3, r3, #23
 8002826:	0011      	movs	r1, r2
 8002828:	0018      	movs	r0, r3
 800282a:	f001 fa03 	bl	8003c34 <HAL_GPIO_Init>

  /* USER CODE BEGIN SPI1_MspInit 1 */

  /* USER CODE END SPI1_MspInit 1 */
  }
}
 800282e:	46c0      	nop			; (mov r8, r8)
 8002830:	46bd      	mov	sp, r7
 8002832:	b009      	add	sp, #36	; 0x24
 8002834:	bd90      	pop	{r4, r7, pc}
 8002836:	46c0      	nop			; (mov r8, r8)
 8002838:	40013000 	.word	0x40013000
 800283c:	40021000 	.word	0x40021000

08002840 <HAL_MspInit>:
/* USER CODE END 0 */
/**
  * Initializes the Global MSP.
  */
void HAL_MspInit(void)
{
 8002840:	b580      	push	{r7, lr}
 8002842:	af00      	add	r7, sp, #0
  /* USER CODE BEGIN MspInit 0 */

  /* USER CODE END MspInit 0 */

  __HAL_RCC_SYSCFG_CLK_ENABLE();
 8002844:	4b07      	ldr	r3, [pc, #28]	; (8002864 <HAL_MspInit+0x24>)
 8002846:	6b5a      	ldr	r2, [r3, #52]	; 0x34
 8002848:	4b06      	ldr	r3, [pc, #24]	; (8002864 <HAL_MspInit+0x24>)
 800284a:	2101      	movs	r1, #1
 800284c:	430a      	orrs	r2, r1
 800284e:	635a      	str	r2, [r3, #52]	; 0x34
  __HAL_RCC_PWR_CLK_ENABLE();
 8002850:	4b04      	ldr	r3, [pc, #16]	; (8002864 <HAL_MspInit+0x24>)
 8002852:	6b9a      	ldr	r2, [r3, #56]	; 0x38
 8002854:	4b03      	ldr	r3, [pc, #12]	; (8002864 <HAL_MspInit+0x24>)
 8002856:	2180      	movs	r1, #128	; 0x80
 8002858:	0549      	lsls	r1, r1, #21
 800285a:	430a      	orrs	r2, r1
 800285c:	639a      	str	r2, [r3, #56]	; 0x38
  /* System interrupt init*/

  /* USER CODE BEGIN MspInit 1 */

  /* USER CODE END MspInit 1 */
}
 800285e:	46c0      	nop			; (mov r8, r8)
 8002860:	46bd      	mov	sp, r7
 8002862:	bd80      	pop	{r7, pc}
 8002864:	40021000 	.word	0x40021000

08002868 <NMI_Handler>:
/******************************************************************************/
/**
  * @brief This function handles Non maskable Interrupt.
  */
void NMI_Handler(void)
{
 8002868:	b580      	push	{r7, lr}
 800286a:	af00      	add	r7, sp, #0
  /* USER CODE BEGIN NonMaskableInt_IRQn 0 */

  /* USER CODE END NonMaskableInt_IRQn 0 */
  /* USER CODE BEGIN NonMaskableInt_IRQn 1 */
  while (1)
 800286c:	e7fe      	b.n	800286c <NMI_Handler+0x4>

0800286e <HardFault_Handler>:

/**
  * @brief This function handles Hard fault interrupt.
  */
void HardFault_Handler(void)
{
 800286e:	b580      	push	{r7, lr}
 8002870:	af00      	add	r7, sp, #0
  /* USER CODE BEGIN HardFault_IRQn 0 */

  /* USER CODE END HardFault_IRQn 0 */
  while (1)
 8002872:	e7fe      	b.n	8002872 <HardFault_Handler+0x4>

08002874 <SVC_Handler>:

/**
  * @brief This function handles System service call via SWI instruction.
  */
void SVC_Handler(void)
{
 8002874:	b580      	push	{r7, lr}
 8002876:	af00      	add	r7, sp, #0

  /* USER CODE END SVC_IRQn 0 */
  /* USER CODE BEGIN SVC_IRQn 1 */

  /* USER CODE END SVC_IRQn 1 */
}
 8002878:	46c0      	nop			; (mov r8, r8)
 800287a:	46bd      	mov	sp, r7
 800287c:	bd80      	pop	{r7, pc}

0800287e <PendSV_Handler>:

/**
  * @brief This function handles Pendable request for system service.
  */
void PendSV_Handler(void)
{
 800287e:	b580      	push	{r7, lr}
 8002880:	af00      	add	r7, sp, #0

  /* USER CODE END PendSV_IRQn 0 */
  /* USER CODE BEGIN PendSV_IRQn 1 */

  /* USER CODE END PendSV_IRQn 1 */
}
 8002882:	46c0      	nop			; (mov r8, r8)
 8002884:	46bd      	mov	sp, r7
 8002886:	bd80      	pop	{r7, pc}

08002888 <SysTick_Handler>:

/**
  * @brief This function handles System tick timer.
  */
void SysTick_Handler(void)
{
 8002888:	b580      	push	{r7, lr}
 800288a:	af00      	add	r7, sp, #0
  /* USER CODE BEGIN SysTick_IRQn 0 */

  /* USER CODE END SysTick_IRQn 0 */
  HAL_IncTick();
 800288c:	f000 fd34 	bl	80032f8 <HAL_IncTick>
  /* USER CODE BEGIN SysTick_IRQn 1 */

  /* USER CODE END SysTick_IRQn 1 */
}
 8002890:	46c0      	nop			; (mov r8, r8)
 8002892:	46bd      	mov	sp, r7
 8002894:	bd80      	pop	{r7, pc}
	...

08002898 <DMA1_Channel1_IRQHandler>:

/**
  * @brief This function handles DMA1 channel 1 interrupt.
  */
void DMA1_Channel1_IRQHandler(void)
{
 8002898:	b580      	push	{r7, lr}
 800289a:	af00      	add	r7, sp, #0
  /* USER CODE BEGIN DMA1_Channel1_IRQn 0 */

  /* USER CODE END DMA1_Channel1_IRQn 0 */
  HAL_DMA_IRQHandler(&hdma_tim2_ch3);
 800289c:	4b03      	ldr	r3, [pc, #12]	; (80028ac <DMA1_Channel1_IRQHandler+0x14>)
 800289e:	0018      	movs	r0, r3
 80028a0:	f000 ff49 	bl	8003736 <HAL_DMA_IRQHandler>
  /* USER CODE BEGIN DMA1_Channel1_IRQn 1 */

  /* USER CODE END DMA1_Channel1_IRQn 1 */
}
 80028a4:	46c0      	nop			; (mov r8, r8)
 80028a6:	46bd      	mov	sp, r7
 80028a8:	bd80      	pop	{r7, pc}
 80028aa:	46c0      	nop			; (mov r8, r8)
 80028ac:	20000550 	.word	0x20000550

080028b0 <TIM21_IRQHandler>:

/**
  * @brief This function handles TIM21 global interrupt.
  */
void TIM21_IRQHandler(void)
{
 80028b0:	b580      	push	{r7, lr}
 80028b2:	af00      	add	r7, sp, #0
  /* USER CODE BEGIN TIM21_IRQn 0 */
	counter_update_it();
 80028b4:	f7fe fb4c 	bl	8000f50 <counter_update_it>
  /* USER CODE END TIM21_IRQn 0 */
  HAL_TIM_IRQHandler(&htim21);
 80028b8:	4b03      	ldr	r3, [pc, #12]	; (80028c8 <TIM21_IRQHandler+0x18>)
 80028ba:	0018      	movs	r0, r3
 80028bc:	f003 fe72 	bl	80065a4 <HAL_TIM_IRQHandler>
  /* USER CODE BEGIN TIM21_IRQn 1 */

  /* USER CODE END TIM21_IRQn 1 */
}
 80028c0:	46c0      	nop			; (mov r8, r8)
 80028c2:	46bd      	mov	sp, r7
 80028c4:	bd80      	pop	{r7, pc}
 80028c6:	46c0      	nop			; (mov r8, r8)
 80028c8:	20000510 	.word	0x20000510

080028cc <SystemInit>:
  * @brief  Setup the microcontroller system.
  * @param  None
  * @retval None
  */
void SystemInit (void)
{
 80028cc:	b580      	push	{r7, lr}
 80028ce:	af00      	add	r7, sp, #0
  /* Configure the Vector Table location add offset address ------------------*/
#if defined (USER_VECT_TAB_ADDRESS)
  SCB->VTOR = VECT_TAB_BASE_ADDRESS | VECT_TAB_OFFSET; /* Vector Table Relocation in Internal SRAM */
#endif /* USER_VECT_TAB_ADDRESS */
}
 80028d0:	46c0      	nop			; (mov r8, r8)
 80028d2:	46bd      	mov	sp, r7
 80028d4:	bd80      	pop	{r7, pc}
	...

080028d8 <MX_TIM2_Init>:
TIM_HandleTypeDef htim21;
DMA_HandleTypeDef hdma_tim2_ch3;

/* TIM2 init function */
void MX_TIM2_Init(void)
{
 80028d8:	b580      	push	{r7, lr}
 80028da:	b08a      	sub	sp, #40	; 0x28
 80028dc:	af00      	add	r7, sp, #0

  /* USER CODE BEGIN TIM2_Init 0 */

  /* USER CODE END TIM2_Init 0 */

  TIM_ClockConfigTypeDef sClockSourceConfig = {0};
 80028de:	2318      	movs	r3, #24
 80028e0:	18fb      	adds	r3, r7, r3
 80028e2:	0018      	movs	r0, r3
 80028e4:	2310      	movs	r3, #16
 80028e6:	001a      	movs	r2, r3
 80028e8:	2100      	movs	r1, #0
 80028ea:	f004 fca7 	bl	800723c <memset>
  TIM_MasterConfigTypeDef sMasterConfig = {0};
 80028ee:	2310      	movs	r3, #16
 80028f0:	18fb      	adds	r3, r7, r3
 80028f2:	0018      	movs	r0, r3
 80028f4:	2308      	movs	r3, #8
 80028f6:	001a      	movs	r2, r3
 80028f8:	2100      	movs	r1, #0
 80028fa:	f004 fc9f 	bl	800723c <memset>
  TIM_OC_InitTypeDef sConfigOC = {0};
 80028fe:	003b      	movs	r3, r7
 8002900:	0018      	movs	r0, r3
 8002902:	2310      	movs	r3, #16
 8002904:	001a      	movs	r2, r3
 8002906:	2100      	movs	r1, #0
 8002908:	f004 fc98 	bl	800723c <memset>

  /* USER CODE BEGIN TIM2_Init 1 */

  /* USER CODE END TIM2_Init 1 */
  htim2.Instance = TIM2;
 800290c:	4b30      	ldr	r3, [pc, #192]	; (80029d0 <MX_TIM2_Init+0xf8>)
 800290e:	2280      	movs	r2, #128	; 0x80
 8002910:	05d2      	lsls	r2, r2, #23
 8002912:	601a      	str	r2, [r3, #0]
  htim2.Init.Prescaler = 0;
 8002914:	4b2e      	ldr	r3, [pc, #184]	; (80029d0 <MX_TIM2_Init+0xf8>)
 8002916:	2200      	movs	r2, #0
 8002918:	605a      	str	r2, [r3, #4]
  htim2.Init.CounterMode = TIM_COUNTERMODE_UP;
 800291a:	4b2d      	ldr	r3, [pc, #180]	; (80029d0 <MX_TIM2_Init+0xf8>)
 800291c:	2200      	movs	r2, #0
 800291e:	609a      	str	r2, [r3, #8]
  htim2.Init.Period = 40-1;
 8002920:	4b2b      	ldr	r3, [pc, #172]	; (80029d0 <MX_TIM2_Init+0xf8>)
 8002922:	2227      	movs	r2, #39	; 0x27
 8002924:	60da      	str	r2, [r3, #12]
  htim2.Init.ClockDivision = TIM_CLOCKDIVISION_DIV1;
 8002926:	4b2a      	ldr	r3, [pc, #168]	; (80029d0 <MX_TIM2_Init+0xf8>)
 8002928:	2200      	movs	r2, #0
 800292a:	611a      	str	r2, [r3, #16]
  htim2.Init.AutoReloadPreload = TIM_AUTORELOAD_PRELOAD_DISABLE;
 800292c:	4b28      	ldr	r3, [pc, #160]	; (80029d0 <MX_TIM2_Init+0xf8>)
 800292e:	2200      	movs	r2, #0
 8002930:	615a      	str	r2, [r3, #20]
  if (HAL_TIM_Base_Init(&htim2) != HAL_OK)
 8002932:	4b27      	ldr	r3, [pc, #156]	; (80029d0 <MX_TIM2_Init+0xf8>)
 8002934:	0018      	movs	r0, r3
 8002936:	f003 fa69 	bl	8005e0c <HAL_TIM_Base_Init>
 800293a:	1e03      	subs	r3, r0, #0
 800293c:	d001      	beq.n	8002942 <MX_TIM2_Init+0x6a>
  {
    Error_Handler();
 800293e:	f7fe fb35 	bl	8000fac <Error_Handler>
  }
  sClockSourceConfig.ClockSource = TIM_CLOCKSOURCE_INTERNAL;
 8002942:	2118      	movs	r1, #24
 8002944:	187b      	adds	r3, r7, r1
 8002946:	2280      	movs	r2, #128	; 0x80
 8002948:	0152      	lsls	r2, r2, #5
 800294a:	601a      	str	r2, [r3, #0]
  if (HAL_TIM_ConfigClockSource(&htim2, &sClockSourceConfig) != HAL_OK)
 800294c:	187a      	adds	r2, r7, r1
 800294e:	4b20      	ldr	r3, [pc, #128]	; (80029d0 <MX_TIM2_Init+0xf8>)
 8002950:	0011      	movs	r1, r2
 8002952:	0018      	movs	r0, r3
 8002954:	f004 f82c 	bl	80069b0 <HAL_TIM_ConfigClockSource>
 8002958:	1e03      	subs	r3, r0, #0
 800295a:	d001      	beq.n	8002960 <MX_TIM2_Init+0x88>
  {
    Error_Handler();
 800295c:	f7fe fb26 	bl	8000fac <Error_Handler>
  }
  if (HAL_TIM_PWM_Init(&htim2) != HAL_OK)
 8002960:	4b1b      	ldr	r3, [pc, #108]	; (80029d0 <MX_TIM2_Init+0xf8>)
 8002962:	0018      	movs	r0, r3
 8002964:	f003 fbac 	bl	80060c0 <HAL_TIM_PWM_Init>
 8002968:	1e03      	subs	r3, r0, #0
 800296a:	d001      	beq.n	8002970 <MX_TIM2_Init+0x98>
  {
    Error_Handler();
 800296c:	f7fe fb1e 	bl	8000fac <Error_Handler>
  }
  sMasterConfig.MasterOutputTrigger = TIM_TRGO_RESET;
 8002970:	2110      	movs	r1, #16
 8002972:	187b      	adds	r3, r7, r1
 8002974:	2200      	movs	r2, #0
 8002976:	601a      	str	r2, [r3, #0]
  sMasterConfig.MasterSlaveMode = TIM_MASTERSLAVEMODE_DISABLE;
 8002978:	187b      	adds	r3, r7, r1
 800297a:	2200      	movs	r2, #0
 800297c:	605a      	str	r2, [r3, #4]
  if (HAL_TIMEx_MasterConfigSynchronization(&htim2, &sMasterConfig) != HAL_OK)
 800297e:	187a      	adds	r2, r7, r1
 8002980:	4b13      	ldr	r3, [pc, #76]	; (80029d0 <MX_TIM2_Init+0xf8>)
 8002982:	0011      	movs	r1, r2
 8002984:	0018      	movs	r0, r3
 8002986:	f004 fc01 	bl	800718c <HAL_TIMEx_MasterConfigSynchronization>
 800298a:	1e03      	subs	r3, r0, #0
 800298c:	d001      	beq.n	8002992 <MX_TIM2_Init+0xba>
  {
    Error_Handler();
 800298e:	f7fe fb0d 	bl	8000fac <Error_Handler>
  }
  sConfigOC.OCMode = TIM_OCMODE_PWM1;
 8002992:	003b      	movs	r3, r7
 8002994:	2260      	movs	r2, #96	; 0x60
 8002996:	601a      	str	r2, [r3, #0]
  sConfigOC.Pulse = 0;
 8002998:	003b      	movs	r3, r7
 800299a:	2200      	movs	r2, #0
 800299c:	605a      	str	r2, [r3, #4]
  sConfigOC.OCPolarity = TIM_OCPOLARITY_HIGH;
 800299e:	003b      	movs	r3, r7
 80029a0:	2200      	movs	r2, #0
 80029a2:	609a      	str	r2, [r3, #8]
  sConfigOC.OCFastMode = TIM_OCFAST_DISABLE;
 80029a4:	003b      	movs	r3, r7
 80029a6:	2200      	movs	r2, #0
 80029a8:	60da      	str	r2, [r3, #12]
  if (HAL_TIM_PWM_ConfigChannel(&htim2, &sConfigOC, TIM_CHANNEL_3) != HAL_OK)
 80029aa:	0039      	movs	r1, r7
 80029ac:	4b08      	ldr	r3, [pc, #32]	; (80029d0 <MX_TIM2_Init+0xf8>)
 80029ae:	2208      	movs	r2, #8
 80029b0:	0018      	movs	r0, r3
 80029b2:	f003 ff37 	bl	8006824 <HAL_TIM_PWM_ConfigChannel>
 80029b6:	1e03      	subs	r3, r0, #0
 80029b8:	d001      	beq.n	80029be <MX_TIM2_Init+0xe6>
  {
    Error_Handler();
 80029ba:	f7fe faf7 	bl	8000fac <Error_Handler>
  }
  /* USER CODE BEGIN TIM2_Init 2 */

  /* USER CODE END TIM2_Init 2 */
  HAL_TIM_MspPostInit(&htim2);
 80029be:	4b04      	ldr	r3, [pc, #16]	; (80029d0 <MX_TIM2_Init+0xf8>)
 80029c0:	0018      	movs	r0, r3
 80029c2:	f000 f8e7 	bl	8002b94 <HAL_TIM_MspPostInit>

}
 80029c6:	46c0      	nop			; (mov r8, r8)
 80029c8:	46bd      	mov	sp, r7
 80029ca:	b00a      	add	sp, #40	; 0x28
 80029cc:	bd80      	pop	{r7, pc}
 80029ce:	46c0      	nop			; (mov r8, r8)
 80029d0:	200004d0 	.word	0x200004d0

080029d4 <MX_TIM21_Init>:
/* TIM21 init function */
void MX_TIM21_Init(void)
{
 80029d4:	b580      	push	{r7, lr}
 80029d6:	b08a      	sub	sp, #40	; 0x28
 80029d8:	af00      	add	r7, sp, #0

  /* USER CODE BEGIN TIM21_Init 0 */

  /* USER CODE END TIM21_Init 0 */

  TIM_ClockConfigTypeDef sClockSourceConfig = {0};
 80029da:	2318      	movs	r3, #24
 80029dc:	18fb      	adds	r3, r7, r3
 80029de:	0018      	movs	r0, r3
 80029e0:	2310      	movs	r3, #16
 80029e2:	001a      	movs	r2, r3
 80029e4:	2100      	movs	r1, #0
 80029e6:	f004 fc29 	bl	800723c <memset>
  TIM_MasterConfigTypeDef sMasterConfig = {0};
 80029ea:	2310      	movs	r3, #16
 80029ec:	18fb      	adds	r3, r7, r3
 80029ee:	0018      	movs	r0, r3
 80029f0:	2308      	movs	r3, #8
 80029f2:	001a      	movs	r2, r3
 80029f4:	2100      	movs	r1, #0
 80029f6:	f004 fc21 	bl	800723c <memset>
  TIM_OC_InitTypeDef sConfigOC = {0};
 80029fa:	003b      	movs	r3, r7
 80029fc:	0018      	movs	r0, r3
 80029fe:	2310      	movs	r3, #16
 8002a00:	001a      	movs	r2, r3
 8002a02:	2100      	movs	r1, #0
 8002a04:	f004 fc1a 	bl	800723c <memset>

  /* USER CODE BEGIN TIM21_Init 1 */

  /* USER CODE END TIM21_Init 1 */
  htim21.Instance = TIM21;
 8002a08:	4b31      	ldr	r3, [pc, #196]	; (8002ad0 <MX_TIM21_Init+0xfc>)
 8002a0a:	4a32      	ldr	r2, [pc, #200]	; (8002ad4 <MX_TIM21_Init+0x100>)
 8002a0c:	601a      	str	r2, [r3, #0]
  htim21.Init.Prescaler = 32-1;
 8002a0e:	4b30      	ldr	r3, [pc, #192]	; (8002ad0 <MX_TIM21_Init+0xfc>)
 8002a10:	221f      	movs	r2, #31
 8002a12:	605a      	str	r2, [r3, #4]
  htim21.Init.CounterMode = TIM_COUNTERMODE_UP;
 8002a14:	4b2e      	ldr	r3, [pc, #184]	; (8002ad0 <MX_TIM21_Init+0xfc>)
 8002a16:	2200      	movs	r2, #0
 8002a18:	609a      	str	r2, [r3, #8]
  htim21.Init.Period = 1000-1;
 8002a1a:	4b2d      	ldr	r3, [pc, #180]	; (8002ad0 <MX_TIM21_Init+0xfc>)
 8002a1c:	4a2e      	ldr	r2, [pc, #184]	; (8002ad8 <MX_TIM21_Init+0x104>)
 8002a1e:	60da      	str	r2, [r3, #12]
  htim21.Init.ClockDivision = TIM_CLOCKDIVISION_DIV1;
 8002a20:	4b2b      	ldr	r3, [pc, #172]	; (8002ad0 <MX_TIM21_Init+0xfc>)
 8002a22:	2200      	movs	r2, #0
 8002a24:	611a      	str	r2, [r3, #16]
  htim21.Init.AutoReloadPreload = TIM_AUTORELOAD_PRELOAD_ENABLE;
 8002a26:	4b2a      	ldr	r3, [pc, #168]	; (8002ad0 <MX_TIM21_Init+0xfc>)
 8002a28:	2280      	movs	r2, #128	; 0x80
 8002a2a:	615a      	str	r2, [r3, #20]
  if (HAL_TIM_Base_Init(&htim21) != HAL_OK)
 8002a2c:	4b28      	ldr	r3, [pc, #160]	; (8002ad0 <MX_TIM21_Init+0xfc>)
 8002a2e:	0018      	movs	r0, r3
 8002a30:	f003 f9ec 	bl	8005e0c <HAL_TIM_Base_Init>
 8002a34:	1e03      	subs	r3, r0, #0
 8002a36:	d001      	beq.n	8002a3c <MX_TIM21_Init+0x68>
  {
    Error_Handler();
 8002a38:	f7fe fab8 	bl	8000fac <Error_Handler>
  }
  sClockSourceConfig.ClockSource = TIM_CLOCKSOURCE_INTERNAL;
 8002a3c:	2118      	movs	r1, #24
 8002a3e:	187b      	adds	r3, r7, r1
 8002a40:	2280      	movs	r2, #128	; 0x80
 8002a42:	0152      	lsls	r2, r2, #5
 8002a44:	601a      	str	r2, [r3, #0]
  if (HAL_TIM_ConfigClockSource(&htim21, &sClockSourceConfig) != HAL_OK)
 8002a46:	187a      	adds	r2, r7, r1
 8002a48:	4b21      	ldr	r3, [pc, #132]	; (8002ad0 <MX_TIM21_Init+0xfc>)
 8002a4a:	0011      	movs	r1, r2
 8002a4c:	0018      	movs	r0, r3
 8002a4e:	f003 ffaf 	bl	80069b0 <HAL_TIM_ConfigClockSource>
 8002a52:	1e03      	subs	r3, r0, #0
 8002a54:	d001      	beq.n	8002a5a <MX_TIM21_Init+0x86>
  {
    Error_Handler();
 8002a56:	f7fe faa9 	bl	8000fac <Error_Handler>
  }
  if (HAL_TIM_OC_Init(&htim21) != HAL_OK)
 8002a5a:	4b1d      	ldr	r3, [pc, #116]	; (8002ad0 <MX_TIM21_Init+0xfc>)
 8002a5c:	0018      	movs	r0, r3
 8002a5e:	f003 fa15 	bl	8005e8c <HAL_TIM_OC_Init>
 8002a62:	1e03      	subs	r3, r0, #0
 8002a64:	d001      	beq.n	8002a6a <MX_TIM21_Init+0x96>
  {
    Error_Handler();
 8002a66:	f7fe faa1 	bl	8000fac <Error_Handler>
  }
  sMasterConfig.MasterOutputTrigger = TIM_TRGO_RESET;
 8002a6a:	2110      	movs	r1, #16
 8002a6c:	187b      	adds	r3, r7, r1
 8002a6e:	2200      	movs	r2, #0
 8002a70:	601a      	str	r2, [r3, #0]
  sMasterConfig.MasterSlaveMode = TIM_MASTERSLAVEMODE_DISABLE;
 8002a72:	187b      	adds	r3, r7, r1
 8002a74:	2200      	movs	r2, #0
 8002a76:	605a      	str	r2, [r3, #4]
  if (HAL_TIMEx_MasterConfigSynchronization(&htim21, &sMasterConfig) != HAL_OK)
 8002a78:	187a      	adds	r2, r7, r1
 8002a7a:	4b15      	ldr	r3, [pc, #84]	; (8002ad0 <MX_TIM21_Init+0xfc>)
 8002a7c:	0011      	movs	r1, r2
 8002a7e:	0018      	movs	r0, r3
 8002a80:	f004 fb84 	bl	800718c <HAL_TIMEx_MasterConfigSynchronization>
 8002a84:	1e03      	subs	r3, r0, #0
 8002a86:	d001      	beq.n	8002a8c <MX_TIM21_Init+0xb8>
  {
    Error_Handler();
 8002a88:	f7fe fa90 	bl	8000fac <Error_Handler>
  }
  sConfigOC.OCMode = TIM_OCMODE_TIMING;
 8002a8c:	003b      	movs	r3, r7
 8002a8e:	2200      	movs	r2, #0
 8002a90:	601a      	str	r2, [r3, #0]
  sConfigOC.Pulse = 0;
 8002a92:	003b      	movs	r3, r7
 8002a94:	2200      	movs	r2, #0
 8002a96:	605a      	str	r2, [r3, #4]
  sConfigOC.OCPolarity = TIM_OCPOLARITY_HIGH;
 8002a98:	003b      	movs	r3, r7
 8002a9a:	2200      	movs	r2, #0
 8002a9c:	609a      	str	r2, [r3, #8]
  sConfigOC.OCFastMode = TIM_OCFAST_DISABLE;
 8002a9e:	003b      	movs	r3, r7
 8002aa0:	2200      	movs	r2, #0
 8002aa2:	60da      	str	r2, [r3, #12]
  if (HAL_TIM_OC_ConfigChannel(&htim21, &sConfigOC, TIM_CHANNEL_1) != HAL_OK)
 8002aa4:	0039      	movs	r1, r7
 8002aa6:	4b0a      	ldr	r3, [pc, #40]	; (8002ad0 <MX_TIM21_Init+0xfc>)
 8002aa8:	2200      	movs	r2, #0
 8002aaa:	0018      	movs	r0, r3
 8002aac:	f003 fe62 	bl	8006774 <HAL_TIM_OC_ConfigChannel>
 8002ab0:	1e03      	subs	r3, r0, #0
 8002ab2:	d001      	beq.n	8002ab8 <MX_TIM21_Init+0xe4>
  {
    Error_Handler();
 8002ab4:	f7fe fa7a 	bl	8000fac <Error_Handler>
  }
  __HAL_TIM_ENABLE_OCxPRELOAD(&htim21, TIM_CHANNEL_1);
 8002ab8:	4b05      	ldr	r3, [pc, #20]	; (8002ad0 <MX_TIM21_Init+0xfc>)
 8002aba:	681b      	ldr	r3, [r3, #0]
 8002abc:	699a      	ldr	r2, [r3, #24]
 8002abe:	4b04      	ldr	r3, [pc, #16]	; (8002ad0 <MX_TIM21_Init+0xfc>)
 8002ac0:	681b      	ldr	r3, [r3, #0]
 8002ac2:	2108      	movs	r1, #8
 8002ac4:	430a      	orrs	r2, r1
 8002ac6:	619a      	str	r2, [r3, #24]
  /* USER CODE BEGIN TIM21_Init 2 */

  /* USER CODE END TIM21_Init 2 */

}
 8002ac8:	46c0      	nop			; (mov r8, r8)
 8002aca:	46bd      	mov	sp, r7
 8002acc:	b00a      	add	sp, #40	; 0x28
 8002ace:	bd80      	pop	{r7, pc}
 8002ad0:	20000510 	.word	0x20000510
 8002ad4:	40010800 	.word	0x40010800
 8002ad8:	000003e7 	.word	0x000003e7

08002adc <HAL_TIM_Base_MspInit>:

void HAL_TIM_Base_MspInit(TIM_HandleTypeDef* tim_baseHandle)
{
 8002adc:	b580      	push	{r7, lr}
 8002ade:	b082      	sub	sp, #8
 8002ae0:	af00      	add	r7, sp, #0
 8002ae2:	6078      	str	r0, [r7, #4]

  if(tim_baseHandle->Instance==TIM2)
 8002ae4:	687b      	ldr	r3, [r7, #4]
 8002ae6:	681a      	ldr	r2, [r3, #0]
 8002ae8:	2380      	movs	r3, #128	; 0x80
 8002aea:	05db      	lsls	r3, r3, #23
 8002aec:	429a      	cmp	r2, r3
 8002aee:	d132      	bne.n	8002b56 <HAL_TIM_Base_MspInit+0x7a>
  {
  /* USER CODE BEGIN TIM2_MspInit 0 */

  /* USER CODE END TIM2_MspInit 0 */
    /* TIM2 clock enable */
    __HAL_RCC_TIM2_CLK_ENABLE();
 8002af0:	4b24      	ldr	r3, [pc, #144]	; (8002b84 <HAL_TIM_Base_MspInit+0xa8>)
 8002af2:	6b9a      	ldr	r2, [r3, #56]	; 0x38
 8002af4:	4b23      	ldr	r3, [pc, #140]	; (8002b84 <HAL_TIM_Base_MspInit+0xa8>)
 8002af6:	2101      	movs	r1, #1
 8002af8:	430a      	orrs	r2, r1
 8002afa:	639a      	str	r2, [r3, #56]	; 0x38

    /* TIM2 DMA Init */
    /* TIM2_CH3 Init */
    hdma_tim2_ch3.Instance = DMA1_Channel1;
 8002afc:	4b22      	ldr	r3, [pc, #136]	; (8002b88 <HAL_TIM_Base_MspInit+0xac>)
 8002afe:	4a23      	ldr	r2, [pc, #140]	; (8002b8c <HAL_TIM_Base_MspInit+0xb0>)
 8002b00:	601a      	str	r2, [r3, #0]
    hdma_tim2_ch3.Init.Request = DMA_REQUEST_8;
 8002b02:	4b21      	ldr	r3, [pc, #132]	; (8002b88 <HAL_TIM_Base_MspInit+0xac>)
 8002b04:	2208      	movs	r2, #8
 8002b06:	605a      	str	r2, [r3, #4]
    hdma_tim2_ch3.Init.Direction = DMA_MEMORY_TO_PERIPH;
 8002b08:	4b1f      	ldr	r3, [pc, #124]	; (8002b88 <HAL_TIM_Base_MspInit+0xac>)
 8002b0a:	2210      	movs	r2, #16
 8002b0c:	609a      	str	r2, [r3, #8]
    hdma_tim2_ch3.Init.PeriphInc = DMA_PINC_DISABLE;
 8002b0e:	4b1e      	ldr	r3, [pc, #120]	; (8002b88 <HAL_TIM_Base_MspInit+0xac>)
 8002b10:	2200      	movs	r2, #0
 8002b12:	60da      	str	r2, [r3, #12]
    hdma_tim2_ch3.Init.MemInc = DMA_MINC_ENABLE;
 8002b14:	4b1c      	ldr	r3, [pc, #112]	; (8002b88 <HAL_TIM_Base_MspInit+0xac>)
 8002b16:	2280      	movs	r2, #128	; 0x80
 8002b18:	611a      	str	r2, [r3, #16]
    hdma_tim2_ch3.Init.PeriphDataAlignment = DMA_PDATAALIGN_HALFWORD;
 8002b1a:	4b1b      	ldr	r3, [pc, #108]	; (8002b88 <HAL_TIM_Base_MspInit+0xac>)
 8002b1c:	2280      	movs	r2, #128	; 0x80
 8002b1e:	0052      	lsls	r2, r2, #1
 8002b20:	615a      	str	r2, [r3, #20]
    hdma_tim2_ch3.Init.MemDataAlignment = DMA_MDATAALIGN_HALFWORD;
 8002b22:	4b19      	ldr	r3, [pc, #100]	; (8002b88 <HAL_TIM_Base_MspInit+0xac>)
 8002b24:	2280      	movs	r2, #128	; 0x80
 8002b26:	00d2      	lsls	r2, r2, #3
 8002b28:	619a      	str	r2, [r3, #24]
    hdma_tim2_ch3.Init.Mode = DMA_NORMAL;
 8002b2a:	4b17      	ldr	r3, [pc, #92]	; (8002b88 <HAL_TIM_Base_MspInit+0xac>)
 8002b2c:	2200      	movs	r2, #0
 8002b2e:	61da      	str	r2, [r3, #28]
    hdma_tim2_ch3.Init.Priority = DMA_PRIORITY_MEDIUM;
 8002b30:	4b15      	ldr	r3, [pc, #84]	; (8002b88 <HAL_TIM_Base_MspInit+0xac>)
 8002b32:	2280      	movs	r2, #128	; 0x80
 8002b34:	0152      	lsls	r2, r2, #5
 8002b36:	621a      	str	r2, [r3, #32]
    if (HAL_DMA_Init(&hdma_tim2_ch3) != HAL_OK)
 8002b38:	4b13      	ldr	r3, [pc, #76]	; (8002b88 <HAL_TIM_Base_MspInit+0xac>)
 8002b3a:	0018      	movs	r0, r3
 8002b3c:	f000 fcd6 	bl	80034ec <HAL_DMA_Init>
 8002b40:	1e03      	subs	r3, r0, #0
 8002b42:	d001      	beq.n	8002b48 <HAL_TIM_Base_MspInit+0x6c>
    {
      Error_Handler();
 8002b44:	f7fe fa32 	bl	8000fac <Error_Handler>
    }

    __HAL_LINKDMA(tim_baseHandle,hdma[TIM_DMA_ID_CC3],hdma_tim2_ch3);
 8002b48:	687b      	ldr	r3, [r7, #4]
 8002b4a:	4a0f      	ldr	r2, [pc, #60]	; (8002b88 <HAL_TIM_Base_MspInit+0xac>)
 8002b4c:	629a      	str	r2, [r3, #40]	; 0x28
 8002b4e:	4b0e      	ldr	r3, [pc, #56]	; (8002b88 <HAL_TIM_Base_MspInit+0xac>)
 8002b50:	687a      	ldr	r2, [r7, #4]
 8002b52:	629a      	str	r2, [r3, #40]	; 0x28
    HAL_NVIC_EnableIRQ(TIM21_IRQn);
  /* USER CODE BEGIN TIM21_MspInit 1 */

  /* USER CODE END TIM21_MspInit 1 */
  }
}
 8002b54:	e012      	b.n	8002b7c <HAL_TIM_Base_MspInit+0xa0>
  else if(tim_baseHandle->Instance==TIM21)
 8002b56:	687b      	ldr	r3, [r7, #4]
 8002b58:	681b      	ldr	r3, [r3, #0]
 8002b5a:	4a0d      	ldr	r2, [pc, #52]	; (8002b90 <HAL_TIM_Base_MspInit+0xb4>)
 8002b5c:	4293      	cmp	r3, r2
 8002b5e:	d10d      	bne.n	8002b7c <HAL_TIM_Base_MspInit+0xa0>
    __HAL_RCC_TIM21_CLK_ENABLE();
 8002b60:	4b08      	ldr	r3, [pc, #32]	; (8002b84 <HAL_TIM_Base_MspInit+0xa8>)
 8002b62:	6b5a      	ldr	r2, [r3, #52]	; 0x34
 8002b64:	4b07      	ldr	r3, [pc, #28]	; (8002b84 <HAL_TIM_Base_MspInit+0xa8>)
 8002b66:	2104      	movs	r1, #4
 8002b68:	430a      	orrs	r2, r1
 8002b6a:	635a      	str	r2, [r3, #52]	; 0x34
    HAL_NVIC_SetPriority(TIM21_IRQn, 0, 0);
 8002b6c:	2200      	movs	r2, #0
 8002b6e:	2100      	movs	r1, #0
 8002b70:	2014      	movs	r0, #20
 8002b72:	f000 fc89 	bl	8003488 <HAL_NVIC_SetPriority>
    HAL_NVIC_EnableIRQ(TIM21_IRQn);
 8002b76:	2014      	movs	r0, #20
 8002b78:	f000 fc9b 	bl	80034b2 <HAL_NVIC_EnableIRQ>
}
 8002b7c:	46c0      	nop			; (mov r8, r8)
 8002b7e:	46bd      	mov	sp, r7
 8002b80:	b002      	add	sp, #8
 8002b82:	bd80      	pop	{r7, pc}
 8002b84:	40021000 	.word	0x40021000
 8002b88:	20000550 	.word	0x20000550
 8002b8c:	40020008 	.word	0x40020008
 8002b90:	40010800 	.word	0x40010800

08002b94 <HAL_TIM_MspPostInit>:
void HAL_TIM_MspPostInit(TIM_HandleTypeDef* timHandle)
{
 8002b94:	b590      	push	{r4, r7, lr}
 8002b96:	b089      	sub	sp, #36	; 0x24
 8002b98:	af00      	add	r7, sp, #0
 8002b9a:	6078      	str	r0, [r7, #4]

  GPIO_InitTypeDef GPIO_InitStruct = {0};
 8002b9c:	240c      	movs	r4, #12
 8002b9e:	193b      	adds	r3, r7, r4
 8002ba0:	0018      	movs	r0, r3
 8002ba2:	2314      	movs	r3, #20
 8002ba4:	001a      	movs	r2, r3
 8002ba6:	2100      	movs	r1, #0
 8002ba8:	f004 fb48 	bl	800723c <memset>
  if(timHandle->Instance==TIM2)
 8002bac:	687b      	ldr	r3, [r7, #4]
 8002bae:	681a      	ldr	r2, [r3, #0]
 8002bb0:	2380      	movs	r3, #128	; 0x80
 8002bb2:	05db      	lsls	r3, r3, #23
 8002bb4:	429a      	cmp	r2, r3
 8002bb6:	d122      	bne.n	8002bfe <HAL_TIM_MspPostInit+0x6a>
  {
  /* USER CODE BEGIN TIM2_MspPostInit 0 */

  /* USER CODE END TIM2_MspPostInit 0 */

    __HAL_RCC_GPIOA_CLK_ENABLE();
 8002bb8:	4b13      	ldr	r3, [pc, #76]	; (8002c08 <HAL_TIM_MspPostInit+0x74>)
 8002bba:	6ada      	ldr	r2, [r3, #44]	; 0x2c
 8002bbc:	4b12      	ldr	r3, [pc, #72]	; (8002c08 <HAL_TIM_MspPostInit+0x74>)
 8002bbe:	2101      	movs	r1, #1
 8002bc0:	430a      	orrs	r2, r1
 8002bc2:	62da      	str	r2, [r3, #44]	; 0x2c
 8002bc4:	4b10      	ldr	r3, [pc, #64]	; (8002c08 <HAL_TIM_MspPostInit+0x74>)
 8002bc6:	6adb      	ldr	r3, [r3, #44]	; 0x2c
 8002bc8:	2201      	movs	r2, #1
 8002bca:	4013      	ands	r3, r2
 8002bcc:	60bb      	str	r3, [r7, #8]
 8002bce:	68bb      	ldr	r3, [r7, #8]
    /**TIM2 GPIO Configuration
    PA2     ------> TIM2_CH3
    */
    GPIO_InitStruct.Pin = GPIO_PIN_2;
 8002bd0:	0021      	movs	r1, r4
 8002bd2:	187b      	adds	r3, r7, r1
 8002bd4:	2204      	movs	r2, #4
 8002bd6:	601a      	str	r2, [r3, #0]
    GPIO_InitStruct.Mode = GPIO_MODE_AF_PP;
 8002bd8:	187b      	adds	r3, r7, r1
 8002bda:	2202      	movs	r2, #2
 8002bdc:	605a      	str	r2, [r3, #4]
    GPIO_InitStruct.Pull = GPIO_PULLDOWN;
 8002bde:	187b      	adds	r3, r7, r1
 8002be0:	2202      	movs	r2, #2
 8002be2:	609a      	str	r2, [r3, #8]
    GPIO_InitStruct.Speed = GPIO_SPEED_FREQ_HIGH;
 8002be4:	187b      	adds	r3, r7, r1
 8002be6:	2202      	movs	r2, #2
 8002be8:	60da      	str	r2, [r3, #12]
    GPIO_InitStruct.Alternate = GPIO_AF2_TIM2;
 8002bea:	187b      	adds	r3, r7, r1
 8002bec:	2202      	movs	r2, #2
 8002bee:	611a      	str	r2, [r3, #16]
    HAL_GPIO_Init(GPIOA, &GPIO_InitStruct);
 8002bf0:	187a      	adds	r2, r7, r1
 8002bf2:	23a0      	movs	r3, #160	; 0xa0
 8002bf4:	05db      	lsls	r3, r3, #23
 8002bf6:	0011      	movs	r1, r2
 8002bf8:	0018      	movs	r0, r3
 8002bfa:	f001 f81b 	bl	8003c34 <HAL_GPIO_Init>
  /* USER CODE BEGIN TIM2_MspPostInit 1 */

  /* USER CODE END TIM2_MspPostInit 1 */
  }

}
 8002bfe:	46c0      	nop			; (mov r8, r8)
 8002c00:	46bd      	mov	sp, r7
 8002c02:	b009      	add	sp, #36	; 0x24
 8002c04:	bd90      	pop	{r4, r7, pc}
 8002c06:	46c0      	nop			; (mov r8, r8)
 8002c08:	40021000 	.word	0x40021000

08002c0c <_Z16run_time_handlerv>:
struct time_struct data_to_RTC;

/**
 * @brief function is constantly called to get fresh time data from rtc - get time every 500ms
 */
void run_time_handler(void){
 8002c0c:	b580      	push	{r7, lr}
 8002c0e:	af00      	add	r7, sp, #0
	static bool dls_flag_only = false;
	if(data_to_RTC.new_data==2){
 8002c10:	4b19      	ldr	r3, [pc, #100]	; (8002c78 <_Z16run_time_handlerv+0x6c>)
 8002c12:	7a9b      	ldrb	r3, [r3, #10]
 8002c14:	2b02      	cmp	r3, #2
 8002c16:	d107      	bne.n	8002c28 <_Z16run_time_handlerv+0x1c>
		data_to_RTC.new_data = 0;
 8002c18:	4b17      	ldr	r3, [pc, #92]	; (8002c78 <_Z16run_time_handlerv+0x6c>)
 8002c1a:	2200      	movs	r2, #0
 8002c1c:	729a      	strb	r2, [r3, #10]
		write_date_i2c();
 8002c1e:	f000 f967 	bl	8002ef0 <_Z14write_date_i2cv>
		dls_flag_only = true;	//enable change flag only for next Daylight safe check
 8002c22:	4b16      	ldr	r3, [pc, #88]	; (8002c7c <_Z16run_time_handlerv+0x70>)
 8002c24:	2201      	movs	r2, #1
 8002c26:	701a      	strb	r2, [r3, #0]
	}
	if(data_to_RTC.new_data==1){
 8002c28:	4b13      	ldr	r3, [pc, #76]	; (8002c78 <_Z16run_time_handlerv+0x6c>)
 8002c2a:	7a9b      	ldrb	r3, [r3, #10]
 8002c2c:	2b01      	cmp	r3, #1
 8002c2e:	d107      	bne.n	8002c40 <_Z16run_time_handlerv+0x34>
		data_to_RTC.new_data = 0;
 8002c30:	4b11      	ldr	r3, [pc, #68]	; (8002c78 <_Z16run_time_handlerv+0x6c>)
 8002c32:	2200      	movs	r2, #0
 8002c34:	729a      	strb	r2, [r3, #10]
		write_time_i2c();
 8002c36:	f000 f87d 	bl	8002d34 <_Z14write_time_i2cv>
		dls_flag_only = true;
 8002c3a:	4b10      	ldr	r3, [pc, #64]	; (8002c7c <_Z16run_time_handlerv+0x70>)
 8002c3c:	2201      	movs	r2, #1
 8002c3e:	701a      	strb	r2, [r3, #0]


	//TODO: add summertime
	//TODO: add plausibility check when safing date

	if(timeout(time_handler_timer)){
 8002c40:	4b0f      	ldr	r3, [pc, #60]	; (8002c80 <_Z16run_time_handlerv+0x74>)
 8002c42:	681b      	ldr	r3, [r3, #0]
 8002c44:	0018      	movs	r0, r3
 8002c46:	f7fe f99f 	bl	8000f88 <timeout>
 8002c4a:	1e03      	subs	r3, r0, #0
 8002c4c:	d011      	beq.n	8002c72 <_Z16run_time_handlerv+0x66>
		time_handler_timer = start_timer_ms(TIME_UPDATE_MS);
 8002c4e:	2064      	movs	r0, #100	; 0x64
 8002c50:	f7fe f98a 	bl	8000f68 <start_timer_ms>
 8002c54:	0002      	movs	r2, r0
 8002c56:	4b0a      	ldr	r3, [pc, #40]	; (8002c80 <_Z16run_time_handlerv+0x74>)
 8002c58:	601a      	str	r2, [r3, #0]

		read_date_i2c();
 8002c5a:	f000 f8c9 	bl	8002df0 <_Z13read_date_i2cv>
		read_time_i2c();
 8002c5e:	f000 f811 	bl	8002c84 <_Z13read_time_i2cv>
		dls_check(dls_flag_only);	//check for daylight saving + apply
 8002c62:	4b06      	ldr	r3, [pc, #24]	; (8002c7c <_Z16run_time_handlerv+0x70>)
 8002c64:	781b      	ldrb	r3, [r3, #0]
 8002c66:	0018      	movs	r0, r3
 8002c68:	f000 f9bc 	bl	8002fe4 <_Z9dls_checkb>
		dls_flag_only = false;
 8002c6c:	4b03      	ldr	r3, [pc, #12]	; (8002c7c <_Z16run_time_handlerv+0x70>)
 8002c6e:	2200      	movs	r2, #0
 8002c70:	701a      	strb	r2, [r3, #0]
	}
}
 8002c72:	46c0      	nop			; (mov r8, r8)
 8002c74:	46bd      	mov	sp, r7
 8002c76:	bd80      	pop	{r7, pc}
 8002c78:	20000020 	.word	0x20000020
 8002c7c:	2000059c 	.word	0x2000059c
 8002c80:	20000598 	.word	0x20000598

08002c84 <_Z13read_time_i2cv>:

/**
 * @brief function to read time information from RTC info RAM
 * store read data in time_struct data_from_RTC
 */
void read_time_i2c(void){
 8002c84:	b580      	push	{r7, lr}
 8002c86:	b084      	sub	sp, #16
 8002c88:	af02      	add	r7, sp, #8
	uint8_t temp[3];
	temp[0] = ADDR_SECONDS;	//start address for read operation
 8002c8a:	1d3b      	adds	r3, r7, #4
 8002c8c:	2200      	movs	r2, #0
 8002c8e:	701a      	strb	r2, [r3, #0]

	HAL_I2C_Master_Transmit(&hi2c1, DS3231_MASTER_ADDRESS, (uint8_t *)temp, 1, 10);
 8002c90:	1d3a      	adds	r2, r7, #4
 8002c92:	4826      	ldr	r0, [pc, #152]	; (8002d2c <_Z13read_time_i2cv+0xa8>)
 8002c94:	230a      	movs	r3, #10
 8002c96:	9300      	str	r3, [sp, #0]
 8002c98:	2301      	movs	r3, #1
 8002c9a:	21d1      	movs	r1, #209	; 0xd1
 8002c9c:	f001 fa08 	bl	80040b0 <HAL_I2C_Master_Transmit>
	HAL_I2C_Master_Receive(&hi2c1, DS3231_SLAVE_ADDRESS, (uint8_t *)temp, 3, 10);
 8002ca0:	1d3a      	adds	r2, r7, #4
 8002ca2:	4822      	ldr	r0, [pc, #136]	; (8002d2c <_Z13read_time_i2cv+0xa8>)
 8002ca4:	230a      	movs	r3, #10
 8002ca6:	9300      	str	r3, [sp, #0]
 8002ca8:	2303      	movs	r3, #3
 8002caa:	21d0      	movs	r1, #208	; 0xd0
 8002cac:	f001 fb08 	bl	80042c0 <HAL_I2C_Master_Receive>

	data_from_RTC.seconds = ((temp[0]&0xf0)>>4)*10 + (temp[0]&0x0f);	//conversion from hex to dec
 8002cb0:	1d3b      	adds	r3, r7, #4
 8002cb2:	781b      	ldrb	r3, [r3, #0]
 8002cb4:	091b      	lsrs	r3, r3, #4
 8002cb6:	b2db      	uxtb	r3, r3
 8002cb8:	1c1a      	adds	r2, r3, #0
 8002cba:	0092      	lsls	r2, r2, #2
 8002cbc:	18d3      	adds	r3, r2, r3
 8002cbe:	18db      	adds	r3, r3, r3
 8002cc0:	b2da      	uxtb	r2, r3
 8002cc2:	1d3b      	adds	r3, r7, #4
 8002cc4:	781b      	ldrb	r3, [r3, #0]
 8002cc6:	210f      	movs	r1, #15
 8002cc8:	400b      	ands	r3, r1
 8002cca:	b2db      	uxtb	r3, r3
 8002ccc:	18d3      	adds	r3, r2, r3
 8002cce:	b2da      	uxtb	r2, r3
 8002cd0:	4b17      	ldr	r3, [pc, #92]	; (8002d30 <_Z13read_time_i2cv+0xac>)
 8002cd2:	701a      	strb	r2, [r3, #0]
	data_from_RTC.minutes = ((temp[1]&0xf0)>>4)*10 + (temp[1]&0x0f);
 8002cd4:	1d3b      	adds	r3, r7, #4
 8002cd6:	785b      	ldrb	r3, [r3, #1]
 8002cd8:	091b      	lsrs	r3, r3, #4
 8002cda:	b2db      	uxtb	r3, r3
 8002cdc:	1c1a      	adds	r2, r3, #0
 8002cde:	0092      	lsls	r2, r2, #2
 8002ce0:	18d3      	adds	r3, r2, r3
 8002ce2:	18db      	adds	r3, r3, r3
 8002ce4:	b2da      	uxtb	r2, r3
 8002ce6:	1d3b      	adds	r3, r7, #4
 8002ce8:	785b      	ldrb	r3, [r3, #1]
 8002cea:	210f      	movs	r1, #15
 8002cec:	400b      	ands	r3, r1
 8002cee:	b2db      	uxtb	r3, r3
 8002cf0:	18d3      	adds	r3, r2, r3
 8002cf2:	b2da      	uxtb	r2, r3
 8002cf4:	4b0e      	ldr	r3, [pc, #56]	; (8002d30 <_Z13read_time_i2cv+0xac>)
 8002cf6:	705a      	strb	r2, [r3, #1]
	data_from_RTC.hours = ((temp[2]&0x30)>>4)*10 + (temp[2]&0x0f);
 8002cf8:	1d3b      	adds	r3, r7, #4
 8002cfa:	789b      	ldrb	r3, [r3, #2]
 8002cfc:	091b      	lsrs	r3, r3, #4
 8002cfe:	b2db      	uxtb	r3, r3
 8002d00:	2203      	movs	r2, #3
 8002d02:	4013      	ands	r3, r2
 8002d04:	b2db      	uxtb	r3, r3
 8002d06:	1c1a      	adds	r2, r3, #0
 8002d08:	0092      	lsls	r2, r2, #2
 8002d0a:	18d3      	adds	r3, r2, r3
 8002d0c:	18db      	adds	r3, r3, r3
 8002d0e:	b2da      	uxtb	r2, r3
 8002d10:	1d3b      	adds	r3, r7, #4
 8002d12:	789b      	ldrb	r3, [r3, #2]
 8002d14:	210f      	movs	r1, #15
 8002d16:	400b      	ands	r3, r1
 8002d18:	b2db      	uxtb	r3, r3
 8002d1a:	18d3      	adds	r3, r2, r3
 8002d1c:	b2da      	uxtb	r2, r3
 8002d1e:	4b04      	ldr	r3, [pc, #16]	; (8002d30 <_Z13read_time_i2cv+0xac>)
 8002d20:	709a      	strb	r2, [r3, #2]

	//check for summer time

}
 8002d22:	46c0      	nop			; (mov r8, r8)
 8002d24:	46bd      	mov	sp, r7
 8002d26:	b002      	add	sp, #8
 8002d28:	bd80      	pop	{r7, pc}
 8002d2a:	46c0      	nop			; (mov r8, r8)
 8002d2c:	20000050 	.word	0x20000050
 8002d30:	20000014 	.word	0x20000014

08002d34 <_Z14write_time_i2cv>:

/**
 * @brief function to write time information from RAM into RTC
 * read data from data_to_RTC and transfer to RTC
 */
void write_time_i2c(void){
 8002d34:	b590      	push	{r4, r7, lr}
 8002d36:	b085      	sub	sp, #20
 8002d38:	af02      	add	r7, sp, #8
	uint8_t temp[4];

	//convert from summer time

	temp[0] = ADDR_SECONDS;	//start address for write operation
 8002d3a:	1d3b      	adds	r3, r7, #4
 8002d3c:	2200      	movs	r2, #0
 8002d3e:	701a      	strb	r2, [r3, #0]
	temp[1] = ((data_to_RTC.seconds/10)<<4)|data_to_RTC.seconds%10;
 8002d40:	4b29      	ldr	r3, [pc, #164]	; (8002de8 <_Z14write_time_i2cv+0xb4>)
 8002d42:	781b      	ldrb	r3, [r3, #0]
 8002d44:	210a      	movs	r1, #10
 8002d46:	0018      	movs	r0, r3
 8002d48:	f7fd f9de 	bl	8000108 <__udivsi3>
 8002d4c:	0003      	movs	r3, r0
 8002d4e:	b2db      	uxtb	r3, r3
 8002d50:	011b      	lsls	r3, r3, #4
 8002d52:	b25c      	sxtb	r4, r3
 8002d54:	4b24      	ldr	r3, [pc, #144]	; (8002de8 <_Z14write_time_i2cv+0xb4>)
 8002d56:	781b      	ldrb	r3, [r3, #0]
 8002d58:	210a      	movs	r1, #10
 8002d5a:	0018      	movs	r0, r3
 8002d5c:	f7fd fa5a 	bl	8000214 <__aeabi_uidivmod>
 8002d60:	000b      	movs	r3, r1
 8002d62:	b2db      	uxtb	r3, r3
 8002d64:	b25b      	sxtb	r3, r3
 8002d66:	4323      	orrs	r3, r4
 8002d68:	b25b      	sxtb	r3, r3
 8002d6a:	b2da      	uxtb	r2, r3
 8002d6c:	1d3b      	adds	r3, r7, #4
 8002d6e:	705a      	strb	r2, [r3, #1]
	temp[2] = ((data_to_RTC.minutes/10)<<4)|data_to_RTC.minutes%10;
 8002d70:	4b1d      	ldr	r3, [pc, #116]	; (8002de8 <_Z14write_time_i2cv+0xb4>)
 8002d72:	785b      	ldrb	r3, [r3, #1]
 8002d74:	210a      	movs	r1, #10
 8002d76:	0018      	movs	r0, r3
 8002d78:	f7fd f9c6 	bl	8000108 <__udivsi3>
 8002d7c:	0003      	movs	r3, r0
 8002d7e:	b2db      	uxtb	r3, r3
 8002d80:	011b      	lsls	r3, r3, #4
 8002d82:	b25c      	sxtb	r4, r3
 8002d84:	4b18      	ldr	r3, [pc, #96]	; (8002de8 <_Z14write_time_i2cv+0xb4>)
 8002d86:	785b      	ldrb	r3, [r3, #1]
 8002d88:	210a      	movs	r1, #10
 8002d8a:	0018      	movs	r0, r3
 8002d8c:	f7fd fa42 	bl	8000214 <__aeabi_uidivmod>
 8002d90:	000b      	movs	r3, r1
 8002d92:	b2db      	uxtb	r3, r3
 8002d94:	b25b      	sxtb	r3, r3
 8002d96:	4323      	orrs	r3, r4
 8002d98:	b25b      	sxtb	r3, r3
 8002d9a:	b2da      	uxtb	r2, r3
 8002d9c:	1d3b      	adds	r3, r7, #4
 8002d9e:	709a      	strb	r2, [r3, #2]
	temp[3] = ((data_to_RTC.hours/10)<<4)|data_to_RTC.hours%10;
 8002da0:	4b11      	ldr	r3, [pc, #68]	; (8002de8 <_Z14write_time_i2cv+0xb4>)
 8002da2:	789b      	ldrb	r3, [r3, #2]
 8002da4:	210a      	movs	r1, #10
 8002da6:	0018      	movs	r0, r3
 8002da8:	f7fd f9ae 	bl	8000108 <__udivsi3>
 8002dac:	0003      	movs	r3, r0
 8002dae:	b2db      	uxtb	r3, r3
 8002db0:	011b      	lsls	r3, r3, #4
 8002db2:	b25c      	sxtb	r4, r3
 8002db4:	4b0c      	ldr	r3, [pc, #48]	; (8002de8 <_Z14write_time_i2cv+0xb4>)
 8002db6:	789b      	ldrb	r3, [r3, #2]
 8002db8:	210a      	movs	r1, #10
 8002dba:	0018      	movs	r0, r3
 8002dbc:	f7fd fa2a 	bl	8000214 <__aeabi_uidivmod>
 8002dc0:	000b      	movs	r3, r1
 8002dc2:	b2db      	uxtb	r3, r3
 8002dc4:	b25b      	sxtb	r3, r3
 8002dc6:	4323      	orrs	r3, r4
 8002dc8:	b25b      	sxtb	r3, r3
 8002dca:	b2da      	uxtb	r2, r3
 8002dcc:	1d3b      	adds	r3, r7, #4
 8002dce:	70da      	strb	r2, [r3, #3]

	HAL_I2C_Master_Transmit(&hi2c1, DS3231_MASTER_ADDRESS,(uint8_t *)temp, 4, 10);
 8002dd0:	1d3a      	adds	r2, r7, #4
 8002dd2:	4806      	ldr	r0, [pc, #24]	; (8002dec <_Z14write_time_i2cv+0xb8>)
 8002dd4:	230a      	movs	r3, #10
 8002dd6:	9300      	str	r3, [sp, #0]
 8002dd8:	2304      	movs	r3, #4
 8002dda:	21d1      	movs	r1, #209	; 0xd1
 8002ddc:	f001 f968 	bl	80040b0 <HAL_I2C_Master_Transmit>
}
 8002de0:	46c0      	nop			; (mov r8, r8)
 8002de2:	46bd      	mov	sp, r7
 8002de4:	b003      	add	sp, #12
 8002de6:	bd90      	pop	{r4, r7, pc}
 8002de8:	20000020 	.word	0x20000020
 8002dec:	20000050 	.word	0x20000050

08002df0 <_Z13read_date_i2cv>:

/**
 * @brief function to read date information from RTC info RAM
 * store read date in time_struct data_from_RTC
 */
void read_date_i2c(void){
 8002df0:	b590      	push	{r4, r7, lr}
 8002df2:	b085      	sub	sp, #20
 8002df4:	af02      	add	r7, sp, #8
	uint8_t temp[4];
	temp[0] = ADDR_DAY;	//start address of read operation
 8002df6:	1d3b      	adds	r3, r7, #4
 8002df8:	2203      	movs	r2, #3
 8002dfa:	701a      	strb	r2, [r3, #0]

	HAL_I2C_Master_Transmit(&hi2c1, DS3231_MASTER_ADDRESS, (uint8_t *)temp, 1, 10);
 8002dfc:	1d3a      	adds	r2, r7, #4
 8002dfe:	4839      	ldr	r0, [pc, #228]	; (8002ee4 <_Z13read_date_i2cv+0xf4>)
 8002e00:	230a      	movs	r3, #10
 8002e02:	9300      	str	r3, [sp, #0]
 8002e04:	2301      	movs	r3, #1
 8002e06:	21d1      	movs	r1, #209	; 0xd1
 8002e08:	f001 f952 	bl	80040b0 <HAL_I2C_Master_Transmit>
	HAL_I2C_Master_Receive(&hi2c1, DS3231_SLAVE_ADDRESS, (uint8_t *)temp, 4, 10);
 8002e0c:	1d3a      	adds	r2, r7, #4
 8002e0e:	4835      	ldr	r0, [pc, #212]	; (8002ee4 <_Z13read_date_i2cv+0xf4>)
 8002e10:	230a      	movs	r3, #10
 8002e12:	9300      	str	r3, [sp, #0]
 8002e14:	2304      	movs	r3, #4
 8002e16:	21d0      	movs	r1, #208	; 0xd0
 8002e18:	f001 fa52 	bl	80042c0 <HAL_I2C_Master_Receive>

	data_from_RTC.day = temp[0];
 8002e1c:	1d3b      	adds	r3, r7, #4
 8002e1e:	781a      	ldrb	r2, [r3, #0]
 8002e20:	4b31      	ldr	r3, [pc, #196]	; (8002ee8 <_Z13read_date_i2cv+0xf8>)
 8002e22:	70da      	strb	r2, [r3, #3]
	data_from_RTC.date = ((temp[1]&0x30)>>4)*10 + (temp[1]&0x0f);
 8002e24:	1d3b      	adds	r3, r7, #4
 8002e26:	785b      	ldrb	r3, [r3, #1]
 8002e28:	091b      	lsrs	r3, r3, #4
 8002e2a:	b2db      	uxtb	r3, r3
 8002e2c:	2203      	movs	r2, #3
 8002e2e:	4013      	ands	r3, r2
 8002e30:	b2db      	uxtb	r3, r3
 8002e32:	1c1a      	adds	r2, r3, #0
 8002e34:	0092      	lsls	r2, r2, #2
 8002e36:	18d3      	adds	r3, r2, r3
 8002e38:	18db      	adds	r3, r3, r3
 8002e3a:	b2da      	uxtb	r2, r3
 8002e3c:	1d3b      	adds	r3, r7, #4
 8002e3e:	785b      	ldrb	r3, [r3, #1]
 8002e40:	210f      	movs	r1, #15
 8002e42:	400b      	ands	r3, r1
 8002e44:	b2db      	uxtb	r3, r3
 8002e46:	18d3      	adds	r3, r2, r3
 8002e48:	b2da      	uxtb	r2, r3
 8002e4a:	4b27      	ldr	r3, [pc, #156]	; (8002ee8 <_Z13read_date_i2cv+0xf8>)
 8002e4c:	711a      	strb	r2, [r3, #4]
	data_from_RTC.month = ((temp[2]&0x10)>>4)*10 + (temp[2]&0x0f);
 8002e4e:	1d3b      	adds	r3, r7, #4
 8002e50:	789b      	ldrb	r3, [r3, #2]
 8002e52:	091b      	lsrs	r3, r3, #4
 8002e54:	b2db      	uxtb	r3, r3
 8002e56:	2201      	movs	r2, #1
 8002e58:	4013      	ands	r3, r2
 8002e5a:	b2db      	uxtb	r3, r3
 8002e5c:	1c1a      	adds	r2, r3, #0
 8002e5e:	0092      	lsls	r2, r2, #2
 8002e60:	18d3      	adds	r3, r2, r3
 8002e62:	18db      	adds	r3, r3, r3
 8002e64:	b2da      	uxtb	r2, r3
 8002e66:	1d3b      	adds	r3, r7, #4
 8002e68:	789b      	ldrb	r3, [r3, #2]
 8002e6a:	210f      	movs	r1, #15
 8002e6c:	400b      	ands	r3, r1
 8002e6e:	b2db      	uxtb	r3, r3
 8002e70:	18d3      	adds	r3, r2, r3
 8002e72:	b2da      	uxtb	r2, r3
 8002e74:	4b1c      	ldr	r3, [pc, #112]	; (8002ee8 <_Z13read_date_i2cv+0xf8>)
 8002e76:	715a      	strb	r2, [r3, #5]
	data_from_RTC.century = (temp[2] & 0x80) >> 7;	//if century == 1 --> year is bigger that 2000
 8002e78:	1d3b      	adds	r3, r7, #4
 8002e7a:	789b      	ldrb	r3, [r3, #2]
 8002e7c:	b25b      	sxtb	r3, r3
 8002e7e:	b2db      	uxtb	r3, r3
 8002e80:	09db      	lsrs	r3, r3, #7
 8002e82:	b2da      	uxtb	r2, r3
 8002e84:	4b18      	ldr	r3, [pc, #96]	; (8002ee8 <_Z13read_date_i2cv+0xf8>)
 8002e86:	721a      	strb	r2, [r3, #8]
	data_from_RTC.year = 1900 + (data_from_RTC.century * 100);
 8002e88:	4b17      	ldr	r3, [pc, #92]	; (8002ee8 <_Z13read_date_i2cv+0xf8>)
 8002e8a:	7a1b      	ldrb	r3, [r3, #8]
 8002e8c:	b29b      	uxth	r3, r3
 8002e8e:	2264      	movs	r2, #100	; 0x64
 8002e90:	4353      	muls	r3, r2
 8002e92:	b29b      	uxth	r3, r3
 8002e94:	4a15      	ldr	r2, [pc, #84]	; (8002eec <_Z13read_date_i2cv+0xfc>)
 8002e96:	4694      	mov	ip, r2
 8002e98:	4463      	add	r3, ip
 8002e9a:	b29a      	uxth	r2, r3
 8002e9c:	4b12      	ldr	r3, [pc, #72]	; (8002ee8 <_Z13read_date_i2cv+0xf8>)
 8002e9e:	80da      	strh	r2, [r3, #6]
	data_from_RTC.year = data_from_RTC.year + (((temp[3]&0xf0)>>4)*10) + ((temp[3]&0x0f)%10);
 8002ea0:	4b11      	ldr	r3, [pc, #68]	; (8002ee8 <_Z13read_date_i2cv+0xf8>)
 8002ea2:	88da      	ldrh	r2, [r3, #6]
 8002ea4:	1d3b      	adds	r3, r7, #4
 8002ea6:	78db      	ldrb	r3, [r3, #3]
 8002ea8:	091b      	lsrs	r3, r3, #4
 8002eaa:	b2db      	uxtb	r3, r3
 8002eac:	b29b      	uxth	r3, r3
 8002eae:	1c19      	adds	r1, r3, #0
 8002eb0:	0089      	lsls	r1, r1, #2
 8002eb2:	18cb      	adds	r3, r1, r3
 8002eb4:	18db      	adds	r3, r3, r3
 8002eb6:	b29b      	uxth	r3, r3
 8002eb8:	18d3      	adds	r3, r2, r3
 8002eba:	b29c      	uxth	r4, r3
 8002ebc:	1d3b      	adds	r3, r7, #4
 8002ebe:	78db      	ldrb	r3, [r3, #3]
 8002ec0:	220f      	movs	r2, #15
 8002ec2:	4013      	ands	r3, r2
 8002ec4:	b2db      	uxtb	r3, r3
 8002ec6:	210a      	movs	r1, #10
 8002ec8:	0018      	movs	r0, r3
 8002eca:	f7fd f9a3 	bl	8000214 <__aeabi_uidivmod>
 8002ece:	000b      	movs	r3, r1
 8002ed0:	b2db      	uxtb	r3, r3
 8002ed2:	b29b      	uxth	r3, r3
 8002ed4:	18e3      	adds	r3, r4, r3
 8002ed6:	b29a      	uxth	r2, r3
 8002ed8:	4b03      	ldr	r3, [pc, #12]	; (8002ee8 <_Z13read_date_i2cv+0xf8>)
 8002eda:	80da      	strh	r2, [r3, #6]

	//check for summer time
}
 8002edc:	46c0      	nop			; (mov r8, r8)
 8002ede:	46bd      	mov	sp, r7
 8002ee0:	b003      	add	sp, #12
 8002ee2:	bd90      	pop	{r4, r7, pc}
 8002ee4:	20000050 	.word	0x20000050
 8002ee8:	20000014 	.word	0x20000014
 8002eec:	0000076c 	.word	0x0000076c

08002ef0 <_Z14write_date_i2cv>:

/**
 * @brief function to write date information from RAM into RTC
 * read data from data_to_RTC and transfer to RTC
 */
void write_date_i2c(void){
 8002ef0:	b590      	push	{r4, r7, lr}
 8002ef2:	b085      	sub	sp, #20
 8002ef4:	af02      	add	r7, sp, #8
	uint8_t temp[5]={0};
 8002ef6:	003b      	movs	r3, r7
 8002ef8:	2200      	movs	r2, #0
 8002efa:	601a      	str	r2, [r3, #0]
 8002efc:	2200      	movs	r2, #0
 8002efe:	711a      	strb	r2, [r3, #4]

	//convert from summer time

	temp[0] = ADDR_DAY;	//start address for write operation
 8002f00:	003b      	movs	r3, r7
 8002f02:	2203      	movs	r2, #3
 8002f04:	701a      	strb	r2, [r3, #0]
	temp[1] = data_to_RTC.day;
 8002f06:	4b35      	ldr	r3, [pc, #212]	; (8002fdc <_Z14write_date_i2cv+0xec>)
 8002f08:	78da      	ldrb	r2, [r3, #3]
 8002f0a:	003b      	movs	r3, r7
 8002f0c:	705a      	strb	r2, [r3, #1]
	temp[2] = ((data_to_RTC.date/10)<<4)|data_to_RTC.date%10;
 8002f0e:	4b33      	ldr	r3, [pc, #204]	; (8002fdc <_Z14write_date_i2cv+0xec>)
 8002f10:	791b      	ldrb	r3, [r3, #4]
 8002f12:	210a      	movs	r1, #10
 8002f14:	0018      	movs	r0, r3
 8002f16:	f7fd f8f7 	bl	8000108 <__udivsi3>
 8002f1a:	0003      	movs	r3, r0
 8002f1c:	b2db      	uxtb	r3, r3
 8002f1e:	011b      	lsls	r3, r3, #4
 8002f20:	b25c      	sxtb	r4, r3
 8002f22:	4b2e      	ldr	r3, [pc, #184]	; (8002fdc <_Z14write_date_i2cv+0xec>)
 8002f24:	791b      	ldrb	r3, [r3, #4]
 8002f26:	210a      	movs	r1, #10
 8002f28:	0018      	movs	r0, r3
 8002f2a:	f7fd f973 	bl	8000214 <__aeabi_uidivmod>
 8002f2e:	000b      	movs	r3, r1
 8002f30:	b2db      	uxtb	r3, r3
 8002f32:	b25b      	sxtb	r3, r3
 8002f34:	4323      	orrs	r3, r4
 8002f36:	b25b      	sxtb	r3, r3
 8002f38:	b2da      	uxtb	r2, r3
 8002f3a:	003b      	movs	r3, r7
 8002f3c:	709a      	strb	r2, [r3, #2]
	temp[3] = ((data_to_RTC.month/10)<<4)|data_to_RTC.month%10 | (data_to_RTC.year/2000)<<7;
 8002f3e:	4b27      	ldr	r3, [pc, #156]	; (8002fdc <_Z14write_date_i2cv+0xec>)
 8002f40:	795b      	ldrb	r3, [r3, #5]
 8002f42:	210a      	movs	r1, #10
 8002f44:	0018      	movs	r0, r3
 8002f46:	f7fd f8df 	bl	8000108 <__udivsi3>
 8002f4a:	0003      	movs	r3, r0
 8002f4c:	b2db      	uxtb	r3, r3
 8002f4e:	011b      	lsls	r3, r3, #4
 8002f50:	b25c      	sxtb	r4, r3
 8002f52:	4b22      	ldr	r3, [pc, #136]	; (8002fdc <_Z14write_date_i2cv+0xec>)
 8002f54:	795b      	ldrb	r3, [r3, #5]
 8002f56:	210a      	movs	r1, #10
 8002f58:	0018      	movs	r0, r3
 8002f5a:	f7fd f95b 	bl	8000214 <__aeabi_uidivmod>
 8002f5e:	000b      	movs	r3, r1
 8002f60:	b2db      	uxtb	r3, r3
 8002f62:	b25b      	sxtb	r3, r3
 8002f64:	4323      	orrs	r3, r4
 8002f66:	b25c      	sxtb	r4, r3
 8002f68:	4b1c      	ldr	r3, [pc, #112]	; (8002fdc <_Z14write_date_i2cv+0xec>)
 8002f6a:	88db      	ldrh	r3, [r3, #6]
 8002f6c:	22fa      	movs	r2, #250	; 0xfa
 8002f6e:	00d1      	lsls	r1, r2, #3
 8002f70:	0018      	movs	r0, r3
 8002f72:	f7fd f8c9 	bl	8000108 <__udivsi3>
 8002f76:	0003      	movs	r3, r0
 8002f78:	b29b      	uxth	r3, r3
 8002f7a:	01db      	lsls	r3, r3, #7
 8002f7c:	b25b      	sxtb	r3, r3
 8002f7e:	4323      	orrs	r3, r4
 8002f80:	b25b      	sxtb	r3, r3
 8002f82:	b2da      	uxtb	r2, r3
 8002f84:	003b      	movs	r3, r7
 8002f86:	70da      	strb	r2, [r3, #3]
	temp[4] = ((data_to_RTC.year %100) / 10)<<4 | data_to_RTC.year%10;
 8002f88:	4b14      	ldr	r3, [pc, #80]	; (8002fdc <_Z14write_date_i2cv+0xec>)
 8002f8a:	88db      	ldrh	r3, [r3, #6]
 8002f8c:	2164      	movs	r1, #100	; 0x64
 8002f8e:	0018      	movs	r0, r3
 8002f90:	f7fd f940 	bl	8000214 <__aeabi_uidivmod>
 8002f94:	000b      	movs	r3, r1
 8002f96:	b29b      	uxth	r3, r3
 8002f98:	210a      	movs	r1, #10
 8002f9a:	0018      	movs	r0, r3
 8002f9c:	f7fd f8b4 	bl	8000108 <__udivsi3>
 8002fa0:	0003      	movs	r3, r0
 8002fa2:	b29b      	uxth	r3, r3
 8002fa4:	011b      	lsls	r3, r3, #4
 8002fa6:	b25c      	sxtb	r4, r3
 8002fa8:	4b0c      	ldr	r3, [pc, #48]	; (8002fdc <_Z14write_date_i2cv+0xec>)
 8002faa:	88db      	ldrh	r3, [r3, #6]
 8002fac:	210a      	movs	r1, #10
 8002fae:	0018      	movs	r0, r3
 8002fb0:	f7fd f930 	bl	8000214 <__aeabi_uidivmod>
 8002fb4:	000b      	movs	r3, r1
 8002fb6:	b29b      	uxth	r3, r3
 8002fb8:	b25b      	sxtb	r3, r3
 8002fba:	4323      	orrs	r3, r4
 8002fbc:	b25b      	sxtb	r3, r3
 8002fbe:	b2da      	uxtb	r2, r3
 8002fc0:	003b      	movs	r3, r7
 8002fc2:	711a      	strb	r2, [r3, #4]

	HAL_I2C_Master_Transmit(&hi2c1, DS3231_MASTER_ADDRESS, (uint8_t *)temp, 5, 10);
 8002fc4:	003a      	movs	r2, r7
 8002fc6:	4806      	ldr	r0, [pc, #24]	; (8002fe0 <_Z14write_date_i2cv+0xf0>)
 8002fc8:	230a      	movs	r3, #10
 8002fca:	9300      	str	r3, [sp, #0]
 8002fcc:	2305      	movs	r3, #5
 8002fce:	21d1      	movs	r1, #209	; 0xd1
 8002fd0:	f001 f86e 	bl	80040b0 <HAL_I2C_Master_Transmit>
}
 8002fd4:	46c0      	nop			; (mov r8, r8)
 8002fd6:	46bd      	mov	sp, r7
 8002fd8:	b003      	add	sp, #12
 8002fda:	bd90      	pop	{r4, r7, pc}
 8002fdc:	20000020 	.word	0x20000020
 8002fe0:	20000050 	.word	0x20000050

08002fe4 <_Z9dls_checkb>:
 *  @brief function checks Flag, if day light saving is applied, applies if necessary, re/sets Flag if necessary
 *  @param flag_only: functions only alters the flag and not the actual time value inside the RTC
 *  @info: If DLS applies, the hour byte in the RTC is increased by one and the change is signalized by turning the
 *  ALARM 1 SECONDS Byte to 1 - this bit is used for the DLS FLAG (1 = DLS is applied, 0 = DLS is not applied)
 */
void dls_check(bool flag_only){
 8002fe4:	b590      	push	{r4, r7, lr}
 8002fe6:	b085      	sub	sp, #20
 8002fe8:	af00      	add	r7, sp, #0
 8002fea:	0002      	movs	r2, r0
 8002fec:	1dfb      	adds	r3, r7, #7
 8002fee:	701a      	strb	r2, [r3, #0]
	static bool dls_needed = false;
	static bool dls_active = false;
	uint8_t offset = 0;			//add hysterese behaviour for fall, when clock switches from 03:00 to 02:00 - code will reactivate dls, since dls is deactivated altough it should be activated based on time+date
 8002ff0:	240f      	movs	r4, #15
 8002ff2:	193b      	adds	r3, r7, r4
 8002ff4:	2200      	movs	r2, #0
 8002ff6:	701a      	strb	r2, [r3, #0]

	//read DLS bit
	dls_active = read_i2c_single(ADDR_A1SECONDS);
 8002ff8:	2007      	movs	r0, #7
 8002ffa:	f000 f8db 	bl	80031b4 <_Z15read_i2c_singleh>
 8002ffe:	0003      	movs	r3, r0
 8003000:	1e5a      	subs	r2, r3, #1
 8003002:	4193      	sbcs	r3, r2
 8003004:	b2da      	uxtb	r2, r3
 8003006:	4b58      	ldr	r3, [pc, #352]	; (8003168 <_Z9dls_checkb+0x184>)
 8003008:	701a      	strb	r2, [r3, #0]
	if(dls_active==0x1){
 800300a:	4b57      	ldr	r3, [pc, #348]	; (8003168 <_Z9dls_checkb+0x184>)
 800300c:	781b      	ldrb	r3, [r3, #0]
 800300e:	2b01      	cmp	r3, #1
 8003010:	d106      	bne.n	8003020 <_Z9dls_checkb+0x3c>
		offset = 1;
 8003012:	193b      	adds	r3, r7, r4
 8003014:	2201      	movs	r2, #1
 8003016:	701a      	strb	r2, [r3, #0]
		data_from_RTC.summer_time = true;
 8003018:	4b54      	ldr	r3, [pc, #336]	; (800316c <_Z9dls_checkb+0x188>)
 800301a:	2201      	movs	r2, #1
 800301c:	725a      	strb	r2, [r3, #9]
 800301e:	e006      	b.n	800302e <_Z9dls_checkb+0x4a>
	}
	else{
		offset = 0;
 8003020:	230f      	movs	r3, #15
 8003022:	18fb      	adds	r3, r7, r3
 8003024:	2200      	movs	r2, #0
 8003026:	701a      	strb	r2, [r3, #0]
		data_from_RTC.summer_time = false;
 8003028:	4b50      	ldr	r3, [pc, #320]	; (800316c <_Z9dls_checkb+0x188>)
 800302a:	2200      	movs	r2, #0
 800302c:	725a      	strb	r2, [r3, #9]
	}
	//check date + time: Should DLS be active?
	if((data_from_RTC.month == 3 && data_from_RTC.date>=25 && data_from_RTC.day==7 && data_from_RTC.hours>=2 )	//March, last sunday, later than 02:00
 800302e:	4b4f      	ldr	r3, [pc, #316]	; (800316c <_Z9dls_checkb+0x188>)
 8003030:	795b      	ldrb	r3, [r3, #5]
 8003032:	2b03      	cmp	r3, #3
 8003034:	d10b      	bne.n	800304e <_Z9dls_checkb+0x6a>
 8003036:	4b4d      	ldr	r3, [pc, #308]	; (800316c <_Z9dls_checkb+0x188>)
 8003038:	791b      	ldrb	r3, [r3, #4]
 800303a:	2b18      	cmp	r3, #24
 800303c:	d907      	bls.n	800304e <_Z9dls_checkb+0x6a>
 800303e:	4b4b      	ldr	r3, [pc, #300]	; (800316c <_Z9dls_checkb+0x188>)
 8003040:	78db      	ldrb	r3, [r3, #3]
 8003042:	2b07      	cmp	r3, #7
 8003044:	d103      	bne.n	800304e <_Z9dls_checkb+0x6a>
 8003046:	4b49      	ldr	r3, [pc, #292]	; (800316c <_Z9dls_checkb+0x188>)
 8003048:	789b      	ldrb	r3, [r3, #2]
 800304a:	2b01      	cmp	r3, #1
 800304c:	d844      	bhi.n	80030d8 <_Z9dls_checkb+0xf4>
	 || (data_from_RTC.month == 3 && data_from_RTC.day<=6 && (data_from_RTC.date-data_from_RTC.day)>=25 )		//March after last sunday
 800304e:	4b47      	ldr	r3, [pc, #284]	; (800316c <_Z9dls_checkb+0x188>)
 8003050:	795b      	ldrb	r3, [r3, #5]
 8003052:	2b03      	cmp	r3, #3
 8003054:	d10b      	bne.n	800306e <_Z9dls_checkb+0x8a>
 8003056:	4b45      	ldr	r3, [pc, #276]	; (800316c <_Z9dls_checkb+0x188>)
 8003058:	78db      	ldrb	r3, [r3, #3]
 800305a:	2b06      	cmp	r3, #6
 800305c:	d807      	bhi.n	800306e <_Z9dls_checkb+0x8a>
 800305e:	4b43      	ldr	r3, [pc, #268]	; (800316c <_Z9dls_checkb+0x188>)
 8003060:	791b      	ldrb	r3, [r3, #4]
 8003062:	001a      	movs	r2, r3
 8003064:	4b41      	ldr	r3, [pc, #260]	; (800316c <_Z9dls_checkb+0x188>)
 8003066:	78db      	ldrb	r3, [r3, #3]
 8003068:	1ad3      	subs	r3, r2, r3
 800306a:	2b18      	cmp	r3, #24
 800306c:	dc34      	bgt.n	80030d8 <_Z9dls_checkb+0xf4>
	 || (data_from_RTC.month >= 4 && data_from_RTC.month <=9)													//April - September
 800306e:	4b3f      	ldr	r3, [pc, #252]	; (800316c <_Z9dls_checkb+0x188>)
 8003070:	795b      	ldrb	r3, [r3, #5]
 8003072:	2b03      	cmp	r3, #3
 8003074:	d903      	bls.n	800307e <_Z9dls_checkb+0x9a>
 8003076:	4b3d      	ldr	r3, [pc, #244]	; (800316c <_Z9dls_checkb+0x188>)
 8003078:	795b      	ldrb	r3, [r3, #5]
 800307a:	2b09      	cmp	r3, #9
 800307c:	d92c      	bls.n	80030d8 <_Z9dls_checkb+0xf4>
	 || (data_from_RTC.month == 10 && ( (((data_from_RTC.date-data_from_RTC.day)<=24)&& data_from_RTC.day<=6) || (data_from_RTC.day==7 && data_from_RTC.date<=24)))
 800307e:	4b3b      	ldr	r3, [pc, #236]	; (800316c <_Z9dls_checkb+0x188>)
 8003080:	795b      	ldrb	r3, [r3, #5]
 8003082:	2b0a      	cmp	r3, #10
 8003084:	d113      	bne.n	80030ae <_Z9dls_checkb+0xca>
 8003086:	4b39      	ldr	r3, [pc, #228]	; (800316c <_Z9dls_checkb+0x188>)
 8003088:	791b      	ldrb	r3, [r3, #4]
 800308a:	001a      	movs	r2, r3
 800308c:	4b37      	ldr	r3, [pc, #220]	; (800316c <_Z9dls_checkb+0x188>)
 800308e:	78db      	ldrb	r3, [r3, #3]
 8003090:	1ad3      	subs	r3, r2, r3
 8003092:	2b18      	cmp	r3, #24
 8003094:	dc03      	bgt.n	800309e <_Z9dls_checkb+0xba>
 8003096:	4b35      	ldr	r3, [pc, #212]	; (800316c <_Z9dls_checkb+0x188>)
 8003098:	78db      	ldrb	r3, [r3, #3]
 800309a:	2b06      	cmp	r3, #6
 800309c:	d91c      	bls.n	80030d8 <_Z9dls_checkb+0xf4>
 800309e:	4b33      	ldr	r3, [pc, #204]	; (800316c <_Z9dls_checkb+0x188>)
 80030a0:	78db      	ldrb	r3, [r3, #3]
 80030a2:	2b07      	cmp	r3, #7
 80030a4:	d103      	bne.n	80030ae <_Z9dls_checkb+0xca>
 80030a6:	4b31      	ldr	r3, [pc, #196]	; (800316c <_Z9dls_checkb+0x188>)
 80030a8:	791b      	ldrb	r3, [r3, #4]
 80030aa:	2b18      	cmp	r3, #24
 80030ac:	d914      	bls.n	80030d8 <_Z9dls_checkb+0xf4>
	 	 	 	 	 	 	 	 	 	 	 	 	 	 	 	 	 	 	 	 	 	 	 	 	 	 	 	//October till saturday befor last sunday
	 || (data_from_RTC.month == 10 && data_from_RTC.day == 7 && data_from_RTC.date >=25 && data_from_RTC.hours<=(1+offset))){
 80030ae:	4b2f      	ldr	r3, [pc, #188]	; (800316c <_Z9dls_checkb+0x188>)
 80030b0:	795b      	ldrb	r3, [r3, #5]
 80030b2:	2b0a      	cmp	r3, #10
 80030b4:	d114      	bne.n	80030e0 <_Z9dls_checkb+0xfc>
 80030b6:	4b2d      	ldr	r3, [pc, #180]	; (800316c <_Z9dls_checkb+0x188>)
 80030b8:	78db      	ldrb	r3, [r3, #3]
 80030ba:	2b07      	cmp	r3, #7
 80030bc:	d110      	bne.n	80030e0 <_Z9dls_checkb+0xfc>
 80030be:	4b2b      	ldr	r3, [pc, #172]	; (800316c <_Z9dls_checkb+0x188>)
 80030c0:	791b      	ldrb	r3, [r3, #4]
 80030c2:	2b18      	cmp	r3, #24
 80030c4:	d90c      	bls.n	80030e0 <_Z9dls_checkb+0xfc>
 80030c6:	4b29      	ldr	r3, [pc, #164]	; (800316c <_Z9dls_checkb+0x188>)
 80030c8:	789b      	ldrb	r3, [r3, #2]
 80030ca:	001a      	movs	r2, r3
 80030cc:	230f      	movs	r3, #15
 80030ce:	18fb      	adds	r3, r7, r3
 80030d0:	781b      	ldrb	r3, [r3, #0]
 80030d2:	3301      	adds	r3, #1
 80030d4:	429a      	cmp	r2, r3
 80030d6:	dc03      	bgt.n	80030e0 <_Z9dls_checkb+0xfc>
	 	 	 	 	 	 	 	 	 	 	 	 	 	 	 	 	 	 	 	 	 	 	 	 	 	 	 	//October last sunday till 02:00
		dls_needed = true;
 80030d8:	4b25      	ldr	r3, [pc, #148]	; (8003170 <_Z9dls_checkb+0x18c>)
 80030da:	2201      	movs	r2, #1
 80030dc:	701a      	strb	r2, [r3, #0]
 80030de:	e002      	b.n	80030e6 <_Z9dls_checkb+0x102>
	}
	else{
		dls_needed = false;
 80030e0:	4b23      	ldr	r3, [pc, #140]	; (8003170 <_Z9dls_checkb+0x18c>)
 80030e2:	2200      	movs	r2, #0
 80030e4:	701a      	strb	r2, [r3, #0]
	}

	//check if DLS bit should be applied: is DLS active?
	if(dls_active == false && dls_needed == true){
 80030e6:	4b20      	ldr	r3, [pc, #128]	; (8003168 <_Z9dls_checkb+0x184>)
 80030e8:	781b      	ldrb	r3, [r3, #0]
 80030ea:	2b00      	cmp	r3, #0
 80030ec:	d119      	bne.n	8003122 <_Z9dls_checkb+0x13e>
 80030ee:	4b20      	ldr	r3, [pc, #128]	; (8003170 <_Z9dls_checkb+0x18c>)
 80030f0:	781b      	ldrb	r3, [r3, #0]
 80030f2:	2b01      	cmp	r3, #1
 80030f4:	d115      	bne.n	8003122 <_Z9dls_checkb+0x13e>
		if(flag_only==false){
 80030f6:	1dfb      	adds	r3, r7, #7
 80030f8:	781b      	ldrb	r3, [r3, #0]
 80030fa:	2b00      	cmp	r3, #0
 80030fc:	d10d      	bne.n	800311a <_Z9dls_checkb+0x136>
			write_i2c_single(ADDR_HOURS, data_from_RTC.hours+1);
 80030fe:	4b1b      	ldr	r3, [pc, #108]	; (800316c <_Z9dls_checkb+0x188>)
 8003100:	789b      	ldrb	r3, [r3, #2]
 8003102:	3301      	adds	r3, #1
 8003104:	b2db      	uxtb	r3, r3
 8003106:	0019      	movs	r1, r3
 8003108:	2002      	movs	r0, #2
 800310a:	f000 f833 	bl	8003174 <_Z16write_i2c_singlehh>
			data_from_RTC.hours++;		//alter local variable, so no new read is required before new value is displayed
 800310e:	4b17      	ldr	r3, [pc, #92]	; (800316c <_Z9dls_checkb+0x188>)
 8003110:	789b      	ldrb	r3, [r3, #2]
 8003112:	3301      	adds	r3, #1
 8003114:	b2da      	uxtb	r2, r3
 8003116:	4b15      	ldr	r3, [pc, #84]	; (800316c <_Z9dls_checkb+0x188>)
 8003118:	709a      	strb	r2, [r3, #2]
			//increase RTC by one hour - should only happen when summer is reached, not through time set
		}
		write_i2c_single(ADDR_A1SECONDS, 0x1);	//set DLS FLAG
 800311a:	2101      	movs	r1, #1
 800311c:	2007      	movs	r0, #7
 800311e:	f000 f829 	bl	8003174 <_Z16write_i2c_singlehh>
	}
	if(dls_active == true && dls_needed == false){
 8003122:	4b11      	ldr	r3, [pc, #68]	; (8003168 <_Z9dls_checkb+0x184>)
 8003124:	781b      	ldrb	r3, [r3, #0]
 8003126:	2b01      	cmp	r3, #1
 8003128:	d119      	bne.n	800315e <_Z9dls_checkb+0x17a>
 800312a:	4b11      	ldr	r3, [pc, #68]	; (8003170 <_Z9dls_checkb+0x18c>)
 800312c:	781b      	ldrb	r3, [r3, #0]
 800312e:	2b00      	cmp	r3, #0
 8003130:	d115      	bne.n	800315e <_Z9dls_checkb+0x17a>
		if(flag_only == false){
 8003132:	1dfb      	adds	r3, r7, #7
 8003134:	781b      	ldrb	r3, [r3, #0]
 8003136:	2b00      	cmp	r3, #0
 8003138:	d10d      	bne.n	8003156 <_Z9dls_checkb+0x172>
			write_i2c_single(ADDR_HOURS, data_from_RTC.hours-1);
 800313a:	4b0c      	ldr	r3, [pc, #48]	; (800316c <_Z9dls_checkb+0x188>)
 800313c:	789b      	ldrb	r3, [r3, #2]
 800313e:	3b01      	subs	r3, #1
 8003140:	b2db      	uxtb	r3, r3
 8003142:	0019      	movs	r1, r3
 8003144:	2002      	movs	r0, #2
 8003146:	f000 f815 	bl	8003174 <_Z16write_i2c_singlehh>
			data_from_RTC.hours--;
 800314a:	4b08      	ldr	r3, [pc, #32]	; (800316c <_Z9dls_checkb+0x188>)
 800314c:	789b      	ldrb	r3, [r3, #2]
 800314e:	3b01      	subs	r3, #1
 8003150:	b2da      	uxtb	r2, r3
 8003152:	4b06      	ldr	r3, [pc, #24]	; (800316c <_Z9dls_checkb+0x188>)
 8003154:	709a      	strb	r2, [r3, #2]
			//decrease RTC by one hour - should only happen when winter is reached, not through time set
		}
		write_i2c_single(ADDR_A1SECONDS, 0x0);	//reset DLS FLAG
 8003156:	2100      	movs	r1, #0
 8003158:	2007      	movs	r0, #7
 800315a:	f000 f80b 	bl	8003174 <_Z16write_i2c_singlehh>
	}
}
 800315e:	46c0      	nop			; (mov r8, r8)
 8003160:	46bd      	mov	sp, r7
 8003162:	b005      	add	sp, #20
 8003164:	bd90      	pop	{r4, r7, pc}
 8003166:	46c0      	nop			; (mov r8, r8)
 8003168:	2000059e 	.word	0x2000059e
 800316c:	20000014 	.word	0x20000014
 8003170:	2000059d 	.word	0x2000059d

08003174 <_Z16write_i2c_singlehh>:
/**
 * @brief write single register
 * @param cmd: register address to which the data should be written
 * @param data: 8bit data which should be written to the register
 */
void write_i2c_single(uint8_t cmd, uint8_t data){
 8003174:	b580      	push	{r7, lr}
 8003176:	b086      	sub	sp, #24
 8003178:	af02      	add	r7, sp, #8
 800317a:	0002      	movs	r2, r0
 800317c:	1dfb      	adds	r3, r7, #7
 800317e:	701a      	strb	r2, [r3, #0]
 8003180:	1dbb      	adds	r3, r7, #6
 8003182:	1c0a      	adds	r2, r1, #0
 8003184:	701a      	strb	r2, [r3, #0]
	uint8_t data_t[2];
	data_t[0] = cmd;
 8003186:	210c      	movs	r1, #12
 8003188:	187b      	adds	r3, r7, r1
 800318a:	1dfa      	adds	r2, r7, #7
 800318c:	7812      	ldrb	r2, [r2, #0]
 800318e:	701a      	strb	r2, [r3, #0]
	data_t[1] = data;
 8003190:	187b      	adds	r3, r7, r1
 8003192:	1dba      	adds	r2, r7, #6
 8003194:	7812      	ldrb	r2, [r2, #0]
 8003196:	705a      	strb	r2, [r3, #1]
	HAL_I2C_Master_Transmit(&hi2c1, DS3231_MASTER_ADDRESS, (uint8_t *)data_t, 2, 100);
 8003198:	187a      	adds	r2, r7, r1
 800319a:	4805      	ldr	r0, [pc, #20]	; (80031b0 <_Z16write_i2c_singlehh+0x3c>)
 800319c:	2364      	movs	r3, #100	; 0x64
 800319e:	9300      	str	r3, [sp, #0]
 80031a0:	2302      	movs	r3, #2
 80031a2:	21d1      	movs	r1, #209	; 0xd1
 80031a4:	f000 ff84 	bl	80040b0 <HAL_I2C_Master_Transmit>
}
 80031a8:	46c0      	nop			; (mov r8, r8)
 80031aa:	46bd      	mov	sp, r7
 80031ac:	b004      	add	sp, #16
 80031ae:	bd80      	pop	{r7, pc}
 80031b0:	20000050 	.word	0x20000050

080031b4 <_Z15read_i2c_singleh>:
/**
 * @brief function to read one byte of data from specified register
 * @param cmd address which content should be read
 * @return data which is read from the specified register
 */
uint8_t read_i2c_single(uint8_t cmd){
 80031b4:	b590      	push	{r4, r7, lr}
 80031b6:	b087      	sub	sp, #28
 80031b8:	af02      	add	r7, sp, #8
 80031ba:	0002      	movs	r2, r0
 80031bc:	1dfb      	adds	r3, r7, #7
 80031be:	701a      	strb	r2, [r3, #0]
	uint8_t data_t[1];
	data_t[0] = cmd;
 80031c0:	210c      	movs	r1, #12
 80031c2:	187b      	adds	r3, r7, r1
 80031c4:	1dfa      	adds	r2, r7, #7
 80031c6:	7812      	ldrb	r2, [r2, #0]
 80031c8:	701a      	strb	r2, [r3, #0]
	HAL_I2C_Master_Transmit(&hi2c1, DS3231_MASTER_ADDRESS, (uint8_t *)data_t, 1, 10);
 80031ca:	000c      	movs	r4, r1
 80031cc:	193a      	adds	r2, r7, r4
 80031ce:	480a      	ldr	r0, [pc, #40]	; (80031f8 <_Z15read_i2c_singleh+0x44>)
 80031d0:	230a      	movs	r3, #10
 80031d2:	9300      	str	r3, [sp, #0]
 80031d4:	2301      	movs	r3, #1
 80031d6:	21d1      	movs	r1, #209	; 0xd1
 80031d8:	f000 ff6a 	bl	80040b0 <HAL_I2C_Master_Transmit>
	HAL_I2C_Master_Receive(&hi2c1, DS3231_SLAVE_ADDRESS, (uint8_t *)data_t, 1, 10);
 80031dc:	193a      	adds	r2, r7, r4
 80031de:	4806      	ldr	r0, [pc, #24]	; (80031f8 <_Z15read_i2c_singleh+0x44>)
 80031e0:	230a      	movs	r3, #10
 80031e2:	9300      	str	r3, [sp, #0]
 80031e4:	2301      	movs	r3, #1
 80031e6:	21d0      	movs	r1, #208	; 0xd0
 80031e8:	f001 f86a 	bl	80042c0 <HAL_I2C_Master_Receive>
	return data_t[0];
 80031ec:	193b      	adds	r3, r7, r4
 80031ee:	781b      	ldrb	r3, [r3, #0]
}
 80031f0:	0018      	movs	r0, r3
 80031f2:	46bd      	mov	sp, r7
 80031f4:	b005      	add	sp, #20
 80031f6:	bd90      	pop	{r4, r7, pc}
 80031f8:	20000050 	.word	0x20000050

080031fc <Reset_Handler>:

    .section  .text.Reset_Handler
  .weak  Reset_Handler
  .type  Reset_Handler, %function
Reset_Handler:  
   ldr   r0, =_estack
 80031fc:	480d      	ldr	r0, [pc, #52]	; (8003234 <LoopForever+0x2>)
   mov   sp, r0          /* set stack pointer */
 80031fe:	4685      	mov	sp, r0
   
/* Call the clock system initialization function.*/
  bl  SystemInit
 8003200:	f7ff fb64 	bl	80028cc <SystemInit>

/* Copy the data segment initializers from flash to SRAM */
  ldr r0, =_sdata
 8003204:	480c      	ldr	r0, [pc, #48]	; (8003238 <LoopForever+0x6>)
  ldr r1, =_edata
 8003206:	490d      	ldr	r1, [pc, #52]	; (800323c <LoopForever+0xa>)
  ldr r2, =_sidata
 8003208:	4a0d      	ldr	r2, [pc, #52]	; (8003240 <LoopForever+0xe>)
  movs r3, #0
 800320a:	2300      	movs	r3, #0
  b LoopCopyDataInit
 800320c:	e002      	b.n	8003214 <LoopCopyDataInit>

0800320e <CopyDataInit>:

CopyDataInit:
  ldr r4, [r2, r3]
 800320e:	58d4      	ldr	r4, [r2, r3]
  str r4, [r0, r3]
 8003210:	50c4      	str	r4, [r0, r3]
  adds r3, r3, #4
 8003212:	3304      	adds	r3, #4

08003214 <LoopCopyDataInit>:

LoopCopyDataInit:
  adds r4, r0, r3
 8003214:	18c4      	adds	r4, r0, r3
  cmp r4, r1
 8003216:	428c      	cmp	r4, r1
  bcc CopyDataInit
 8003218:	d3f9      	bcc.n	800320e <CopyDataInit>
  
/* Zero fill the bss segment. */
  ldr r2, =_sbss
 800321a:	4a0a      	ldr	r2, [pc, #40]	; (8003244 <LoopForever+0x12>)
  ldr r4, =_ebss
 800321c:	4c0a      	ldr	r4, [pc, #40]	; (8003248 <LoopForever+0x16>)
  movs r3, #0
 800321e:	2300      	movs	r3, #0
  b LoopFillZerobss
 8003220:	e001      	b.n	8003226 <LoopFillZerobss>

08003222 <FillZerobss>:

FillZerobss:
  str  r3, [r2]
 8003222:	6013      	str	r3, [r2, #0]
  adds r2, r2, #4
 8003224:	3204      	adds	r2, #4

08003226 <LoopFillZerobss>:

LoopFillZerobss:
  cmp r2, r4
 8003226:	42a2      	cmp	r2, r4
  bcc FillZerobss
 8003228:	d3fb      	bcc.n	8003222 <FillZerobss>

/* Call static constructors */
    bl __libc_init_array
 800322a:	f004 f80f 	bl	800724c <__libc_init_array>
/* Call the application's entry point.*/
  bl  main
 800322e:	f7fd fd27 	bl	8000c80 <main>

08003232 <LoopForever>:

LoopForever:
    b LoopForever
 8003232:	e7fe      	b.n	8003232 <LoopForever>
   ldr   r0, =_estack
 8003234:	20002000 	.word	0x20002000
  ldr r0, =_sdata
 8003238:	20000000 	.word	0x20000000
  ldr r1, =_edata
 800323c:	20000034 	.word	0x20000034
  ldr r2, =_sidata
 8003240:	080072f0 	.word	0x080072f0
  ldr r2, =_sbss
 8003244:	20000034 	.word	0x20000034
  ldr r4, =_ebss
 8003248:	200005bc 	.word	0x200005bc

0800324c <ADC1_COMP_IRQHandler>:
 * @retval : None
*/
    .section  .text.Default_Handler,"ax",%progbits
Default_Handler:
Infinite_Loop:
  b  Infinite_Loop
 800324c:	e7fe      	b.n	800324c <ADC1_COMP_IRQHandler>
	...

08003250 <HAL_Init>:
  *        In the default implementation,Systick is used as source of time base.
  *        the tick variable is incremented each 1ms in its ISR.
  * @retval HAL status
  */
HAL_StatusTypeDef HAL_Init(void)
{
 8003250:	b580      	push	{r7, lr}
 8003252:	b082      	sub	sp, #8
 8003254:	af00      	add	r7, sp, #0
  HAL_StatusTypeDef  status = HAL_OK;
 8003256:	1dfb      	adds	r3, r7, #7
 8003258:	2200      	movs	r2, #0
 800325a:	701a      	strb	r2, [r3, #0]
#if (BUFFER_CACHE_DISABLE != 0)
  __HAL_FLASH_BUFFER_CACHE_DISABLE();
#endif /* BUFFER_CACHE_DISABLE */

#if (PREREAD_ENABLE != 0)
  __HAL_FLASH_PREREAD_BUFFER_ENABLE();
 800325c:	4b0b      	ldr	r3, [pc, #44]	; (800328c <HAL_Init+0x3c>)
 800325e:	681a      	ldr	r2, [r3, #0]
 8003260:	4b0a      	ldr	r3, [pc, #40]	; (800328c <HAL_Init+0x3c>)
 8003262:	2140      	movs	r1, #64	; 0x40
 8003264:	430a      	orrs	r2, r1
 8003266:	601a      	str	r2, [r3, #0]
#if (PREFETCH_ENABLE != 0)
  __HAL_FLASH_PREFETCH_BUFFER_ENABLE();
#endif /* PREFETCH_ENABLE */

  /* Use SysTick as time base source and configure 1ms tick (default clock after Reset is MSI) */
  if (HAL_InitTick(TICK_INT_PRIORITY) != HAL_OK)
 8003268:	2003      	movs	r0, #3
 800326a:	f000 f811 	bl	8003290 <HAL_InitTick>
 800326e:	1e03      	subs	r3, r0, #0
 8003270:	d003      	beq.n	800327a <HAL_Init+0x2a>
  {
    status = HAL_ERROR;
 8003272:	1dfb      	adds	r3, r7, #7
 8003274:	2201      	movs	r2, #1
 8003276:	701a      	strb	r2, [r3, #0]
 8003278:	e001      	b.n	800327e <HAL_Init+0x2e>
  }
  else
  {
    /* Init the low level hardware */
    HAL_MspInit();
 800327a:	f7ff fae1 	bl	8002840 <HAL_MspInit>
  }

  /* Return function status */
  return status;
 800327e:	1dfb      	adds	r3, r7, #7
 8003280:	781b      	ldrb	r3, [r3, #0]
}
 8003282:	0018      	movs	r0, r3
 8003284:	46bd      	mov	sp, r7
 8003286:	b002      	add	sp, #8
 8003288:	bd80      	pop	{r7, pc}
 800328a:	46c0      	nop			; (mov r8, r8)
 800328c:	40022000 	.word	0x40022000

08003290 <HAL_InitTick>:
  *       implementation  in user file.
  * @param TickPriority Tick interrupt priority.
  * @retval HAL status
  */
__weak HAL_StatusTypeDef HAL_InitTick(uint32_t TickPriority)
{
 8003290:	b590      	push	{r4, r7, lr}
 8003292:	b083      	sub	sp, #12
 8003294:	af00      	add	r7, sp, #0
 8003296:	6078      	str	r0, [r7, #4]
  /* Configure the SysTick to have interrupt in 1ms time basis*/
  if (HAL_SYSTICK_Config(SystemCoreClock / (1000U / uwTickFreq)) > 0U)
 8003298:	4b14      	ldr	r3, [pc, #80]	; (80032ec <HAL_InitTick+0x5c>)
 800329a:	681c      	ldr	r4, [r3, #0]
 800329c:	4b14      	ldr	r3, [pc, #80]	; (80032f0 <HAL_InitTick+0x60>)
 800329e:	781b      	ldrb	r3, [r3, #0]
 80032a0:	0019      	movs	r1, r3
 80032a2:	23fa      	movs	r3, #250	; 0xfa
 80032a4:	0098      	lsls	r0, r3, #2
 80032a6:	f7fc ff2f 	bl	8000108 <__udivsi3>
 80032aa:	0003      	movs	r3, r0
 80032ac:	0019      	movs	r1, r3
 80032ae:	0020      	movs	r0, r4
 80032b0:	f7fc ff2a 	bl	8000108 <__udivsi3>
 80032b4:	0003      	movs	r3, r0
 80032b6:	0018      	movs	r0, r3
 80032b8:	f000 f90b 	bl	80034d2 <HAL_SYSTICK_Config>
 80032bc:	1e03      	subs	r3, r0, #0
 80032be:	d001      	beq.n	80032c4 <HAL_InitTick+0x34>
  {
    return HAL_ERROR;
 80032c0:	2301      	movs	r3, #1
 80032c2:	e00f      	b.n	80032e4 <HAL_InitTick+0x54>
  }

  /* Configure the SysTick IRQ priority */
  if (TickPriority < (1UL << __NVIC_PRIO_BITS))
 80032c4:	687b      	ldr	r3, [r7, #4]
 80032c6:	2b03      	cmp	r3, #3
 80032c8:	d80b      	bhi.n	80032e2 <HAL_InitTick+0x52>
  {
    HAL_NVIC_SetPriority(SysTick_IRQn, TickPriority, 0U);
 80032ca:	6879      	ldr	r1, [r7, #4]
 80032cc:	2301      	movs	r3, #1
 80032ce:	425b      	negs	r3, r3
 80032d0:	2200      	movs	r2, #0
 80032d2:	0018      	movs	r0, r3
 80032d4:	f000 f8d8 	bl	8003488 <HAL_NVIC_SetPriority>
    uwTickPrio = TickPriority;
 80032d8:	4b06      	ldr	r3, [pc, #24]	; (80032f4 <HAL_InitTick+0x64>)
 80032da:	687a      	ldr	r2, [r7, #4]
 80032dc:	601a      	str	r2, [r3, #0]
  {
    return HAL_ERROR;
  }

  /* Return function status */
  return HAL_OK;
 80032de:	2300      	movs	r3, #0
 80032e0:	e000      	b.n	80032e4 <HAL_InitTick+0x54>
    return HAL_ERROR;
 80032e2:	2301      	movs	r3, #1
}
 80032e4:	0018      	movs	r0, r3
 80032e6:	46bd      	mov	sp, r7
 80032e8:	b003      	add	sp, #12
 80032ea:	bd90      	pop	{r4, r7, pc}
 80032ec:	20000010 	.word	0x20000010
 80032f0:	20000030 	.word	0x20000030
 80032f4:	2000002c 	.word	0x2000002c

080032f8 <HAL_IncTick>:
 * @note This function is declared as __weak to be overwritten in case of other
  *      implementations in user file.
  * @retval None
  */
__weak void HAL_IncTick(void)
{
 80032f8:	b580      	push	{r7, lr}
 80032fa:	af00      	add	r7, sp, #0
  uwTick += uwTickFreq;
 80032fc:	4b05      	ldr	r3, [pc, #20]	; (8003314 <HAL_IncTick+0x1c>)
 80032fe:	781b      	ldrb	r3, [r3, #0]
 8003300:	001a      	movs	r2, r3
 8003302:	4b05      	ldr	r3, [pc, #20]	; (8003318 <HAL_IncTick+0x20>)
 8003304:	681b      	ldr	r3, [r3, #0]
 8003306:	18d2      	adds	r2, r2, r3
 8003308:	4b03      	ldr	r3, [pc, #12]	; (8003318 <HAL_IncTick+0x20>)
 800330a:	601a      	str	r2, [r3, #0]
}
 800330c:	46c0      	nop			; (mov r8, r8)
 800330e:	46bd      	mov	sp, r7
 8003310:	bd80      	pop	{r7, pc}
 8003312:	46c0      	nop			; (mov r8, r8)
 8003314:	20000030 	.word	0x20000030
 8003318:	200005a0 	.word	0x200005a0

0800331c <HAL_GetTick>:
  * @note This function is declared as __weak to be overwritten in case of other
  *       implementations in user file.
  * @retval tick value
  */
__weak uint32_t HAL_GetTick(void)
{
 800331c:	b580      	push	{r7, lr}
 800331e:	af00      	add	r7, sp, #0
  return uwTick;
 8003320:	4b02      	ldr	r3, [pc, #8]	; (800332c <HAL_GetTick+0x10>)
 8003322:	681b      	ldr	r3, [r3, #0]
}
 8003324:	0018      	movs	r0, r3
 8003326:	46bd      	mov	sp, r7
 8003328:	bd80      	pop	{r7, pc}
 800332a:	46c0      	nop			; (mov r8, r8)
 800332c:	200005a0 	.word	0x200005a0

08003330 <__NVIC_EnableIRQ>:
  \details Enables a device specific interrupt in the NVIC interrupt controller.
  \param [in]      IRQn  Device specific interrupt number.
  \note    IRQn must not be negative.
 */
__STATIC_INLINE void __NVIC_EnableIRQ(IRQn_Type IRQn)
{
 8003330:	b580      	push	{r7, lr}
 8003332:	b082      	sub	sp, #8
 8003334:	af00      	add	r7, sp, #0
 8003336:	0002      	movs	r2, r0
 8003338:	1dfb      	adds	r3, r7, #7
 800333a:	701a      	strb	r2, [r3, #0]
  if ((int32_t)(IRQn) >= 0)
 800333c:	1dfb      	adds	r3, r7, #7
 800333e:	781b      	ldrb	r3, [r3, #0]
 8003340:	2b7f      	cmp	r3, #127	; 0x7f
 8003342:	d809      	bhi.n	8003358 <__NVIC_EnableIRQ+0x28>
  {
    NVIC->ISER[0U] = (uint32_t)(1UL << (((uint32_t)IRQn) & 0x1FUL));
 8003344:	1dfb      	adds	r3, r7, #7
 8003346:	781b      	ldrb	r3, [r3, #0]
 8003348:	001a      	movs	r2, r3
 800334a:	231f      	movs	r3, #31
 800334c:	401a      	ands	r2, r3
 800334e:	4b04      	ldr	r3, [pc, #16]	; (8003360 <__NVIC_EnableIRQ+0x30>)
 8003350:	2101      	movs	r1, #1
 8003352:	4091      	lsls	r1, r2
 8003354:	000a      	movs	r2, r1
 8003356:	601a      	str	r2, [r3, #0]
  }
}
 8003358:	46c0      	nop			; (mov r8, r8)
 800335a:	46bd      	mov	sp, r7
 800335c:	b002      	add	sp, #8
 800335e:	bd80      	pop	{r7, pc}
 8003360:	e000e100 	.word	0xe000e100

08003364 <__NVIC_SetPriority>:
  \param [in]      IRQn  Interrupt number.
  \param [in]  priority  Priority to set.
  \note    The priority cannot be set for every processor exception.
 */
__STATIC_INLINE void __NVIC_SetPriority(IRQn_Type IRQn, uint32_t priority)
{
 8003364:	b590      	push	{r4, r7, lr}
 8003366:	b083      	sub	sp, #12
 8003368:	af00      	add	r7, sp, #0
 800336a:	0002      	movs	r2, r0
 800336c:	6039      	str	r1, [r7, #0]
 800336e:	1dfb      	adds	r3, r7, #7
 8003370:	701a      	strb	r2, [r3, #0]
  if ((int32_t)(IRQn) >= 0)
 8003372:	1dfb      	adds	r3, r7, #7
 8003374:	781b      	ldrb	r3, [r3, #0]
 8003376:	2b7f      	cmp	r3, #127	; 0x7f
 8003378:	d828      	bhi.n	80033cc <__NVIC_SetPriority+0x68>
  {
    NVIC->IP[_IP_IDX(IRQn)]  = ((uint32_t)(NVIC->IP[_IP_IDX(IRQn)]  & ~(0xFFUL << _BIT_SHIFT(IRQn))) |
 800337a:	4a2f      	ldr	r2, [pc, #188]	; (8003438 <__NVIC_SetPriority+0xd4>)
 800337c:	1dfb      	adds	r3, r7, #7
 800337e:	781b      	ldrb	r3, [r3, #0]
 8003380:	b25b      	sxtb	r3, r3
 8003382:	089b      	lsrs	r3, r3, #2
 8003384:	33c0      	adds	r3, #192	; 0xc0
 8003386:	009b      	lsls	r3, r3, #2
 8003388:	589b      	ldr	r3, [r3, r2]
 800338a:	1dfa      	adds	r2, r7, #7
 800338c:	7812      	ldrb	r2, [r2, #0]
 800338e:	0011      	movs	r1, r2
 8003390:	2203      	movs	r2, #3
 8003392:	400a      	ands	r2, r1
 8003394:	00d2      	lsls	r2, r2, #3
 8003396:	21ff      	movs	r1, #255	; 0xff
 8003398:	4091      	lsls	r1, r2
 800339a:	000a      	movs	r2, r1
 800339c:	43d2      	mvns	r2, r2
 800339e:	401a      	ands	r2, r3
 80033a0:	0011      	movs	r1, r2
       (((priority << (8U - __NVIC_PRIO_BITS)) & (uint32_t)0xFFUL) << _BIT_SHIFT(IRQn)));
 80033a2:	683b      	ldr	r3, [r7, #0]
 80033a4:	019b      	lsls	r3, r3, #6
 80033a6:	22ff      	movs	r2, #255	; 0xff
 80033a8:	401a      	ands	r2, r3
 80033aa:	1dfb      	adds	r3, r7, #7
 80033ac:	781b      	ldrb	r3, [r3, #0]
 80033ae:	0018      	movs	r0, r3
 80033b0:	2303      	movs	r3, #3
 80033b2:	4003      	ands	r3, r0
 80033b4:	00db      	lsls	r3, r3, #3
 80033b6:	409a      	lsls	r2, r3
    NVIC->IP[_IP_IDX(IRQn)]  = ((uint32_t)(NVIC->IP[_IP_IDX(IRQn)]  & ~(0xFFUL << _BIT_SHIFT(IRQn))) |
 80033b8:	481f      	ldr	r0, [pc, #124]	; (8003438 <__NVIC_SetPriority+0xd4>)
 80033ba:	1dfb      	adds	r3, r7, #7
 80033bc:	781b      	ldrb	r3, [r3, #0]
 80033be:	b25b      	sxtb	r3, r3
 80033c0:	089b      	lsrs	r3, r3, #2
 80033c2:	430a      	orrs	r2, r1
 80033c4:	33c0      	adds	r3, #192	; 0xc0
 80033c6:	009b      	lsls	r3, r3, #2
 80033c8:	501a      	str	r2, [r3, r0]
  else
  {
    SCB->SHP[_SHP_IDX(IRQn)] = ((uint32_t)(SCB->SHP[_SHP_IDX(IRQn)] & ~(0xFFUL << _BIT_SHIFT(IRQn))) |
       (((priority << (8U - __NVIC_PRIO_BITS)) & (uint32_t)0xFFUL) << _BIT_SHIFT(IRQn)));
  }
}
 80033ca:	e031      	b.n	8003430 <__NVIC_SetPriority+0xcc>
    SCB->SHP[_SHP_IDX(IRQn)] = ((uint32_t)(SCB->SHP[_SHP_IDX(IRQn)] & ~(0xFFUL << _BIT_SHIFT(IRQn))) |
 80033cc:	4a1b      	ldr	r2, [pc, #108]	; (800343c <__NVIC_SetPriority+0xd8>)
 80033ce:	1dfb      	adds	r3, r7, #7
 80033d0:	781b      	ldrb	r3, [r3, #0]
 80033d2:	0019      	movs	r1, r3
 80033d4:	230f      	movs	r3, #15
 80033d6:	400b      	ands	r3, r1
 80033d8:	3b08      	subs	r3, #8
 80033da:	089b      	lsrs	r3, r3, #2
 80033dc:	3306      	adds	r3, #6
 80033de:	009b      	lsls	r3, r3, #2
 80033e0:	18d3      	adds	r3, r2, r3
 80033e2:	3304      	adds	r3, #4
 80033e4:	681b      	ldr	r3, [r3, #0]
 80033e6:	1dfa      	adds	r2, r7, #7
 80033e8:	7812      	ldrb	r2, [r2, #0]
 80033ea:	0011      	movs	r1, r2
 80033ec:	2203      	movs	r2, #3
 80033ee:	400a      	ands	r2, r1
 80033f0:	00d2      	lsls	r2, r2, #3
 80033f2:	21ff      	movs	r1, #255	; 0xff
 80033f4:	4091      	lsls	r1, r2
 80033f6:	000a      	movs	r2, r1
 80033f8:	43d2      	mvns	r2, r2
 80033fa:	401a      	ands	r2, r3
 80033fc:	0011      	movs	r1, r2
       (((priority << (8U - __NVIC_PRIO_BITS)) & (uint32_t)0xFFUL) << _BIT_SHIFT(IRQn)));
 80033fe:	683b      	ldr	r3, [r7, #0]
 8003400:	019b      	lsls	r3, r3, #6
 8003402:	22ff      	movs	r2, #255	; 0xff
 8003404:	401a      	ands	r2, r3
 8003406:	1dfb      	adds	r3, r7, #7
 8003408:	781b      	ldrb	r3, [r3, #0]
 800340a:	0018      	movs	r0, r3
 800340c:	2303      	movs	r3, #3
 800340e:	4003      	ands	r3, r0
 8003410:	00db      	lsls	r3, r3, #3
 8003412:	409a      	lsls	r2, r3
    SCB->SHP[_SHP_IDX(IRQn)] = ((uint32_t)(SCB->SHP[_SHP_IDX(IRQn)] & ~(0xFFUL << _BIT_SHIFT(IRQn))) |
 8003414:	4809      	ldr	r0, [pc, #36]	; (800343c <__NVIC_SetPriority+0xd8>)
 8003416:	1dfb      	adds	r3, r7, #7
 8003418:	781b      	ldrb	r3, [r3, #0]
 800341a:	001c      	movs	r4, r3
 800341c:	230f      	movs	r3, #15
 800341e:	4023      	ands	r3, r4
 8003420:	3b08      	subs	r3, #8
 8003422:	089b      	lsrs	r3, r3, #2
 8003424:	430a      	orrs	r2, r1
 8003426:	3306      	adds	r3, #6
 8003428:	009b      	lsls	r3, r3, #2
 800342a:	18c3      	adds	r3, r0, r3
 800342c:	3304      	adds	r3, #4
 800342e:	601a      	str	r2, [r3, #0]
}
 8003430:	46c0      	nop			; (mov r8, r8)
 8003432:	46bd      	mov	sp, r7
 8003434:	b003      	add	sp, #12
 8003436:	bd90      	pop	{r4, r7, pc}
 8003438:	e000e100 	.word	0xe000e100
 800343c:	e000ed00 	.word	0xe000ed00

08003440 <SysTick_Config>:
  \note    When the variable <b>__Vendor_SysTickConfig</b> is set to 1, then the
           function <b>SysTick_Config</b> is not included. In this case, the file <b><i>device</i>.h</b>
           must contain a vendor-specific implementation of this function.
 */
__STATIC_INLINE uint32_t SysTick_Config(uint32_t ticks)
{
 8003440:	b580      	push	{r7, lr}
 8003442:	b082      	sub	sp, #8
 8003444:	af00      	add	r7, sp, #0
 8003446:	6078      	str	r0, [r7, #4]
  if ((ticks - 1UL) > SysTick_LOAD_RELOAD_Msk)
 8003448:	687b      	ldr	r3, [r7, #4]
 800344a:	1e5a      	subs	r2, r3, #1
 800344c:	2380      	movs	r3, #128	; 0x80
 800344e:	045b      	lsls	r3, r3, #17
 8003450:	429a      	cmp	r2, r3
 8003452:	d301      	bcc.n	8003458 <SysTick_Config+0x18>
  {
    return (1UL);                                                   /* Reload value impossible */
 8003454:	2301      	movs	r3, #1
 8003456:	e010      	b.n	800347a <SysTick_Config+0x3a>
  }

  SysTick->LOAD  = (uint32_t)(ticks - 1UL);                         /* set reload register */
 8003458:	4b0a      	ldr	r3, [pc, #40]	; (8003484 <SysTick_Config+0x44>)
 800345a:	687a      	ldr	r2, [r7, #4]
 800345c:	3a01      	subs	r2, #1
 800345e:	605a      	str	r2, [r3, #4]
  NVIC_SetPriority (SysTick_IRQn, (1UL << __NVIC_PRIO_BITS) - 1UL); /* set Priority for Systick Interrupt */
 8003460:	2301      	movs	r3, #1
 8003462:	425b      	negs	r3, r3
 8003464:	2103      	movs	r1, #3
 8003466:	0018      	movs	r0, r3
 8003468:	f7ff ff7c 	bl	8003364 <__NVIC_SetPriority>
  SysTick->VAL   = 0UL;                                             /* Load the SysTick Counter Value */
 800346c:	4b05      	ldr	r3, [pc, #20]	; (8003484 <SysTick_Config+0x44>)
 800346e:	2200      	movs	r2, #0
 8003470:	609a      	str	r2, [r3, #8]
  SysTick->CTRL  = SysTick_CTRL_CLKSOURCE_Msk |
 8003472:	4b04      	ldr	r3, [pc, #16]	; (8003484 <SysTick_Config+0x44>)
 8003474:	2207      	movs	r2, #7
 8003476:	601a      	str	r2, [r3, #0]
                   SysTick_CTRL_TICKINT_Msk   |
                   SysTick_CTRL_ENABLE_Msk;                         /* Enable SysTick IRQ and SysTick Timer */
  return (0UL);                                                     /* Function successful */
 8003478:	2300      	movs	r3, #0
}
 800347a:	0018      	movs	r0, r3
 800347c:	46bd      	mov	sp, r7
 800347e:	b002      	add	sp, #8
 8003480:	bd80      	pop	{r7, pc}
 8003482:	46c0      	nop			; (mov r8, r8)
 8003484:	e000e010 	.word	0xe000e010

08003488 <HAL_NVIC_SetPriority>:
  *         with stm32l0xx devices, this parameter is a dummy value and it is ignored, because 
  *         no subpriority supported in Cortex M0+ based products.   
  * @retval None
  */
void HAL_NVIC_SetPriority(IRQn_Type IRQn, uint32_t PreemptPriority, uint32_t SubPriority)
{ 
 8003488:	b580      	push	{r7, lr}
 800348a:	b084      	sub	sp, #16
 800348c:	af00      	add	r7, sp, #0
 800348e:	60b9      	str	r1, [r7, #8]
 8003490:	607a      	str	r2, [r7, #4]
 8003492:	210f      	movs	r1, #15
 8003494:	187b      	adds	r3, r7, r1
 8003496:	1c02      	adds	r2, r0, #0
 8003498:	701a      	strb	r2, [r3, #0]
    /* Check the parameters */
  assert_param(IS_NVIC_PREEMPTION_PRIORITY(PreemptPriority));
  NVIC_SetPriority(IRQn,PreemptPriority);
 800349a:	68ba      	ldr	r2, [r7, #8]
 800349c:	187b      	adds	r3, r7, r1
 800349e:	781b      	ldrb	r3, [r3, #0]
 80034a0:	b25b      	sxtb	r3, r3
 80034a2:	0011      	movs	r1, r2
 80034a4:	0018      	movs	r0, r3
 80034a6:	f7ff ff5d 	bl	8003364 <__NVIC_SetPriority>
}
 80034aa:	46c0      	nop			; (mov r8, r8)
 80034ac:	46bd      	mov	sp, r7
 80034ae:	b004      	add	sp, #16
 80034b0:	bd80      	pop	{r7, pc}

080034b2 <HAL_NVIC_EnableIRQ>:
  *         This parameter can be an enumerator of  IRQn_Type enumeration
  *         (For the complete STM32 Devices IRQ Channels list, please refer to stm32l0xx.h file)  
  * @retval None
  */
void HAL_NVIC_EnableIRQ(IRQn_Type IRQn)
{
 80034b2:	b580      	push	{r7, lr}
 80034b4:	b082      	sub	sp, #8
 80034b6:	af00      	add	r7, sp, #0
 80034b8:	0002      	movs	r2, r0
 80034ba:	1dfb      	adds	r3, r7, #7
 80034bc:	701a      	strb	r2, [r3, #0]
  /* Check the parameters */
  assert_param(IS_NVIC_DEVICE_IRQ(IRQn));
  
  /* Enable interrupt */
  NVIC_EnableIRQ(IRQn);
 80034be:	1dfb      	adds	r3, r7, #7
 80034c0:	781b      	ldrb	r3, [r3, #0]
 80034c2:	b25b      	sxtb	r3, r3
 80034c4:	0018      	movs	r0, r3
 80034c6:	f7ff ff33 	bl	8003330 <__NVIC_EnableIRQ>
}
 80034ca:	46c0      	nop			; (mov r8, r8)
 80034cc:	46bd      	mov	sp, r7
 80034ce:	b002      	add	sp, #8
 80034d0:	bd80      	pop	{r7, pc}

080034d2 <HAL_SYSTICK_Config>:
  * @param  TicksNumb Specifies the ticks Number of ticks between two interrupts.
  * @retval status:  - 0  Function succeeded.
  *                  - 1  Function failed.
  */
uint32_t HAL_SYSTICK_Config(uint32_t TicksNumb)
{
 80034d2:	b580      	push	{r7, lr}
 80034d4:	b082      	sub	sp, #8
 80034d6:	af00      	add	r7, sp, #0
 80034d8:	6078      	str	r0, [r7, #4]
   return SysTick_Config(TicksNumb);
 80034da:	687b      	ldr	r3, [r7, #4]
 80034dc:	0018      	movs	r0, r3
 80034de:	f7ff ffaf 	bl	8003440 <SysTick_Config>
 80034e2:	0003      	movs	r3, r0
}
 80034e4:	0018      	movs	r0, r3
 80034e6:	46bd      	mov	sp, r7
 80034e8:	b002      	add	sp, #8
 80034ea:	bd80      	pop	{r7, pc}

080034ec <HAL_DMA_Init>:
  * @param  hdma Pointer to a DMA_HandleTypeDef structure that contains
  *               the configuration information for the specified DMA Channel.
  * @retval HAL status
  */
HAL_StatusTypeDef HAL_DMA_Init(DMA_HandleTypeDef *hdma)
{
 80034ec:	b580      	push	{r7, lr}
 80034ee:	b084      	sub	sp, #16
 80034f0:	af00      	add	r7, sp, #0
 80034f2:	6078      	str	r0, [r7, #4]
  uint32_t tmp;

  /* Check the DMA handle allocation */
  if(hdma == NULL)
 80034f4:	687b      	ldr	r3, [r7, #4]
 80034f6:	2b00      	cmp	r3, #0
 80034f8:	d101      	bne.n	80034fe <HAL_DMA_Init+0x12>
  {
    return HAL_ERROR;
 80034fa:	2301      	movs	r3, #1
 80034fc:	e061      	b.n	80035c2 <HAL_DMA_Init+0xd6>
  assert_param(IS_DMA_MODE(hdma->Init.Mode));
  assert_param(IS_DMA_PRIORITY(hdma->Init.Priority));

  /* Compute the channel index */
  /* Only one DMA: DMA1 */
  hdma->ChannelIndex = (((uint32_t)hdma->Instance - (uint32_t)DMA1_Channel1) / ((uint32_t)DMA1_Channel2 - (uint32_t)DMA1_Channel1)) << 2;
 80034fe:	687b      	ldr	r3, [r7, #4]
 8003500:	681b      	ldr	r3, [r3, #0]
 8003502:	4a32      	ldr	r2, [pc, #200]	; (80035cc <HAL_DMA_Init+0xe0>)
 8003504:	4694      	mov	ip, r2
 8003506:	4463      	add	r3, ip
 8003508:	2114      	movs	r1, #20
 800350a:	0018      	movs	r0, r3
 800350c:	f7fc fdfc 	bl	8000108 <__udivsi3>
 8003510:	0003      	movs	r3, r0
 8003512:	009a      	lsls	r2, r3, #2
 8003514:	687b      	ldr	r3, [r7, #4]
 8003516:	645a      	str	r2, [r3, #68]	; 0x44
  hdma->DmaBaseAddress = DMA1;
 8003518:	687b      	ldr	r3, [r7, #4]
 800351a:	4a2d      	ldr	r2, [pc, #180]	; (80035d0 <HAL_DMA_Init+0xe4>)
 800351c:	641a      	str	r2, [r3, #64]	; 0x40

  /* Change DMA peripheral state */
  hdma->State = HAL_DMA_STATE_BUSY;
 800351e:	687b      	ldr	r3, [r7, #4]
 8003520:	2225      	movs	r2, #37	; 0x25
 8003522:	2102      	movs	r1, #2
 8003524:	5499      	strb	r1, [r3, r2]

  /* Get the CR register value */
  tmp = hdma->Instance->CCR;
 8003526:	687b      	ldr	r3, [r7, #4]
 8003528:	681b      	ldr	r3, [r3, #0]
 800352a:	681b      	ldr	r3, [r3, #0]
 800352c:	60fb      	str	r3, [r7, #12]

  /* Clear PL, MSIZE, PSIZE, MINC, PINC, CIRC, DIR and MEM2MEM bits */
  tmp &= ((uint32_t)~(DMA_CCR_PL    | DMA_CCR_MSIZE  | DMA_CCR_PSIZE  |
 800352e:	68fb      	ldr	r3, [r7, #12]
 8003530:	4a28      	ldr	r2, [pc, #160]	; (80035d4 <HAL_DMA_Init+0xe8>)
 8003532:	4013      	ands	r3, r2
 8003534:	60fb      	str	r3, [r7, #12]
                      DMA_CCR_MINC  | DMA_CCR_PINC   | DMA_CCR_CIRC   |
                      DMA_CCR_DIR   | DMA_CCR_MEM2MEM));

  /* Prepare the DMA Channel configuration */
  tmp |=  hdma->Init.Direction        |
 8003536:	687b      	ldr	r3, [r7, #4]
 8003538:	689a      	ldr	r2, [r3, #8]
          hdma->Init.PeriphInc           | hdma->Init.MemInc           |
 800353a:	687b      	ldr	r3, [r7, #4]
 800353c:	68db      	ldr	r3, [r3, #12]
  tmp |=  hdma->Init.Direction        |
 800353e:	431a      	orrs	r2, r3
          hdma->Init.PeriphInc           | hdma->Init.MemInc           |
 8003540:	687b      	ldr	r3, [r7, #4]
 8003542:	691b      	ldr	r3, [r3, #16]
 8003544:	431a      	orrs	r2, r3
          hdma->Init.PeriphDataAlignment | hdma->Init.MemDataAlignment |
 8003546:	687b      	ldr	r3, [r7, #4]
 8003548:	695b      	ldr	r3, [r3, #20]
          hdma->Init.PeriphInc           | hdma->Init.MemInc           |
 800354a:	431a      	orrs	r2, r3
          hdma->Init.PeriphDataAlignment | hdma->Init.MemDataAlignment |
 800354c:	687b      	ldr	r3, [r7, #4]
 800354e:	699b      	ldr	r3, [r3, #24]
 8003550:	431a      	orrs	r2, r3
          hdma->Init.Mode                | hdma->Init.Priority;
 8003552:	687b      	ldr	r3, [r7, #4]
 8003554:	69db      	ldr	r3, [r3, #28]
          hdma->Init.PeriphDataAlignment | hdma->Init.MemDataAlignment |
 8003556:	431a      	orrs	r2, r3
          hdma->Init.Mode                | hdma->Init.Priority;
 8003558:	687b      	ldr	r3, [r7, #4]
 800355a:	6a1b      	ldr	r3, [r3, #32]
 800355c:	4313      	orrs	r3, r2
  tmp |=  hdma->Init.Direction        |
 800355e:	68fa      	ldr	r2, [r7, #12]
 8003560:	4313      	orrs	r3, r2
 8003562:	60fb      	str	r3, [r7, #12]

  /* Write to DMA Channel CR register */
  hdma->Instance->CCR = tmp;
 8003564:	687b      	ldr	r3, [r7, #4]
 8003566:	681b      	ldr	r3, [r3, #0]
 8003568:	68fa      	ldr	r2, [r7, #12]
 800356a:	601a      	str	r2, [r3, #0]

  /* Set request selection */
  if(hdma->Init.Direction != DMA_MEMORY_TO_MEMORY)
 800356c:	687b      	ldr	r3, [r7, #4]
 800356e:	689a      	ldr	r2, [r3, #8]
 8003570:	2380      	movs	r3, #128	; 0x80
 8003572:	01db      	lsls	r3, r3, #7
 8003574:	429a      	cmp	r2, r3
 8003576:	d018      	beq.n	80035aa <HAL_DMA_Init+0xbe>
  {
    /* Write to DMA channel selection register */
    /* Reset request selection for DMA1 Channelx */
    DMA1_CSELR->CSELR &= ~(DMA_CSELR_C1S << (hdma->ChannelIndex & 0x1cU));
 8003578:	4b17      	ldr	r3, [pc, #92]	; (80035d8 <HAL_DMA_Init+0xec>)
 800357a:	681a      	ldr	r2, [r3, #0]
 800357c:	687b      	ldr	r3, [r7, #4]
 800357e:	6c5b      	ldr	r3, [r3, #68]	; 0x44
 8003580:	211c      	movs	r1, #28
 8003582:	400b      	ands	r3, r1
 8003584:	210f      	movs	r1, #15
 8003586:	4099      	lsls	r1, r3
 8003588:	000b      	movs	r3, r1
 800358a:	43d9      	mvns	r1, r3
 800358c:	4b12      	ldr	r3, [pc, #72]	; (80035d8 <HAL_DMA_Init+0xec>)
 800358e:	400a      	ands	r2, r1
 8003590:	601a      	str	r2, [r3, #0]

    /* Configure request selection for DMA1 Channelx */
    DMA1_CSELR->CSELR |= (uint32_t) (hdma->Init.Request << (hdma->ChannelIndex & 0x1cU));
 8003592:	4b11      	ldr	r3, [pc, #68]	; (80035d8 <HAL_DMA_Init+0xec>)
 8003594:	6819      	ldr	r1, [r3, #0]
 8003596:	687b      	ldr	r3, [r7, #4]
 8003598:	685a      	ldr	r2, [r3, #4]
 800359a:	687b      	ldr	r3, [r7, #4]
 800359c:	6c5b      	ldr	r3, [r3, #68]	; 0x44
 800359e:	201c      	movs	r0, #28
 80035a0:	4003      	ands	r3, r0
 80035a2:	409a      	lsls	r2, r3
 80035a4:	4b0c      	ldr	r3, [pc, #48]	; (80035d8 <HAL_DMA_Init+0xec>)
 80035a6:	430a      	orrs	r2, r1
 80035a8:	601a      	str	r2, [r3, #0]
  }

  /* Initialise the error code */
  hdma->ErrorCode = HAL_DMA_ERROR_NONE;
 80035aa:	687b      	ldr	r3, [r7, #4]
 80035ac:	2200      	movs	r2, #0
 80035ae:	63da      	str	r2, [r3, #60]	; 0x3c

  /* Initialize the DMA state*/
  hdma->State  = HAL_DMA_STATE_READY;
 80035b0:	687b      	ldr	r3, [r7, #4]
 80035b2:	2225      	movs	r2, #37	; 0x25
 80035b4:	2101      	movs	r1, #1
 80035b6:	5499      	strb	r1, [r3, r2]

  /* Allocate lock resource and initialize it */
  hdma->Lock = HAL_UNLOCKED;
 80035b8:	687b      	ldr	r3, [r7, #4]
 80035ba:	2224      	movs	r2, #36	; 0x24
 80035bc:	2100      	movs	r1, #0
 80035be:	5499      	strb	r1, [r3, r2]

  return HAL_OK;
 80035c0:	2300      	movs	r3, #0
}
 80035c2:	0018      	movs	r0, r3
 80035c4:	46bd      	mov	sp, r7
 80035c6:	b004      	add	sp, #16
 80035c8:	bd80      	pop	{r7, pc}
 80035ca:	46c0      	nop			; (mov r8, r8)
 80035cc:	bffdfff8 	.word	0xbffdfff8
 80035d0:	40020000 	.word	0x40020000
 80035d4:	ffff800f 	.word	0xffff800f
 80035d8:	400200a8 	.word	0x400200a8

080035dc <HAL_DMA_Start_IT>:
  * @param  DstAddress The destination memory Buffer address
  * @param  DataLength The amount of data items to be transferred from source to destination
  * @retval HAL status
  */
HAL_StatusTypeDef HAL_DMA_Start_IT(DMA_HandleTypeDef *hdma, uint32_t SrcAddress, uint32_t DstAddress, uint32_t DataLength)
{
 80035dc:	b580      	push	{r7, lr}
 80035de:	b086      	sub	sp, #24
 80035e0:	af00      	add	r7, sp, #0
 80035e2:	60f8      	str	r0, [r7, #12]
 80035e4:	60b9      	str	r1, [r7, #8]
 80035e6:	607a      	str	r2, [r7, #4]
 80035e8:	603b      	str	r3, [r7, #0]
  HAL_StatusTypeDef status = HAL_OK;
 80035ea:	2317      	movs	r3, #23
 80035ec:	18fb      	adds	r3, r7, r3
 80035ee:	2200      	movs	r2, #0
 80035f0:	701a      	strb	r2, [r3, #0]

  /* Check the parameters */
  assert_param(IS_DMA_BUFFER_SIZE(DataLength));

  /* Process locked */
  __HAL_LOCK(hdma);
 80035f2:	68fb      	ldr	r3, [r7, #12]
 80035f4:	2224      	movs	r2, #36	; 0x24
 80035f6:	5c9b      	ldrb	r3, [r3, r2]
 80035f8:	2b01      	cmp	r3, #1
 80035fa:	d101      	bne.n	8003600 <HAL_DMA_Start_IT+0x24>
 80035fc:	2302      	movs	r3, #2
 80035fe:	e04f      	b.n	80036a0 <HAL_DMA_Start_IT+0xc4>
 8003600:	68fb      	ldr	r3, [r7, #12]
 8003602:	2224      	movs	r2, #36	; 0x24
 8003604:	2101      	movs	r1, #1
 8003606:	5499      	strb	r1, [r3, r2]

  if(HAL_DMA_STATE_READY == hdma->State)
 8003608:	68fb      	ldr	r3, [r7, #12]
 800360a:	2225      	movs	r2, #37	; 0x25
 800360c:	5c9b      	ldrb	r3, [r3, r2]
 800360e:	b2db      	uxtb	r3, r3
 8003610:	2b01      	cmp	r3, #1
 8003612:	d13a      	bne.n	800368a <HAL_DMA_Start_IT+0xae>
  {
    /* Change DMA peripheral state */
    hdma->State = HAL_DMA_STATE_BUSY;
 8003614:	68fb      	ldr	r3, [r7, #12]
 8003616:	2225      	movs	r2, #37	; 0x25
 8003618:	2102      	movs	r1, #2
 800361a:	5499      	strb	r1, [r3, r2]
    hdma->ErrorCode = HAL_DMA_ERROR_NONE;
 800361c:	68fb      	ldr	r3, [r7, #12]
 800361e:	2200      	movs	r2, #0
 8003620:	63da      	str	r2, [r3, #60]	; 0x3c

    /* Disable the peripheral */
    __HAL_DMA_DISABLE(hdma);
 8003622:	68fb      	ldr	r3, [r7, #12]
 8003624:	681b      	ldr	r3, [r3, #0]
 8003626:	681a      	ldr	r2, [r3, #0]
 8003628:	68fb      	ldr	r3, [r7, #12]
 800362a:	681b      	ldr	r3, [r3, #0]
 800362c:	2101      	movs	r1, #1
 800362e:	438a      	bics	r2, r1
 8003630:	601a      	str	r2, [r3, #0]

    /* Configure the source, destination address and the data length & clear flags*/
    DMA_SetConfig(hdma, SrcAddress, DstAddress, DataLength);
 8003632:	683b      	ldr	r3, [r7, #0]
 8003634:	687a      	ldr	r2, [r7, #4]
 8003636:	68b9      	ldr	r1, [r7, #8]
 8003638:	68f8      	ldr	r0, [r7, #12]
 800363a:	f000 f92a 	bl	8003892 <DMA_SetConfig>

    /* Enable the transfer complete interrupt */
    /* Enable the transfer Error interrupt */
    if(NULL != hdma->XferHalfCpltCallback )
 800363e:	68fb      	ldr	r3, [r7, #12]
 8003640:	6b1b      	ldr	r3, [r3, #48]	; 0x30
 8003642:	2b00      	cmp	r3, #0
 8003644:	d008      	beq.n	8003658 <HAL_DMA_Start_IT+0x7c>
    {
      /* Enable the Half transfer complete interrupt as well */
      __HAL_DMA_ENABLE_IT(hdma, (DMA_IT_TC | DMA_IT_HT | DMA_IT_TE));
 8003646:	68fb      	ldr	r3, [r7, #12]
 8003648:	681b      	ldr	r3, [r3, #0]
 800364a:	681a      	ldr	r2, [r3, #0]
 800364c:	68fb      	ldr	r3, [r7, #12]
 800364e:	681b      	ldr	r3, [r3, #0]
 8003650:	210e      	movs	r1, #14
 8003652:	430a      	orrs	r2, r1
 8003654:	601a      	str	r2, [r3, #0]
 8003656:	e00f      	b.n	8003678 <HAL_DMA_Start_IT+0x9c>
    }
    else
    {
      __HAL_DMA_DISABLE_IT(hdma, DMA_IT_HT);
 8003658:	68fb      	ldr	r3, [r7, #12]
 800365a:	681b      	ldr	r3, [r3, #0]
 800365c:	681a      	ldr	r2, [r3, #0]
 800365e:	68fb      	ldr	r3, [r7, #12]
 8003660:	681b      	ldr	r3, [r3, #0]
 8003662:	2104      	movs	r1, #4
 8003664:	438a      	bics	r2, r1
 8003666:	601a      	str	r2, [r3, #0]
      __HAL_DMA_ENABLE_IT(hdma, (DMA_IT_TC | DMA_IT_TE));
 8003668:	68fb      	ldr	r3, [r7, #12]
 800366a:	681b      	ldr	r3, [r3, #0]
 800366c:	681a      	ldr	r2, [r3, #0]
 800366e:	68fb      	ldr	r3, [r7, #12]
 8003670:	681b      	ldr	r3, [r3, #0]
 8003672:	210a      	movs	r1, #10
 8003674:	430a      	orrs	r2, r1
 8003676:	601a      	str	r2, [r3, #0]
    }

    /* Enable the Peripheral */
    __HAL_DMA_ENABLE(hdma);
 8003678:	68fb      	ldr	r3, [r7, #12]
 800367a:	681b      	ldr	r3, [r3, #0]
 800367c:	681a      	ldr	r2, [r3, #0]
 800367e:	68fb      	ldr	r3, [r7, #12]
 8003680:	681b      	ldr	r3, [r3, #0]
 8003682:	2101      	movs	r1, #1
 8003684:	430a      	orrs	r2, r1
 8003686:	601a      	str	r2, [r3, #0]
 8003688:	e007      	b.n	800369a <HAL_DMA_Start_IT+0xbe>
  }
  else
  {
    /* Process Unlocked */
    __HAL_UNLOCK(hdma);
 800368a:	68fb      	ldr	r3, [r7, #12]
 800368c:	2224      	movs	r2, #36	; 0x24
 800368e:	2100      	movs	r1, #0
 8003690:	5499      	strb	r1, [r3, r2]

    /* Remain BUSY */
    status = HAL_BUSY;
 8003692:	2317      	movs	r3, #23
 8003694:	18fb      	adds	r3, r7, r3
 8003696:	2202      	movs	r2, #2
 8003698:	701a      	strb	r2, [r3, #0]
  }
  return status;
 800369a:	2317      	movs	r3, #23
 800369c:	18fb      	adds	r3, r7, r3
 800369e:	781b      	ldrb	r3, [r3, #0]
}
 80036a0:	0018      	movs	r0, r3
 80036a2:	46bd      	mov	sp, r7
 80036a4:	b006      	add	sp, #24
 80036a6:	bd80      	pop	{r7, pc}

080036a8 <HAL_DMA_Abort_IT>:
  * @param  hdma pointer to a DMA_HandleTypeDef structure that contains
  *                 the configuration information for the specified DMA Channel.
  * @retval HAL status
  */
HAL_StatusTypeDef HAL_DMA_Abort_IT(DMA_HandleTypeDef *hdma)
{
 80036a8:	b580      	push	{r7, lr}
 80036aa:	b084      	sub	sp, #16
 80036ac:	af00      	add	r7, sp, #0
 80036ae:	6078      	str	r0, [r7, #4]
  HAL_StatusTypeDef status = HAL_OK;
 80036b0:	210f      	movs	r1, #15
 80036b2:	187b      	adds	r3, r7, r1
 80036b4:	2200      	movs	r2, #0
 80036b6:	701a      	strb	r2, [r3, #0]

  if(HAL_DMA_STATE_BUSY != hdma->State)
 80036b8:	687b      	ldr	r3, [r7, #4]
 80036ba:	2225      	movs	r2, #37	; 0x25
 80036bc:	5c9b      	ldrb	r3, [r3, r2]
 80036be:	b2db      	uxtb	r3, r3
 80036c0:	2b02      	cmp	r3, #2
 80036c2:	d006      	beq.n	80036d2 <HAL_DMA_Abort_IT+0x2a>
  {
    /* no transfer ongoing */
    hdma->ErrorCode = HAL_DMA_ERROR_NO_XFER;
 80036c4:	687b      	ldr	r3, [r7, #4]
 80036c6:	2204      	movs	r2, #4
 80036c8:	63da      	str	r2, [r3, #60]	; 0x3c

    status = HAL_ERROR;
 80036ca:	187b      	adds	r3, r7, r1
 80036cc:	2201      	movs	r2, #1
 80036ce:	701a      	strb	r2, [r3, #0]
 80036d0:	e02a      	b.n	8003728 <HAL_DMA_Abort_IT+0x80>
  }
  else
  {
    /* Disable DMA IT */
    __HAL_DMA_DISABLE_IT(hdma, (DMA_IT_TC | DMA_IT_HT | DMA_IT_TE));
 80036d2:	687b      	ldr	r3, [r7, #4]
 80036d4:	681b      	ldr	r3, [r3, #0]
 80036d6:	681a      	ldr	r2, [r3, #0]
 80036d8:	687b      	ldr	r3, [r7, #4]
 80036da:	681b      	ldr	r3, [r3, #0]
 80036dc:	210e      	movs	r1, #14
 80036de:	438a      	bics	r2, r1
 80036e0:	601a      	str	r2, [r3, #0]

    /* Disable the channel */
    __HAL_DMA_DISABLE(hdma);
 80036e2:	687b      	ldr	r3, [r7, #4]
 80036e4:	681b      	ldr	r3, [r3, #0]
 80036e6:	681a      	ldr	r2, [r3, #0]
 80036e8:	687b      	ldr	r3, [r7, #4]
 80036ea:	681b      	ldr	r3, [r3, #0]
 80036ec:	2101      	movs	r1, #1
 80036ee:	438a      	bics	r2, r1
 80036f0:	601a      	str	r2, [r3, #0]

    /* Clear all flags */
    hdma->DmaBaseAddress->IFCR = (DMA_ISR_GIF1 << (hdma->ChannelIndex & 0x1cU));
 80036f2:	687b      	ldr	r3, [r7, #4]
 80036f4:	6c5b      	ldr	r3, [r3, #68]	; 0x44
 80036f6:	221c      	movs	r2, #28
 80036f8:	401a      	ands	r2, r3
 80036fa:	687b      	ldr	r3, [r7, #4]
 80036fc:	6c1b      	ldr	r3, [r3, #64]	; 0x40
 80036fe:	2101      	movs	r1, #1
 8003700:	4091      	lsls	r1, r2
 8003702:	000a      	movs	r2, r1
 8003704:	605a      	str	r2, [r3, #4]

    /* Change the DMA state */
    hdma->State = HAL_DMA_STATE_READY;
 8003706:	687b      	ldr	r3, [r7, #4]
 8003708:	2225      	movs	r2, #37	; 0x25
 800370a:	2101      	movs	r1, #1
 800370c:	5499      	strb	r1, [r3, r2]

    /* Process Unlocked */
    __HAL_UNLOCK(hdma);
 800370e:	687b      	ldr	r3, [r7, #4]
 8003710:	2224      	movs	r2, #36	; 0x24
 8003712:	2100      	movs	r1, #0
 8003714:	5499      	strb	r1, [r3, r2]

    /* Call User Abort callback */
    if(hdma->XferAbortCallback != NULL)
 8003716:	687b      	ldr	r3, [r7, #4]
 8003718:	6b9b      	ldr	r3, [r3, #56]	; 0x38
 800371a:	2b00      	cmp	r3, #0
 800371c:	d004      	beq.n	8003728 <HAL_DMA_Abort_IT+0x80>
    {
      hdma->XferAbortCallback(hdma);
 800371e:	687b      	ldr	r3, [r7, #4]
 8003720:	6b9b      	ldr	r3, [r3, #56]	; 0x38
 8003722:	687a      	ldr	r2, [r7, #4]
 8003724:	0010      	movs	r0, r2
 8003726:	4798      	blx	r3
    }
  }
  return status;
 8003728:	230f      	movs	r3, #15
 800372a:	18fb      	adds	r3, r7, r3
 800372c:	781b      	ldrb	r3, [r3, #0]
}
 800372e:	0018      	movs	r0, r3
 8003730:	46bd      	mov	sp, r7
 8003732:	b004      	add	sp, #16
 8003734:	bd80      	pop	{r7, pc}

08003736 <HAL_DMA_IRQHandler>:
  * @param  hdma pointer to a DMA_HandleTypeDef structure that contains
  *               the configuration information for the specified DMA Channel.
  * @retval None
  */
void HAL_DMA_IRQHandler(DMA_HandleTypeDef *hdma)
{
 8003736:	b580      	push	{r7, lr}
 8003738:	b084      	sub	sp, #16
 800373a:	af00      	add	r7, sp, #0
 800373c:	6078      	str	r0, [r7, #4]
  uint32_t flag_it = hdma->DmaBaseAddress->ISR;
 800373e:	687b      	ldr	r3, [r7, #4]
 8003740:	6c1b      	ldr	r3, [r3, #64]	; 0x40
 8003742:	681b      	ldr	r3, [r3, #0]
 8003744:	60fb      	str	r3, [r7, #12]
  uint32_t source_it = hdma->Instance->CCR;
 8003746:	687b      	ldr	r3, [r7, #4]
 8003748:	681b      	ldr	r3, [r3, #0]
 800374a:	681b      	ldr	r3, [r3, #0]
 800374c:	60bb      	str	r3, [r7, #8]

  /* Half Transfer Complete Interrupt management ******************************/
  if ((0U != (flag_it & (DMA_FLAG_HT1 << (hdma->ChannelIndex & 0x1cU)))) && (0U != (source_it & DMA_IT_HT)))
 800374e:	687b      	ldr	r3, [r7, #4]
 8003750:	6c5b      	ldr	r3, [r3, #68]	; 0x44
 8003752:	221c      	movs	r2, #28
 8003754:	4013      	ands	r3, r2
 8003756:	2204      	movs	r2, #4
 8003758:	409a      	lsls	r2, r3
 800375a:	0013      	movs	r3, r2
 800375c:	68fa      	ldr	r2, [r7, #12]
 800375e:	4013      	ands	r3, r2
 8003760:	d026      	beq.n	80037b0 <HAL_DMA_IRQHandler+0x7a>
 8003762:	68bb      	ldr	r3, [r7, #8]
 8003764:	2204      	movs	r2, #4
 8003766:	4013      	ands	r3, r2
 8003768:	d022      	beq.n	80037b0 <HAL_DMA_IRQHandler+0x7a>
  {
      /* Disable the half transfer interrupt if the DMA mode is not CIRCULAR */
      if((hdma->Instance->CCR & DMA_CCR_CIRC) == 0U)
 800376a:	687b      	ldr	r3, [r7, #4]
 800376c:	681b      	ldr	r3, [r3, #0]
 800376e:	681b      	ldr	r3, [r3, #0]
 8003770:	2220      	movs	r2, #32
 8003772:	4013      	ands	r3, r2
 8003774:	d107      	bne.n	8003786 <HAL_DMA_IRQHandler+0x50>
      {
        /* Disable the half transfer interrupt */
        __HAL_DMA_DISABLE_IT(hdma, DMA_IT_HT);
 8003776:	687b      	ldr	r3, [r7, #4]
 8003778:	681b      	ldr	r3, [r3, #0]
 800377a:	681a      	ldr	r2, [r3, #0]
 800377c:	687b      	ldr	r3, [r7, #4]
 800377e:	681b      	ldr	r3, [r3, #0]
 8003780:	2104      	movs	r1, #4
 8003782:	438a      	bics	r2, r1
 8003784:	601a      	str	r2, [r3, #0]
      }
      /* Clear the half transfer complete flag */
      hdma->DmaBaseAddress->IFCR = DMA_ISR_HTIF1 << (hdma->ChannelIndex & 0x1cU);
 8003786:	687b      	ldr	r3, [r7, #4]
 8003788:	6c5b      	ldr	r3, [r3, #68]	; 0x44
 800378a:	221c      	movs	r2, #28
 800378c:	401a      	ands	r2, r3
 800378e:	687b      	ldr	r3, [r7, #4]
 8003790:	6c1b      	ldr	r3, [r3, #64]	; 0x40
 8003792:	2104      	movs	r1, #4
 8003794:	4091      	lsls	r1, r2
 8003796:	000a      	movs	r2, r1
 8003798:	605a      	str	r2, [r3, #4]

      /* DMA peripheral state is not updated in Half Transfer */
      /* but in Transfer Complete case */

     if(hdma->XferHalfCpltCallback != NULL)
 800379a:	687b      	ldr	r3, [r7, #4]
 800379c:	6b1b      	ldr	r3, [r3, #48]	; 0x30
 800379e:	2b00      	cmp	r3, #0
 80037a0:	d100      	bne.n	80037a4 <HAL_DMA_IRQHandler+0x6e>
 80037a2:	e071      	b.n	8003888 <HAL_DMA_IRQHandler+0x152>
      {
        /* Half transfer callback */
        hdma->XferHalfCpltCallback(hdma);
 80037a4:	687b      	ldr	r3, [r7, #4]
 80037a6:	6b1b      	ldr	r3, [r3, #48]	; 0x30
 80037a8:	687a      	ldr	r2, [r7, #4]
 80037aa:	0010      	movs	r0, r2
 80037ac:	4798      	blx	r3
     if(hdma->XferHalfCpltCallback != NULL)
 80037ae:	e06b      	b.n	8003888 <HAL_DMA_IRQHandler+0x152>
      }
  }

  /* Transfer Complete Interrupt management ***********************************/
  else if ((0U != (flag_it & (DMA_FLAG_TC1 << (hdma->ChannelIndex & 0x1cU)))) && (0U != (source_it & DMA_IT_TC)))
 80037b0:	687b      	ldr	r3, [r7, #4]
 80037b2:	6c5b      	ldr	r3, [r3, #68]	; 0x44
 80037b4:	221c      	movs	r2, #28
 80037b6:	4013      	ands	r3, r2
 80037b8:	2202      	movs	r2, #2
 80037ba:	409a      	lsls	r2, r3
 80037bc:	0013      	movs	r3, r2
 80037be:	68fa      	ldr	r2, [r7, #12]
 80037c0:	4013      	ands	r3, r2
 80037c2:	d02d      	beq.n	8003820 <HAL_DMA_IRQHandler+0xea>
 80037c4:	68bb      	ldr	r3, [r7, #8]
 80037c6:	2202      	movs	r2, #2
 80037c8:	4013      	ands	r3, r2
 80037ca:	d029      	beq.n	8003820 <HAL_DMA_IRQHandler+0xea>
  {
    if((hdma->Instance->CCR & DMA_CCR_CIRC) == 0U)
 80037cc:	687b      	ldr	r3, [r7, #4]
 80037ce:	681b      	ldr	r3, [r3, #0]
 80037d0:	681b      	ldr	r3, [r3, #0]
 80037d2:	2220      	movs	r2, #32
 80037d4:	4013      	ands	r3, r2
 80037d6:	d10b      	bne.n	80037f0 <HAL_DMA_IRQHandler+0xba>
    {
      /* Disable the transfer complete and error interrupt */
      __HAL_DMA_DISABLE_IT(hdma, DMA_IT_TE | DMA_IT_TC);
 80037d8:	687b      	ldr	r3, [r7, #4]
 80037da:	681b      	ldr	r3, [r3, #0]
 80037dc:	681a      	ldr	r2, [r3, #0]
 80037de:	687b      	ldr	r3, [r7, #4]
 80037e0:	681b      	ldr	r3, [r3, #0]
 80037e2:	210a      	movs	r1, #10
 80037e4:	438a      	bics	r2, r1
 80037e6:	601a      	str	r2, [r3, #0]

      /* Change the DMA state */
      hdma->State = HAL_DMA_STATE_READY;
 80037e8:	687b      	ldr	r3, [r7, #4]
 80037ea:	2225      	movs	r2, #37	; 0x25
 80037ec:	2101      	movs	r1, #1
 80037ee:	5499      	strb	r1, [r3, r2]
    }
    /* Clear the transfer complete flag */
    hdma->DmaBaseAddress->IFCR = (DMA_ISR_TCIF1 << (hdma->ChannelIndex & 0x1cU));
 80037f0:	687b      	ldr	r3, [r7, #4]
 80037f2:	6c5b      	ldr	r3, [r3, #68]	; 0x44
 80037f4:	221c      	movs	r2, #28
 80037f6:	401a      	ands	r2, r3
 80037f8:	687b      	ldr	r3, [r7, #4]
 80037fa:	6c1b      	ldr	r3, [r3, #64]	; 0x40
 80037fc:	2102      	movs	r1, #2
 80037fe:	4091      	lsls	r1, r2
 8003800:	000a      	movs	r2, r1
 8003802:	605a      	str	r2, [r3, #4]

    /* Process Unlocked */
    __HAL_UNLOCK(hdma);
 8003804:	687b      	ldr	r3, [r7, #4]
 8003806:	2224      	movs	r2, #36	; 0x24
 8003808:	2100      	movs	r1, #0
 800380a:	5499      	strb	r1, [r3, r2]

    if(hdma->XferCpltCallback != NULL)
 800380c:	687b      	ldr	r3, [r7, #4]
 800380e:	6adb      	ldr	r3, [r3, #44]	; 0x2c
 8003810:	2b00      	cmp	r3, #0
 8003812:	d039      	beq.n	8003888 <HAL_DMA_IRQHandler+0x152>
    {
      /* Transfer complete callback */
      hdma->XferCpltCallback(hdma);
 8003814:	687b      	ldr	r3, [r7, #4]
 8003816:	6adb      	ldr	r3, [r3, #44]	; 0x2c
 8003818:	687a      	ldr	r2, [r7, #4]
 800381a:	0010      	movs	r0, r2
 800381c:	4798      	blx	r3
    if(hdma->XferCpltCallback != NULL)
 800381e:	e033      	b.n	8003888 <HAL_DMA_IRQHandler+0x152>
    }
  }

  /* Transfer Error Interrupt management **************************************/
  else if ((0U != (flag_it & (DMA_FLAG_TE1 << (hdma->ChannelIndex & 0x1cU)))) && (0U != (source_it & DMA_IT_TE)))
 8003820:	687b      	ldr	r3, [r7, #4]
 8003822:	6c5b      	ldr	r3, [r3, #68]	; 0x44
 8003824:	221c      	movs	r2, #28
 8003826:	4013      	ands	r3, r2
 8003828:	2208      	movs	r2, #8
 800382a:	409a      	lsls	r2, r3
 800382c:	0013      	movs	r3, r2
 800382e:	68fa      	ldr	r2, [r7, #12]
 8003830:	4013      	ands	r3, r2
 8003832:	d02a      	beq.n	800388a <HAL_DMA_IRQHandler+0x154>
 8003834:	68bb      	ldr	r3, [r7, #8]
 8003836:	2208      	movs	r2, #8
 8003838:	4013      	ands	r3, r2
 800383a:	d026      	beq.n	800388a <HAL_DMA_IRQHandler+0x154>
  {
    /* When a DMA transfer error occurs */
    /* A hardware clear of its EN bits is performed */
    /* Disable ALL DMA IT */
    __HAL_DMA_DISABLE_IT(hdma, (DMA_IT_TC | DMA_IT_HT | DMA_IT_TE));
 800383c:	687b      	ldr	r3, [r7, #4]
 800383e:	681b      	ldr	r3, [r3, #0]
 8003840:	681a      	ldr	r2, [r3, #0]
 8003842:	687b      	ldr	r3, [r7, #4]
 8003844:	681b      	ldr	r3, [r3, #0]
 8003846:	210e      	movs	r1, #14
 8003848:	438a      	bics	r2, r1
 800384a:	601a      	str	r2, [r3, #0]

    /* Clear all flags */
    hdma->DmaBaseAddress->IFCR = (DMA_ISR_GIF1 << (hdma->ChannelIndex & 0x1cU));
 800384c:	687b      	ldr	r3, [r7, #4]
 800384e:	6c5b      	ldr	r3, [r3, #68]	; 0x44
 8003850:	221c      	movs	r2, #28
 8003852:	401a      	ands	r2, r3
 8003854:	687b      	ldr	r3, [r7, #4]
 8003856:	6c1b      	ldr	r3, [r3, #64]	; 0x40
 8003858:	2101      	movs	r1, #1
 800385a:	4091      	lsls	r1, r2
 800385c:	000a      	movs	r2, r1
 800385e:	605a      	str	r2, [r3, #4]

    /* Update error code */
    hdma->ErrorCode = HAL_DMA_ERROR_TE;
 8003860:	687b      	ldr	r3, [r7, #4]
 8003862:	2201      	movs	r2, #1
 8003864:	63da      	str	r2, [r3, #60]	; 0x3c

    /* Change the DMA state */
    hdma->State = HAL_DMA_STATE_READY;
 8003866:	687b      	ldr	r3, [r7, #4]
 8003868:	2225      	movs	r2, #37	; 0x25
 800386a:	2101      	movs	r1, #1
 800386c:	5499      	strb	r1, [r3, r2]

    /* Process Unlocked */
    __HAL_UNLOCK(hdma);
 800386e:	687b      	ldr	r3, [r7, #4]
 8003870:	2224      	movs	r2, #36	; 0x24
 8003872:	2100      	movs	r1, #0
 8003874:	5499      	strb	r1, [r3, r2]

    if (hdma->XferErrorCallback != NULL)
 8003876:	687b      	ldr	r3, [r7, #4]
 8003878:	6b5b      	ldr	r3, [r3, #52]	; 0x34
 800387a:	2b00      	cmp	r3, #0
 800387c:	d005      	beq.n	800388a <HAL_DMA_IRQHandler+0x154>
    {
      /* Transfer error callback */
      hdma->XferErrorCallback(hdma);
 800387e:	687b      	ldr	r3, [r7, #4]
 8003880:	6b5b      	ldr	r3, [r3, #52]	; 0x34
 8003882:	687a      	ldr	r2, [r7, #4]
 8003884:	0010      	movs	r0, r2
 8003886:	4798      	blx	r3
  }
  else
  {
    /* Nothing To Do */
  }
  return;
 8003888:	46c0      	nop			; (mov r8, r8)
 800388a:	46c0      	nop			; (mov r8, r8)
}
 800388c:	46bd      	mov	sp, r7
 800388e:	b004      	add	sp, #16
 8003890:	bd80      	pop	{r7, pc}

08003892 <DMA_SetConfig>:
  * @param  DstAddress The destination memory Buffer address
  * @param  DataLength The amount of data items to be transferred from source to destination
  * @retval HAL status
  */
static void DMA_SetConfig(DMA_HandleTypeDef *hdma, uint32_t SrcAddress, uint32_t DstAddress, uint32_t DataLength)
{
 8003892:	b580      	push	{r7, lr}
 8003894:	b084      	sub	sp, #16
 8003896:	af00      	add	r7, sp, #0
 8003898:	60f8      	str	r0, [r7, #12]
 800389a:	60b9      	str	r1, [r7, #8]
 800389c:	607a      	str	r2, [r7, #4]
 800389e:	603b      	str	r3, [r7, #0]
  /* Clear all flags */
  hdma->DmaBaseAddress->IFCR = (DMA_ISR_GIF1 << (hdma->ChannelIndex & 0x1cU));
 80038a0:	68fb      	ldr	r3, [r7, #12]
 80038a2:	6c5b      	ldr	r3, [r3, #68]	; 0x44
 80038a4:	221c      	movs	r2, #28
 80038a6:	401a      	ands	r2, r3
 80038a8:	68fb      	ldr	r3, [r7, #12]
 80038aa:	6c1b      	ldr	r3, [r3, #64]	; 0x40
 80038ac:	2101      	movs	r1, #1
 80038ae:	4091      	lsls	r1, r2
 80038b0:	000a      	movs	r2, r1
 80038b2:	605a      	str	r2, [r3, #4]

  /* Configure DMA Channel data length */
  hdma->Instance->CNDTR = DataLength;
 80038b4:	68fb      	ldr	r3, [r7, #12]
 80038b6:	681b      	ldr	r3, [r3, #0]
 80038b8:	683a      	ldr	r2, [r7, #0]
 80038ba:	605a      	str	r2, [r3, #4]

  /* Memory to Peripheral */
  if((hdma->Init.Direction) == DMA_MEMORY_TO_PERIPH)
 80038bc:	68fb      	ldr	r3, [r7, #12]
 80038be:	689b      	ldr	r3, [r3, #8]
 80038c0:	2b10      	cmp	r3, #16
 80038c2:	d108      	bne.n	80038d6 <DMA_SetConfig+0x44>
  {
    /* Configure DMA Channel destination address */
    hdma->Instance->CPAR = DstAddress;
 80038c4:	68fb      	ldr	r3, [r7, #12]
 80038c6:	681b      	ldr	r3, [r3, #0]
 80038c8:	687a      	ldr	r2, [r7, #4]
 80038ca:	609a      	str	r2, [r3, #8]

    /* Configure DMA Channel source address */
    hdma->Instance->CMAR = SrcAddress;
 80038cc:	68fb      	ldr	r3, [r7, #12]
 80038ce:	681b      	ldr	r3, [r3, #0]
 80038d0:	68ba      	ldr	r2, [r7, #8]
 80038d2:	60da      	str	r2, [r3, #12]
    hdma->Instance->CPAR = SrcAddress;

    /* Configure DMA Channel destination address */
    hdma->Instance->CMAR = DstAddress;
  }
}
 80038d4:	e007      	b.n	80038e6 <DMA_SetConfig+0x54>
    hdma->Instance->CPAR = SrcAddress;
 80038d6:	68fb      	ldr	r3, [r7, #12]
 80038d8:	681b      	ldr	r3, [r3, #0]
 80038da:	68ba      	ldr	r2, [r7, #8]
 80038dc:	609a      	str	r2, [r3, #8]
    hdma->Instance->CMAR = DstAddress;
 80038de:	68fb      	ldr	r3, [r7, #12]
 80038e0:	681b      	ldr	r3, [r3, #0]
 80038e2:	687a      	ldr	r2, [r7, #4]
 80038e4:	60da      	str	r2, [r3, #12]
}
 80038e6:	46c0      	nop			; (mov r8, r8)
 80038e8:	46bd      	mov	sp, r7
 80038ea:	b004      	add	sp, #16
 80038ec:	bd80      	pop	{r7, pc}
	...

080038f0 <FLASH_WaitForLastOperation>:
  * @brief  Wait for a FLASH operation to complete.
  * @param  Timeout  maximum flash operation timeout
  * @retval HAL Status
  */
HAL_StatusTypeDef FLASH_WaitForLastOperation(uint32_t Timeout)
{
 80038f0:	b580      	push	{r7, lr}
 80038f2:	b084      	sub	sp, #16
 80038f4:	af00      	add	r7, sp, #0
 80038f6:	6078      	str	r0, [r7, #4]
  /* Wait for the FLASH operation to complete by polling on BUSY flag to be reset.
     Even if the FLASH operation fails, the BUSY flag will be reset and an error
     flag will be set */
     
  uint32_t tickstart = HAL_GetTick();
 80038f8:	f7ff fd10 	bl	800331c <HAL_GetTick>
 80038fc:	0003      	movs	r3, r0
 80038fe:	60fb      	str	r3, [r7, #12]
     
  while(__HAL_FLASH_GET_FLAG(FLASH_FLAG_BSY)) 
 8003900:	e00f      	b.n	8003922 <FLASH_WaitForLastOperation+0x32>
  { 
    if (Timeout != HAL_MAX_DELAY)
 8003902:	687b      	ldr	r3, [r7, #4]
 8003904:	3301      	adds	r3, #1
 8003906:	d00c      	beq.n	8003922 <FLASH_WaitForLastOperation+0x32>
    {
      if((Timeout == 0U) || ((HAL_GetTick()-tickstart) > Timeout))
 8003908:	687b      	ldr	r3, [r7, #4]
 800390a:	2b00      	cmp	r3, #0
 800390c:	d007      	beq.n	800391e <FLASH_WaitForLastOperation+0x2e>
 800390e:	f7ff fd05 	bl	800331c <HAL_GetTick>
 8003912:	0002      	movs	r2, r0
 8003914:	68fb      	ldr	r3, [r7, #12]
 8003916:	1ad3      	subs	r3, r2, r3
 8003918:	687a      	ldr	r2, [r7, #4]
 800391a:	429a      	cmp	r2, r3
 800391c:	d201      	bcs.n	8003922 <FLASH_WaitForLastOperation+0x32>
      {
        return HAL_TIMEOUT;
 800391e:	2303      	movs	r3, #3
 8003920:	e052      	b.n	80039c8 <FLASH_WaitForLastOperation+0xd8>
  while(__HAL_FLASH_GET_FLAG(FLASH_FLAG_BSY)) 
 8003922:	4b2b      	ldr	r3, [pc, #172]	; (80039d0 <FLASH_WaitForLastOperation+0xe0>)
 8003924:	699b      	ldr	r3, [r3, #24]
 8003926:	2201      	movs	r2, #1
 8003928:	4013      	ands	r3, r2
 800392a:	2b01      	cmp	r3, #1
 800392c:	d0e9      	beq.n	8003902 <FLASH_WaitForLastOperation+0x12>
      }
    }
  }
  
  /* Check FLASH End of Operation flag  */
  if (__HAL_FLASH_GET_FLAG(FLASH_FLAG_EOP))
 800392e:	4b28      	ldr	r3, [pc, #160]	; (80039d0 <FLASH_WaitForLastOperation+0xe0>)
 8003930:	699b      	ldr	r3, [r3, #24]
 8003932:	2202      	movs	r2, #2
 8003934:	4013      	ands	r3, r2
 8003936:	2b02      	cmp	r3, #2
 8003938:	d102      	bne.n	8003940 <FLASH_WaitForLastOperation+0x50>
  {
    /* Clear FLASH End of Operation pending bit */
    __HAL_FLASH_CLEAR_FLAG(FLASH_FLAG_EOP);
 800393a:	4b25      	ldr	r3, [pc, #148]	; (80039d0 <FLASH_WaitForLastOperation+0xe0>)
 800393c:	2202      	movs	r2, #2
 800393e:	619a      	str	r2, [r3, #24]
  }
  
  if( __HAL_FLASH_GET_FLAG(FLASH_FLAG_WRPERR)     || 
 8003940:	4b23      	ldr	r3, [pc, #140]	; (80039d0 <FLASH_WaitForLastOperation+0xe0>)
 8003942:	699a      	ldr	r2, [r3, #24]
 8003944:	2380      	movs	r3, #128	; 0x80
 8003946:	005b      	lsls	r3, r3, #1
 8003948:	401a      	ands	r2, r3
 800394a:	2380      	movs	r3, #128	; 0x80
 800394c:	005b      	lsls	r3, r3, #1
 800394e:	429a      	cmp	r2, r3
 8003950:	d035      	beq.n	80039be <FLASH_WaitForLastOperation+0xce>
      __HAL_FLASH_GET_FLAG(FLASH_FLAG_PGAERR)     || 
 8003952:	4b1f      	ldr	r3, [pc, #124]	; (80039d0 <FLASH_WaitForLastOperation+0xe0>)
 8003954:	699a      	ldr	r2, [r3, #24]
 8003956:	2380      	movs	r3, #128	; 0x80
 8003958:	009b      	lsls	r3, r3, #2
 800395a:	401a      	ands	r2, r3
  if( __HAL_FLASH_GET_FLAG(FLASH_FLAG_WRPERR)     || 
 800395c:	2380      	movs	r3, #128	; 0x80
 800395e:	009b      	lsls	r3, r3, #2
 8003960:	429a      	cmp	r2, r3
 8003962:	d02c      	beq.n	80039be <FLASH_WaitForLastOperation+0xce>
      __HAL_FLASH_GET_FLAG(FLASH_FLAG_SIZERR)     || 
 8003964:	4b1a      	ldr	r3, [pc, #104]	; (80039d0 <FLASH_WaitForLastOperation+0xe0>)
 8003966:	699a      	ldr	r2, [r3, #24]
 8003968:	2380      	movs	r3, #128	; 0x80
 800396a:	00db      	lsls	r3, r3, #3
 800396c:	401a      	ands	r2, r3
      __HAL_FLASH_GET_FLAG(FLASH_FLAG_PGAERR)     || 
 800396e:	2380      	movs	r3, #128	; 0x80
 8003970:	00db      	lsls	r3, r3, #3
 8003972:	429a      	cmp	r2, r3
 8003974:	d023      	beq.n	80039be <FLASH_WaitForLastOperation+0xce>
      __HAL_FLASH_GET_FLAG(FLASH_FLAG_OPTVERR)    || 
 8003976:	4b16      	ldr	r3, [pc, #88]	; (80039d0 <FLASH_WaitForLastOperation+0xe0>)
 8003978:	699a      	ldr	r2, [r3, #24]
 800397a:	2380      	movs	r3, #128	; 0x80
 800397c:	011b      	lsls	r3, r3, #4
 800397e:	401a      	ands	r2, r3
      __HAL_FLASH_GET_FLAG(FLASH_FLAG_SIZERR)     || 
 8003980:	2380      	movs	r3, #128	; 0x80
 8003982:	011b      	lsls	r3, r3, #4
 8003984:	429a      	cmp	r2, r3
 8003986:	d01a      	beq.n	80039be <FLASH_WaitForLastOperation+0xce>
      __HAL_FLASH_GET_FLAG(FLASH_FLAG_RDERR)      || 
 8003988:	4b11      	ldr	r3, [pc, #68]	; (80039d0 <FLASH_WaitForLastOperation+0xe0>)
 800398a:	699a      	ldr	r2, [r3, #24]
 800398c:	2380      	movs	r3, #128	; 0x80
 800398e:	019b      	lsls	r3, r3, #6
 8003990:	401a      	ands	r2, r3
      __HAL_FLASH_GET_FLAG(FLASH_FLAG_OPTVERR)    || 
 8003992:	2380      	movs	r3, #128	; 0x80
 8003994:	019b      	lsls	r3, r3, #6
 8003996:	429a      	cmp	r2, r3
 8003998:	d011      	beq.n	80039be <FLASH_WaitForLastOperation+0xce>
      __HAL_FLASH_GET_FLAG(FLASH_FLAG_FWWERR)     || 
 800399a:	4b0d      	ldr	r3, [pc, #52]	; (80039d0 <FLASH_WaitForLastOperation+0xe0>)
 800399c:	699a      	ldr	r2, [r3, #24]
 800399e:	2380      	movs	r3, #128	; 0x80
 80039a0:	029b      	lsls	r3, r3, #10
 80039a2:	401a      	ands	r2, r3
      __HAL_FLASH_GET_FLAG(FLASH_FLAG_RDERR)      || 
 80039a4:	2380      	movs	r3, #128	; 0x80
 80039a6:	029b      	lsls	r3, r3, #10
 80039a8:	429a      	cmp	r2, r3
 80039aa:	d008      	beq.n	80039be <FLASH_WaitForLastOperation+0xce>
      __HAL_FLASH_GET_FLAG(FLASH_FLAG_NOTZEROERR) )
 80039ac:	4b08      	ldr	r3, [pc, #32]	; (80039d0 <FLASH_WaitForLastOperation+0xe0>)
 80039ae:	699a      	ldr	r2, [r3, #24]
 80039b0:	2380      	movs	r3, #128	; 0x80
 80039b2:	025b      	lsls	r3, r3, #9
 80039b4:	401a      	ands	r2, r3
      __HAL_FLASH_GET_FLAG(FLASH_FLAG_FWWERR)     || 
 80039b6:	2380      	movs	r3, #128	; 0x80
 80039b8:	025b      	lsls	r3, r3, #9
 80039ba:	429a      	cmp	r2, r3
 80039bc:	d103      	bne.n	80039c6 <FLASH_WaitForLastOperation+0xd6>
     *           cut of the STM32L031xx device or the first cut of the STM32L041xx
     *           device, this error should be ignored. The revId of the device
     *           can be retrieved via the HAL_GetREVID() function.
     *
     */
    FLASH_SetErrorCode();
 80039be:	f000 f809 	bl	80039d4 <FLASH_SetErrorCode>
    return HAL_ERROR;
 80039c2:	2301      	movs	r3, #1
 80039c4:	e000      	b.n	80039c8 <FLASH_WaitForLastOperation+0xd8>
  }

  /* There is no error flag set */
  return HAL_OK;
 80039c6:	2300      	movs	r3, #0
}
 80039c8:	0018      	movs	r0, r3
 80039ca:	46bd      	mov	sp, r7
 80039cc:	b004      	add	sp, #16
 80039ce:	bd80      	pop	{r7, pc}
 80039d0:	40022000 	.word	0x40022000

080039d4 <FLASH_SetErrorCode>:
/**
  * @brief  Set the specific FLASH error flag.
  * @retval None
  */
static void FLASH_SetErrorCode(void)
{
 80039d4:	b580      	push	{r7, lr}
 80039d6:	b082      	sub	sp, #8
 80039d8:	af00      	add	r7, sp, #0
  uint32_t flags = 0;
 80039da:	2300      	movs	r3, #0
 80039dc:	607b      	str	r3, [r7, #4]
  
  if(__HAL_FLASH_GET_FLAG(FLASH_FLAG_WRPERR))
 80039de:	4b49      	ldr	r3, [pc, #292]	; (8003b04 <FLASH_SetErrorCode+0x130>)
 80039e0:	699a      	ldr	r2, [r3, #24]
 80039e2:	2380      	movs	r3, #128	; 0x80
 80039e4:	005b      	lsls	r3, r3, #1
 80039e6:	401a      	ands	r2, r3
 80039e8:	2380      	movs	r3, #128	; 0x80
 80039ea:	005b      	lsls	r3, r3, #1
 80039ec:	429a      	cmp	r2, r3
 80039ee:	d10a      	bne.n	8003a06 <FLASH_SetErrorCode+0x32>
  {
    pFlash.ErrorCode |= HAL_FLASH_ERROR_WRP;
 80039f0:	4b45      	ldr	r3, [pc, #276]	; (8003b08 <FLASH_SetErrorCode+0x134>)
 80039f2:	695b      	ldr	r3, [r3, #20]
 80039f4:	2202      	movs	r2, #2
 80039f6:	431a      	orrs	r2, r3
 80039f8:	4b43      	ldr	r3, [pc, #268]	; (8003b08 <FLASH_SetErrorCode+0x134>)
 80039fa:	615a      	str	r2, [r3, #20]
    flags |= FLASH_FLAG_WRPERR;
 80039fc:	687b      	ldr	r3, [r7, #4]
 80039fe:	2280      	movs	r2, #128	; 0x80
 8003a00:	0052      	lsls	r2, r2, #1
 8003a02:	4313      	orrs	r3, r2
 8003a04:	607b      	str	r3, [r7, #4]
  }
  if(__HAL_FLASH_GET_FLAG(FLASH_FLAG_PGAERR))
 8003a06:	4b3f      	ldr	r3, [pc, #252]	; (8003b04 <FLASH_SetErrorCode+0x130>)
 8003a08:	699a      	ldr	r2, [r3, #24]
 8003a0a:	2380      	movs	r3, #128	; 0x80
 8003a0c:	009b      	lsls	r3, r3, #2
 8003a0e:	401a      	ands	r2, r3
 8003a10:	2380      	movs	r3, #128	; 0x80
 8003a12:	009b      	lsls	r3, r3, #2
 8003a14:	429a      	cmp	r2, r3
 8003a16:	d10a      	bne.n	8003a2e <FLASH_SetErrorCode+0x5a>
  {
    pFlash.ErrorCode |= HAL_FLASH_ERROR_PGA;
 8003a18:	4b3b      	ldr	r3, [pc, #236]	; (8003b08 <FLASH_SetErrorCode+0x134>)
 8003a1a:	695b      	ldr	r3, [r3, #20]
 8003a1c:	2201      	movs	r2, #1
 8003a1e:	431a      	orrs	r2, r3
 8003a20:	4b39      	ldr	r3, [pc, #228]	; (8003b08 <FLASH_SetErrorCode+0x134>)
 8003a22:	615a      	str	r2, [r3, #20]
    flags |= FLASH_FLAG_PGAERR;
 8003a24:	687b      	ldr	r3, [r7, #4]
 8003a26:	2280      	movs	r2, #128	; 0x80
 8003a28:	0092      	lsls	r2, r2, #2
 8003a2a:	4313      	orrs	r3, r2
 8003a2c:	607b      	str	r3, [r7, #4]
  }
  if(__HAL_FLASH_GET_FLAG(FLASH_FLAG_SIZERR))
 8003a2e:	4b35      	ldr	r3, [pc, #212]	; (8003b04 <FLASH_SetErrorCode+0x130>)
 8003a30:	699a      	ldr	r2, [r3, #24]
 8003a32:	2380      	movs	r3, #128	; 0x80
 8003a34:	00db      	lsls	r3, r3, #3
 8003a36:	401a      	ands	r2, r3
 8003a38:	2380      	movs	r3, #128	; 0x80
 8003a3a:	00db      	lsls	r3, r3, #3
 8003a3c:	429a      	cmp	r2, r3
 8003a3e:	d10a      	bne.n	8003a56 <FLASH_SetErrorCode+0x82>
  { 
    pFlash.ErrorCode |= HAL_FLASH_ERROR_SIZE;
 8003a40:	4b31      	ldr	r3, [pc, #196]	; (8003b08 <FLASH_SetErrorCode+0x134>)
 8003a42:	695b      	ldr	r3, [r3, #20]
 8003a44:	2208      	movs	r2, #8
 8003a46:	431a      	orrs	r2, r3
 8003a48:	4b2f      	ldr	r3, [pc, #188]	; (8003b08 <FLASH_SetErrorCode+0x134>)
 8003a4a:	615a      	str	r2, [r3, #20]
    flags |= FLASH_FLAG_SIZERR;
 8003a4c:	687b      	ldr	r3, [r7, #4]
 8003a4e:	2280      	movs	r2, #128	; 0x80
 8003a50:	00d2      	lsls	r2, r2, #3
 8003a52:	4313      	orrs	r3, r2
 8003a54:	607b      	str	r3, [r7, #4]
  }
  if(__HAL_FLASH_GET_FLAG(FLASH_FLAG_OPTVERR))
 8003a56:	4b2b      	ldr	r3, [pc, #172]	; (8003b04 <FLASH_SetErrorCode+0x130>)
 8003a58:	699a      	ldr	r2, [r3, #24]
 8003a5a:	2380      	movs	r3, #128	; 0x80
 8003a5c:	011b      	lsls	r3, r3, #4
 8003a5e:	401a      	ands	r2, r3
 8003a60:	2380      	movs	r3, #128	; 0x80
 8003a62:	011b      	lsls	r3, r3, #4
 8003a64:	429a      	cmp	r2, r3
 8003a66:	d10a      	bne.n	8003a7e <FLASH_SetErrorCode+0xaa>
     *           cut of the STM32L031xx device or the first cut of the STM32L041xx
     *           device, this error should be ignored. The revId of the device
     *           can be retrieved via the HAL_GetREVID() function.
     *
     */
    pFlash.ErrorCode |= HAL_FLASH_ERROR_OPTV;
 8003a68:	4b27      	ldr	r3, [pc, #156]	; (8003b08 <FLASH_SetErrorCode+0x134>)
 8003a6a:	695b      	ldr	r3, [r3, #20]
 8003a6c:	2204      	movs	r2, #4
 8003a6e:	431a      	orrs	r2, r3
 8003a70:	4b25      	ldr	r3, [pc, #148]	; (8003b08 <FLASH_SetErrorCode+0x134>)
 8003a72:	615a      	str	r2, [r3, #20]
    flags |= FLASH_FLAG_OPTVERR;
 8003a74:	687b      	ldr	r3, [r7, #4]
 8003a76:	2280      	movs	r2, #128	; 0x80
 8003a78:	0112      	lsls	r2, r2, #4
 8003a7a:	4313      	orrs	r3, r2
 8003a7c:	607b      	str	r3, [r7, #4]
  }

  if(__HAL_FLASH_GET_FLAG(FLASH_FLAG_RDERR))
 8003a7e:	4b21      	ldr	r3, [pc, #132]	; (8003b04 <FLASH_SetErrorCode+0x130>)
 8003a80:	699a      	ldr	r2, [r3, #24]
 8003a82:	2380      	movs	r3, #128	; 0x80
 8003a84:	019b      	lsls	r3, r3, #6
 8003a86:	401a      	ands	r2, r3
 8003a88:	2380      	movs	r3, #128	; 0x80
 8003a8a:	019b      	lsls	r3, r3, #6
 8003a8c:	429a      	cmp	r2, r3
 8003a8e:	d10a      	bne.n	8003aa6 <FLASH_SetErrorCode+0xd2>
  {
    pFlash.ErrorCode |= HAL_FLASH_ERROR_RD;
 8003a90:	4b1d      	ldr	r3, [pc, #116]	; (8003b08 <FLASH_SetErrorCode+0x134>)
 8003a92:	695b      	ldr	r3, [r3, #20]
 8003a94:	2210      	movs	r2, #16
 8003a96:	431a      	orrs	r2, r3
 8003a98:	4b1b      	ldr	r3, [pc, #108]	; (8003b08 <FLASH_SetErrorCode+0x134>)
 8003a9a:	615a      	str	r2, [r3, #20]
    flags |= FLASH_FLAG_RDERR;
 8003a9c:	687b      	ldr	r3, [r7, #4]
 8003a9e:	2280      	movs	r2, #128	; 0x80
 8003aa0:	0192      	lsls	r2, r2, #6
 8003aa2:	4313      	orrs	r3, r2
 8003aa4:	607b      	str	r3, [r7, #4]
  }
  if(__HAL_FLASH_GET_FLAG(FLASH_FLAG_FWWERR))
 8003aa6:	4b17      	ldr	r3, [pc, #92]	; (8003b04 <FLASH_SetErrorCode+0x130>)
 8003aa8:	699a      	ldr	r2, [r3, #24]
 8003aaa:	2380      	movs	r3, #128	; 0x80
 8003aac:	029b      	lsls	r3, r3, #10
 8003aae:	401a      	ands	r2, r3
 8003ab0:	2380      	movs	r3, #128	; 0x80
 8003ab2:	029b      	lsls	r3, r3, #10
 8003ab4:	429a      	cmp	r2, r3
 8003ab6:	d109      	bne.n	8003acc <FLASH_SetErrorCode+0xf8>
  { 
    pFlash.ErrorCode |= HAL_FLASH_ERROR_FWWERR;
 8003ab8:	4b13      	ldr	r3, [pc, #76]	; (8003b08 <FLASH_SetErrorCode+0x134>)
 8003aba:	695b      	ldr	r3, [r3, #20]
 8003abc:	2220      	movs	r2, #32
 8003abe:	431a      	orrs	r2, r3
 8003ac0:	4b11      	ldr	r3, [pc, #68]	; (8003b08 <FLASH_SetErrorCode+0x134>)
 8003ac2:	615a      	str	r2, [r3, #20]
    flags |= HAL_FLASH_ERROR_FWWERR;
 8003ac4:	687b      	ldr	r3, [r7, #4]
 8003ac6:	2220      	movs	r2, #32
 8003ac8:	4313      	orrs	r3, r2
 8003aca:	607b      	str	r3, [r7, #4]
  }
  if(__HAL_FLASH_GET_FLAG(FLASH_FLAG_NOTZEROERR))
 8003acc:	4b0d      	ldr	r3, [pc, #52]	; (8003b04 <FLASH_SetErrorCode+0x130>)
 8003ace:	699a      	ldr	r2, [r3, #24]
 8003ad0:	2380      	movs	r3, #128	; 0x80
 8003ad2:	025b      	lsls	r3, r3, #9
 8003ad4:	401a      	ands	r2, r3
 8003ad6:	2380      	movs	r3, #128	; 0x80
 8003ad8:	025b      	lsls	r3, r3, #9
 8003ada:	429a      	cmp	r2, r3
 8003adc:	d10a      	bne.n	8003af4 <FLASH_SetErrorCode+0x120>
  { 
    pFlash.ErrorCode |= HAL_FLASH_ERROR_NOTZERO;
 8003ade:	4b0a      	ldr	r3, [pc, #40]	; (8003b08 <FLASH_SetErrorCode+0x134>)
 8003ae0:	695b      	ldr	r3, [r3, #20]
 8003ae2:	2240      	movs	r2, #64	; 0x40
 8003ae4:	431a      	orrs	r2, r3
 8003ae6:	4b08      	ldr	r3, [pc, #32]	; (8003b08 <FLASH_SetErrorCode+0x134>)
 8003ae8:	615a      	str	r2, [r3, #20]
    flags |= FLASH_FLAG_NOTZEROERR;
 8003aea:	687b      	ldr	r3, [r7, #4]
 8003aec:	2280      	movs	r2, #128	; 0x80
 8003aee:	0252      	lsls	r2, r2, #9
 8003af0:	4313      	orrs	r3, r2
 8003af2:	607b      	str	r3, [r7, #4]
  }

  /* Clear FLASH error pending bits */
  __HAL_FLASH_CLEAR_FLAG(flags);
 8003af4:	4b03      	ldr	r3, [pc, #12]	; (8003b04 <FLASH_SetErrorCode+0x130>)
 8003af6:	687a      	ldr	r2, [r7, #4]
 8003af8:	619a      	str	r2, [r3, #24]
}  
 8003afa:	46c0      	nop			; (mov r8, r8)
 8003afc:	46bd      	mov	sp, r7
 8003afe:	b002      	add	sp, #8
 8003b00:	bd80      	pop	{r7, pc}
 8003b02:	46c0      	nop			; (mov r8, r8)
 8003b04:	40022000 	.word	0x40022000
 8003b08:	200005a4 	.word	0x200005a4

08003b0c <HAL_FLASHEx_DATAEEPROM_Unlock>:
/**
  * @brief  Unlocks the data memory and FLASH_PECR register access.
  * @retval HAL_StatusTypeDef HAL Status
  */
HAL_StatusTypeDef HAL_FLASHEx_DATAEEPROM_Unlock(void)
{
 8003b0c:	b580      	push	{r7, lr}
 8003b0e:	b084      	sub	sp, #16
 8003b10:	af00      	add	r7, sp, #0
  uint32_t primask_bit;

  if((FLASH->PECR & FLASH_PECR_PELOCK) != RESET)
 8003b12:	4b12      	ldr	r3, [pc, #72]	; (8003b5c <HAL_FLASHEx_DATAEEPROM_Unlock+0x50>)
 8003b14:	685b      	ldr	r3, [r3, #4]
 8003b16:	2201      	movs	r2, #1
 8003b18:	4013      	ands	r3, r2
 8003b1a:	d019      	beq.n	8003b50 <HAL_FLASHEx_DATAEEPROM_Unlock+0x44>
 */
__STATIC_FORCEINLINE uint32_t __get_PRIMASK(void)
{
  uint32_t result;

  __ASM volatile ("MRS %0, primask" : "=r" (result) :: "memory");
 8003b1c:	f3ef 8310 	mrs	r3, PRIMASK
 8003b20:	607b      	str	r3, [r7, #4]
  return(result);
 8003b22:	687b      	ldr	r3, [r7, #4]
  {  
    /* Disable interrupts to avoid any interruption during unlock sequence */
    primask_bit = __get_PRIMASK();
 8003b24:	60fb      	str	r3, [r7, #12]
  __ASM volatile ("cpsid i" : : : "memory");
 8003b26:	b672      	cpsid	i
}
 8003b28:	46c0      	nop			; (mov r8, r8)
    __disable_irq();

    /* Unlocking the Data memory and FLASH_PECR register access*/
    FLASH->PEKEYR = FLASH_PEKEY1;
 8003b2a:	4b0c      	ldr	r3, [pc, #48]	; (8003b5c <HAL_FLASHEx_DATAEEPROM_Unlock+0x50>)
 8003b2c:	4a0c      	ldr	r2, [pc, #48]	; (8003b60 <HAL_FLASHEx_DATAEEPROM_Unlock+0x54>)
 8003b2e:	60da      	str	r2, [r3, #12]
    FLASH->PEKEYR = FLASH_PEKEY2;
 8003b30:	4b0a      	ldr	r3, [pc, #40]	; (8003b5c <HAL_FLASHEx_DATAEEPROM_Unlock+0x50>)
 8003b32:	4a0c      	ldr	r2, [pc, #48]	; (8003b64 <HAL_FLASHEx_DATAEEPROM_Unlock+0x58>)
 8003b34:	60da      	str	r2, [r3, #12]
 8003b36:	68fb      	ldr	r3, [r7, #12]
 8003b38:	60bb      	str	r3, [r7, #8]
  \details Assigns the given value to the Priority Mask Register.
  \param [in]    priMask  Priority Mask
 */
__STATIC_FORCEINLINE void __set_PRIMASK(uint32_t priMask)
{
  __ASM volatile ("MSR primask, %0" : : "r" (priMask) : "memory");
 8003b3a:	68bb      	ldr	r3, [r7, #8]
 8003b3c:	f383 8810 	msr	PRIMASK, r3
}
 8003b40:	46c0      	nop			; (mov r8, r8)

    /* Re-enable the interrupts: restore previous priority mask */
    __set_PRIMASK(primask_bit);

    if((FLASH->PECR & FLASH_PECR_PELOCK) != RESET)
 8003b42:	4b06      	ldr	r3, [pc, #24]	; (8003b5c <HAL_FLASHEx_DATAEEPROM_Unlock+0x50>)
 8003b44:	685b      	ldr	r3, [r3, #4]
 8003b46:	2201      	movs	r2, #1
 8003b48:	4013      	ands	r3, r2
 8003b4a:	d001      	beq.n	8003b50 <HAL_FLASHEx_DATAEEPROM_Unlock+0x44>
    {
      return HAL_ERROR;
 8003b4c:	2301      	movs	r3, #1
 8003b4e:	e000      	b.n	8003b52 <HAL_FLASHEx_DATAEEPROM_Unlock+0x46>
    }
  }

  return HAL_OK;  
 8003b50:	2300      	movs	r3, #0
}
 8003b52:	0018      	movs	r0, r3
 8003b54:	46bd      	mov	sp, r7
 8003b56:	b004      	add	sp, #16
 8003b58:	bd80      	pop	{r7, pc}
 8003b5a:	46c0      	nop			; (mov r8, r8)
 8003b5c:	40022000 	.word	0x40022000
 8003b60:	89abcdef 	.word	0x89abcdef
 8003b64:	02030405 	.word	0x02030405

08003b68 <HAL_FLASHEx_DATAEEPROM_Lock>:
/**
  * @brief  Locks the Data memory and FLASH_PECR register access.
  * @retval HAL_StatusTypeDef HAL Status
  */
HAL_StatusTypeDef HAL_FLASHEx_DATAEEPROM_Lock(void)
{
 8003b68:	b580      	push	{r7, lr}
 8003b6a:	af00      	add	r7, sp, #0
  /* Set the PELOCK Bit to lock the data memory and FLASH_PECR register access */
  SET_BIT(FLASH->PECR, FLASH_PECR_PELOCK);
 8003b6c:	4b04      	ldr	r3, [pc, #16]	; (8003b80 <HAL_FLASHEx_DATAEEPROM_Lock+0x18>)
 8003b6e:	685a      	ldr	r2, [r3, #4]
 8003b70:	4b03      	ldr	r3, [pc, #12]	; (8003b80 <HAL_FLASHEx_DATAEEPROM_Lock+0x18>)
 8003b72:	2101      	movs	r1, #1
 8003b74:	430a      	orrs	r2, r1
 8003b76:	605a      	str	r2, [r3, #4]
  
  return HAL_OK;
 8003b78:	2300      	movs	r3, #0
}
 8003b7a:	0018      	movs	r0, r3
 8003b7c:	46bd      	mov	sp, r7
 8003b7e:	bd80      	pop	{r7, pc}
 8003b80:	40022000 	.word	0x40022000

08003b84 <HAL_FLASHEx_DATAEEPROM_Program>:
  * 
  * @retval HAL_StatusTypeDef HAL Status
  */

HAL_StatusTypeDef   HAL_FLASHEx_DATAEEPROM_Program(uint32_t TypeProgram, uint32_t Address, uint32_t Data)
{
 8003b84:	b5b0      	push	{r4, r5, r7, lr}
 8003b86:	b086      	sub	sp, #24
 8003b88:	af00      	add	r7, sp, #0
 8003b8a:	60f8      	str	r0, [r7, #12]
 8003b8c:	60b9      	str	r1, [r7, #8]
 8003b8e:	607a      	str	r2, [r7, #4]
  HAL_StatusTypeDef status = HAL_ERROR;
 8003b90:	2317      	movs	r3, #23
 8003b92:	18fb      	adds	r3, r7, r3
 8003b94:	2201      	movs	r2, #1
 8003b96:	701a      	strb	r2, [r3, #0]
  
  /* Process Locked */
  __HAL_LOCK(&pFlash);
 8003b98:	4b24      	ldr	r3, [pc, #144]	; (8003c2c <HAL_FLASHEx_DATAEEPROM_Program+0xa8>)
 8003b9a:	7c1b      	ldrb	r3, [r3, #16]
 8003b9c:	2b01      	cmp	r3, #1
 8003b9e:	d101      	bne.n	8003ba4 <HAL_FLASHEx_DATAEEPROM_Program+0x20>
 8003ba0:	2302      	movs	r3, #2
 8003ba2:	e03e      	b.n	8003c22 <HAL_FLASHEx_DATAEEPROM_Program+0x9e>
 8003ba4:	4b21      	ldr	r3, [pc, #132]	; (8003c2c <HAL_FLASHEx_DATAEEPROM_Program+0xa8>)
 8003ba6:	2201      	movs	r2, #1
 8003ba8:	741a      	strb	r2, [r3, #16]
  /* Check the parameters */
  assert_param(IS_TYPEPROGRAMDATA(TypeProgram));
  assert_param(IS_FLASH_DATA_ADDRESS(Address));

  /* Wait for last operation to be completed */
  status = FLASH_WaitForLastOperation(FLASH_TIMEOUT_VALUE);
 8003baa:	2517      	movs	r5, #23
 8003bac:	197c      	adds	r4, r7, r5
 8003bae:	4b20      	ldr	r3, [pc, #128]	; (8003c30 <HAL_FLASHEx_DATAEEPROM_Program+0xac>)
 8003bb0:	0018      	movs	r0, r3
 8003bb2:	f7ff fe9d 	bl	80038f0 <FLASH_WaitForLastOperation>
 8003bb6:	0003      	movs	r3, r0
 8003bb8:	7023      	strb	r3, [r4, #0]
  
  if(status == HAL_OK)
 8003bba:	197b      	adds	r3, r7, r5
 8003bbc:	781b      	ldrb	r3, [r3, #0]
 8003bbe:	2b00      	cmp	r3, #0
 8003bc0:	d129      	bne.n	8003c16 <HAL_FLASHEx_DATAEEPROM_Program+0x92>
  {
    /* Clean the error context */
    pFlash.ErrorCode = HAL_FLASH_ERROR_NONE;
 8003bc2:	4b1a      	ldr	r3, [pc, #104]	; (8003c2c <HAL_FLASHEx_DATAEEPROM_Program+0xa8>)
 8003bc4:	2200      	movs	r2, #0
 8003bc6:	615a      	str	r2, [r3, #20]

    if(TypeProgram == FLASH_TYPEPROGRAMDATA_WORD)
 8003bc8:	68fb      	ldr	r3, [r7, #12]
 8003bca:	2b02      	cmp	r3, #2
 8003bcc:	d103      	bne.n	8003bd6 <HAL_FLASHEx_DATAEEPROM_Program+0x52>
    {
      /* Program word (32-bit) at a specified address.*/
      *(__IO uint32_t *)Address = Data;
 8003bce:	68bb      	ldr	r3, [r7, #8]
 8003bd0:	687a      	ldr	r2, [r7, #4]
 8003bd2:	601a      	str	r2, [r3, #0]
 8003bd4:	e013      	b.n	8003bfe <HAL_FLASHEx_DATAEEPROM_Program+0x7a>
    }
    else if(TypeProgram == FLASH_TYPEPROGRAMDATA_HALFWORD)
 8003bd6:	68fb      	ldr	r3, [r7, #12]
 8003bd8:	2b01      	cmp	r3, #1
 8003bda:	d104      	bne.n	8003be6 <HAL_FLASHEx_DATAEEPROM_Program+0x62>
    {
      /* Program halfword (16-bit) at a specified address.*/
      *(__IO uint16_t *)Address = (uint16_t) Data;
 8003bdc:	68bb      	ldr	r3, [r7, #8]
 8003bde:	687a      	ldr	r2, [r7, #4]
 8003be0:	b292      	uxth	r2, r2
 8003be2:	801a      	strh	r2, [r3, #0]
 8003be4:	e00b      	b.n	8003bfe <HAL_FLASHEx_DATAEEPROM_Program+0x7a>
    }
    else if(TypeProgram == FLASH_TYPEPROGRAMDATA_BYTE)
 8003be6:	68fb      	ldr	r3, [r7, #12]
 8003be8:	2b00      	cmp	r3, #0
 8003bea:	d104      	bne.n	8003bf6 <HAL_FLASHEx_DATAEEPROM_Program+0x72>
    {
      /* Program byte (8-bit) at a specified address.*/
      *(__IO uint8_t *)Address = (uint8_t) Data;
 8003bec:	68bb      	ldr	r3, [r7, #8]
 8003bee:	687a      	ldr	r2, [r7, #4]
 8003bf0:	b2d2      	uxtb	r2, r2
 8003bf2:	701a      	strb	r2, [r3, #0]
 8003bf4:	e003      	b.n	8003bfe <HAL_FLASHEx_DATAEEPROM_Program+0x7a>
    }
    else
    {
      status = HAL_ERROR;
 8003bf6:	2317      	movs	r3, #23
 8003bf8:	18fb      	adds	r3, r7, r3
 8003bfa:	2201      	movs	r2, #1
 8003bfc:	701a      	strb	r2, [r3, #0]
    }

    if (status == HAL_OK)
 8003bfe:	2217      	movs	r2, #23
 8003c00:	18bb      	adds	r3, r7, r2
 8003c02:	781b      	ldrb	r3, [r3, #0]
 8003c04:	2b00      	cmp	r3, #0
 8003c06:	d106      	bne.n	8003c16 <HAL_FLASHEx_DATAEEPROM_Program+0x92>
    {
      /* Wait for last operation to be completed */
      status = FLASH_WaitForLastOperation(FLASH_TIMEOUT_VALUE);
 8003c08:	18bc      	adds	r4, r7, r2
 8003c0a:	4b09      	ldr	r3, [pc, #36]	; (8003c30 <HAL_FLASHEx_DATAEEPROM_Program+0xac>)
 8003c0c:	0018      	movs	r0, r3
 8003c0e:	f7ff fe6f 	bl	80038f0 <FLASH_WaitForLastOperation>
 8003c12:	0003      	movs	r3, r0
 8003c14:	7023      	strb	r3, [r4, #0]
    }
  }

  /* Process Unlocked */
  __HAL_UNLOCK(&pFlash);
 8003c16:	4b05      	ldr	r3, [pc, #20]	; (8003c2c <HAL_FLASHEx_DATAEEPROM_Program+0xa8>)
 8003c18:	2200      	movs	r2, #0
 8003c1a:	741a      	strb	r2, [r3, #16]

  return status;
 8003c1c:	2317      	movs	r3, #23
 8003c1e:	18fb      	adds	r3, r7, r3
 8003c20:	781b      	ldrb	r3, [r3, #0]
}
 8003c22:	0018      	movs	r0, r3
 8003c24:	46bd      	mov	sp, r7
 8003c26:	b006      	add	sp, #24
 8003c28:	bdb0      	pop	{r4, r5, r7, pc}
 8003c2a:	46c0      	nop			; (mov r8, r8)
 8003c2c:	200005a4 	.word	0x200005a4
 8003c30:	0000c350 	.word	0x0000c350

08003c34 <HAL_GPIO_Init>:
  * @param  GPIO_Init pointer to a GPIO_InitTypeDef structure that contains
  *                    the configuration information for the specified GPIO peripheral.
  * @retval None
  */
void HAL_GPIO_Init(GPIO_TypeDef  *GPIOx, GPIO_InitTypeDef *GPIO_Init)
{
 8003c34:	b580      	push	{r7, lr}
 8003c36:	b086      	sub	sp, #24
 8003c38:	af00      	add	r7, sp, #0
 8003c3a:	6078      	str	r0, [r7, #4]
 8003c3c:	6039      	str	r1, [r7, #0]
  uint32_t position = 0x00U;
 8003c3e:	2300      	movs	r3, #0
 8003c40:	617b      	str	r3, [r7, #20]
  uint32_t iocurrent = 0x00U;
 8003c42:	2300      	movs	r3, #0
 8003c44:	60fb      	str	r3, [r7, #12]
  uint32_t temp = 0x00U;
 8003c46:	2300      	movs	r3, #0
 8003c48:	613b      	str	r3, [r7, #16]
  /* Check the parameters */
  assert_param(IS_GPIO_MODE(GPIO_Init->Mode));
  assert_param(IS_GPIO_PIN_AVAILABLE(GPIOx, (GPIO_Init->Pin)));

  /* Configure the port pins */
  while (((GPIO_Init->Pin) >> position) != 0)
 8003c4a:	e149      	b.n	8003ee0 <HAL_GPIO_Init+0x2ac>
  {
    /* Get the IO position */
    iocurrent = (GPIO_Init->Pin) & (1U << position);
 8003c4c:	683b      	ldr	r3, [r7, #0]
 8003c4e:	681b      	ldr	r3, [r3, #0]
 8003c50:	2101      	movs	r1, #1
 8003c52:	697a      	ldr	r2, [r7, #20]
 8003c54:	4091      	lsls	r1, r2
 8003c56:	000a      	movs	r2, r1
 8003c58:	4013      	ands	r3, r2
 8003c5a:	60fb      	str	r3, [r7, #12]

    if (iocurrent)
 8003c5c:	68fb      	ldr	r3, [r7, #12]
 8003c5e:	2b00      	cmp	r3, #0
 8003c60:	d100      	bne.n	8003c64 <HAL_GPIO_Init+0x30>
 8003c62:	e13a      	b.n	8003eda <HAL_GPIO_Init+0x2a6>
    {
      /*--------------------- GPIO Mode Configuration ------------------------*/
      /* In case of Output or Alternate function mode selection */
      if (((GPIO_Init->Mode & GPIO_MODE) == MODE_OUTPUT) ||
 8003c64:	683b      	ldr	r3, [r7, #0]
 8003c66:	685b      	ldr	r3, [r3, #4]
 8003c68:	2203      	movs	r2, #3
 8003c6a:	4013      	ands	r3, r2
 8003c6c:	2b01      	cmp	r3, #1
 8003c6e:	d005      	beq.n	8003c7c <HAL_GPIO_Init+0x48>
          ((GPIO_Init->Mode & GPIO_MODE) == MODE_AF))
 8003c70:	683b      	ldr	r3, [r7, #0]
 8003c72:	685b      	ldr	r3, [r3, #4]
 8003c74:	2203      	movs	r2, #3
 8003c76:	4013      	ands	r3, r2
      if (((GPIO_Init->Mode & GPIO_MODE) == MODE_OUTPUT) ||
 8003c78:	2b02      	cmp	r3, #2
 8003c7a:	d130      	bne.n	8003cde <HAL_GPIO_Init+0xaa>
      {
        /* Check the Speed parameter */
        assert_param(IS_GPIO_SPEED(GPIO_Init->Speed));
        /* Configure the IO Speed */
        temp = GPIOx->OSPEEDR;
 8003c7c:	687b      	ldr	r3, [r7, #4]
 8003c7e:	689b      	ldr	r3, [r3, #8]
 8003c80:	613b      	str	r3, [r7, #16]
        temp &= ~(GPIO_OSPEEDER_OSPEED0 << (position * 2U));
 8003c82:	697b      	ldr	r3, [r7, #20]
 8003c84:	005b      	lsls	r3, r3, #1
 8003c86:	2203      	movs	r2, #3
 8003c88:	409a      	lsls	r2, r3
 8003c8a:	0013      	movs	r3, r2
 8003c8c:	43da      	mvns	r2, r3
 8003c8e:	693b      	ldr	r3, [r7, #16]
 8003c90:	4013      	ands	r3, r2
 8003c92:	613b      	str	r3, [r7, #16]
        temp |= (GPIO_Init->Speed << (position * 2U));
 8003c94:	683b      	ldr	r3, [r7, #0]
 8003c96:	68da      	ldr	r2, [r3, #12]
 8003c98:	697b      	ldr	r3, [r7, #20]
 8003c9a:	005b      	lsls	r3, r3, #1
 8003c9c:	409a      	lsls	r2, r3
 8003c9e:	0013      	movs	r3, r2
 8003ca0:	693a      	ldr	r2, [r7, #16]
 8003ca2:	4313      	orrs	r3, r2
 8003ca4:	613b      	str	r3, [r7, #16]
        GPIOx->OSPEEDR = temp;
 8003ca6:	687b      	ldr	r3, [r7, #4]
 8003ca8:	693a      	ldr	r2, [r7, #16]
 8003caa:	609a      	str	r2, [r3, #8]

        /* Configure the IO Output Type */
        temp = GPIOx->OTYPER;
 8003cac:	687b      	ldr	r3, [r7, #4]
 8003cae:	685b      	ldr	r3, [r3, #4]
 8003cb0:	613b      	str	r3, [r7, #16]
        temp &= ~(GPIO_OTYPER_OT_0 << position) ;
 8003cb2:	2201      	movs	r2, #1
 8003cb4:	697b      	ldr	r3, [r7, #20]
 8003cb6:	409a      	lsls	r2, r3
 8003cb8:	0013      	movs	r3, r2
 8003cba:	43da      	mvns	r2, r3
 8003cbc:	693b      	ldr	r3, [r7, #16]
 8003cbe:	4013      	ands	r3, r2
 8003cc0:	613b      	str	r3, [r7, #16]
        temp |= (((GPIO_Init->Mode & OUTPUT_TYPE) >> OUTPUT_TYPE_Pos) << position);
 8003cc2:	683b      	ldr	r3, [r7, #0]
 8003cc4:	685b      	ldr	r3, [r3, #4]
 8003cc6:	091b      	lsrs	r3, r3, #4
 8003cc8:	2201      	movs	r2, #1
 8003cca:	401a      	ands	r2, r3
 8003ccc:	697b      	ldr	r3, [r7, #20]
 8003cce:	409a      	lsls	r2, r3
 8003cd0:	0013      	movs	r3, r2
 8003cd2:	693a      	ldr	r2, [r7, #16]
 8003cd4:	4313      	orrs	r3, r2
 8003cd6:	613b      	str	r3, [r7, #16]
        GPIOx->OTYPER = temp;
 8003cd8:	687b      	ldr	r3, [r7, #4]
 8003cda:	693a      	ldr	r2, [r7, #16]
 8003cdc:	605a      	str	r2, [r3, #4]
      }

      if ((GPIO_Init->Mode & GPIO_MODE) != MODE_ANALOG)
 8003cde:	683b      	ldr	r3, [r7, #0]
 8003ce0:	685b      	ldr	r3, [r3, #4]
 8003ce2:	2203      	movs	r2, #3
 8003ce4:	4013      	ands	r3, r2
 8003ce6:	2b03      	cmp	r3, #3
 8003ce8:	d017      	beq.n	8003d1a <HAL_GPIO_Init+0xe6>
      {
        /* Check the Pull parameter */
        assert_param(IS_GPIO_PULL(GPIO_Init->Pull));

        /* Activate the Pull-up or Pull down resistor for the current IO */
        temp = GPIOx->PUPDR;
 8003cea:	687b      	ldr	r3, [r7, #4]
 8003cec:	68db      	ldr	r3, [r3, #12]
 8003cee:	613b      	str	r3, [r7, #16]
        temp &= ~(GPIO_PUPDR_PUPD0 << (position * 2U));
 8003cf0:	697b      	ldr	r3, [r7, #20]
 8003cf2:	005b      	lsls	r3, r3, #1
 8003cf4:	2203      	movs	r2, #3
 8003cf6:	409a      	lsls	r2, r3
 8003cf8:	0013      	movs	r3, r2
 8003cfa:	43da      	mvns	r2, r3
 8003cfc:	693b      	ldr	r3, [r7, #16]
 8003cfe:	4013      	ands	r3, r2
 8003d00:	613b      	str	r3, [r7, #16]
        temp |= ((GPIO_Init->Pull) << (position * 2U));
 8003d02:	683b      	ldr	r3, [r7, #0]
 8003d04:	689a      	ldr	r2, [r3, #8]
 8003d06:	697b      	ldr	r3, [r7, #20]
 8003d08:	005b      	lsls	r3, r3, #1
 8003d0a:	409a      	lsls	r2, r3
 8003d0c:	0013      	movs	r3, r2
 8003d0e:	693a      	ldr	r2, [r7, #16]
 8003d10:	4313      	orrs	r3, r2
 8003d12:	613b      	str	r3, [r7, #16]
        GPIOx->PUPDR = temp;
 8003d14:	687b      	ldr	r3, [r7, #4]
 8003d16:	693a      	ldr	r2, [r7, #16]
 8003d18:	60da      	str	r2, [r3, #12]
      }

      /* In case of Alternate function mode selection */
      if ((GPIO_Init->Mode & GPIO_MODE) == MODE_AF)
 8003d1a:	683b      	ldr	r3, [r7, #0]
 8003d1c:	685b      	ldr	r3, [r3, #4]
 8003d1e:	2203      	movs	r2, #3
 8003d20:	4013      	ands	r3, r2
 8003d22:	2b02      	cmp	r3, #2
 8003d24:	d123      	bne.n	8003d6e <HAL_GPIO_Init+0x13a>
        /* Check the Alternate function parameters */
        assert_param(IS_GPIO_AF_INSTANCE(GPIOx));
        assert_param(IS_GPIO_AF(GPIO_Init->Alternate));

        /* Configure Alternate function mapped with the current IO */
        temp = GPIOx->AFR[position >> 3U];
 8003d26:	697b      	ldr	r3, [r7, #20]
 8003d28:	08da      	lsrs	r2, r3, #3
 8003d2a:	687b      	ldr	r3, [r7, #4]
 8003d2c:	3208      	adds	r2, #8
 8003d2e:	0092      	lsls	r2, r2, #2
 8003d30:	58d3      	ldr	r3, [r2, r3]
 8003d32:	613b      	str	r3, [r7, #16]
        temp &= ~(0xFUL << ((uint32_t)(position & 0x07UL) * 4U));
 8003d34:	697b      	ldr	r3, [r7, #20]
 8003d36:	2207      	movs	r2, #7
 8003d38:	4013      	ands	r3, r2
 8003d3a:	009b      	lsls	r3, r3, #2
 8003d3c:	220f      	movs	r2, #15
 8003d3e:	409a      	lsls	r2, r3
 8003d40:	0013      	movs	r3, r2
 8003d42:	43da      	mvns	r2, r3
 8003d44:	693b      	ldr	r3, [r7, #16]
 8003d46:	4013      	ands	r3, r2
 8003d48:	613b      	str	r3, [r7, #16]
        temp |= ((uint32_t)(GPIO_Init->Alternate) << (((uint32_t)position & (uint32_t)0x07U) * 4U));
 8003d4a:	683b      	ldr	r3, [r7, #0]
 8003d4c:	691a      	ldr	r2, [r3, #16]
 8003d4e:	697b      	ldr	r3, [r7, #20]
 8003d50:	2107      	movs	r1, #7
 8003d52:	400b      	ands	r3, r1
 8003d54:	009b      	lsls	r3, r3, #2
 8003d56:	409a      	lsls	r2, r3
 8003d58:	0013      	movs	r3, r2
 8003d5a:	693a      	ldr	r2, [r7, #16]
 8003d5c:	4313      	orrs	r3, r2
 8003d5e:	613b      	str	r3, [r7, #16]
        GPIOx->AFR[position >> 3U] = temp;
 8003d60:	697b      	ldr	r3, [r7, #20]
 8003d62:	08da      	lsrs	r2, r3, #3
 8003d64:	687b      	ldr	r3, [r7, #4]
 8003d66:	3208      	adds	r2, #8
 8003d68:	0092      	lsls	r2, r2, #2
 8003d6a:	6939      	ldr	r1, [r7, #16]
 8003d6c:	50d1      	str	r1, [r2, r3]
      }

      /* Configure IO Direction mode (Input, Output, Alternate or Analog) */
      temp = GPIOx->MODER;
 8003d6e:	687b      	ldr	r3, [r7, #4]
 8003d70:	681b      	ldr	r3, [r3, #0]
 8003d72:	613b      	str	r3, [r7, #16]
      temp &= ~(GPIO_MODER_MODE0 << (position * 2U));
 8003d74:	697b      	ldr	r3, [r7, #20]
 8003d76:	005b      	lsls	r3, r3, #1
 8003d78:	2203      	movs	r2, #3
 8003d7a:	409a      	lsls	r2, r3
 8003d7c:	0013      	movs	r3, r2
 8003d7e:	43da      	mvns	r2, r3
 8003d80:	693b      	ldr	r3, [r7, #16]
 8003d82:	4013      	ands	r3, r2
 8003d84:	613b      	str	r3, [r7, #16]
      temp |= ((GPIO_Init->Mode & GPIO_MODE) << (position * 2U));
 8003d86:	683b      	ldr	r3, [r7, #0]
 8003d88:	685b      	ldr	r3, [r3, #4]
 8003d8a:	2203      	movs	r2, #3
 8003d8c:	401a      	ands	r2, r3
 8003d8e:	697b      	ldr	r3, [r7, #20]
 8003d90:	005b      	lsls	r3, r3, #1
 8003d92:	409a      	lsls	r2, r3
 8003d94:	0013      	movs	r3, r2
 8003d96:	693a      	ldr	r2, [r7, #16]
 8003d98:	4313      	orrs	r3, r2
 8003d9a:	613b      	str	r3, [r7, #16]
      GPIOx->MODER = temp;
 8003d9c:	687b      	ldr	r3, [r7, #4]
 8003d9e:	693a      	ldr	r2, [r7, #16]
 8003da0:	601a      	str	r2, [r3, #0]

      /*--------------------- EXTI Mode Configuration ------------------------*/
      /* Configure the External Interrupt or event for the current IO */
      if ((GPIO_Init->Mode & EXTI_MODE) != 0x00U)
 8003da2:	683b      	ldr	r3, [r7, #0]
 8003da4:	685a      	ldr	r2, [r3, #4]
 8003da6:	23c0      	movs	r3, #192	; 0xc0
 8003da8:	029b      	lsls	r3, r3, #10
 8003daa:	4013      	ands	r3, r2
 8003dac:	d100      	bne.n	8003db0 <HAL_GPIO_Init+0x17c>
 8003dae:	e094      	b.n	8003eda <HAL_GPIO_Init+0x2a6>
      {
        /* Enable SYSCFG Clock */
        __HAL_RCC_SYSCFG_CLK_ENABLE();
 8003db0:	4b51      	ldr	r3, [pc, #324]	; (8003ef8 <HAL_GPIO_Init+0x2c4>)
 8003db2:	6b5a      	ldr	r2, [r3, #52]	; 0x34
 8003db4:	4b50      	ldr	r3, [pc, #320]	; (8003ef8 <HAL_GPIO_Init+0x2c4>)
 8003db6:	2101      	movs	r1, #1
 8003db8:	430a      	orrs	r2, r1
 8003dba:	635a      	str	r2, [r3, #52]	; 0x34

        temp = SYSCFG->EXTICR[position >> 2U];
 8003dbc:	4a4f      	ldr	r2, [pc, #316]	; (8003efc <HAL_GPIO_Init+0x2c8>)
 8003dbe:	697b      	ldr	r3, [r7, #20]
 8003dc0:	089b      	lsrs	r3, r3, #2
 8003dc2:	3302      	adds	r3, #2
 8003dc4:	009b      	lsls	r3, r3, #2
 8003dc6:	589b      	ldr	r3, [r3, r2]
 8003dc8:	613b      	str	r3, [r7, #16]
        CLEAR_BIT(temp, (0x0FUL) << (4U * (position & 0x03U)));
 8003dca:	697b      	ldr	r3, [r7, #20]
 8003dcc:	2203      	movs	r2, #3
 8003dce:	4013      	ands	r3, r2
 8003dd0:	009b      	lsls	r3, r3, #2
 8003dd2:	220f      	movs	r2, #15
 8003dd4:	409a      	lsls	r2, r3
 8003dd6:	0013      	movs	r3, r2
 8003dd8:	43da      	mvns	r2, r3
 8003dda:	693b      	ldr	r3, [r7, #16]
 8003ddc:	4013      	ands	r3, r2
 8003dde:	613b      	str	r3, [r7, #16]
        SET_BIT(temp, (GPIO_GET_INDEX(GPIOx)) << (4 * (position & 0x03U)));
 8003de0:	687a      	ldr	r2, [r7, #4]
 8003de2:	23a0      	movs	r3, #160	; 0xa0
 8003de4:	05db      	lsls	r3, r3, #23
 8003de6:	429a      	cmp	r2, r3
 8003de8:	d013      	beq.n	8003e12 <HAL_GPIO_Init+0x1de>
 8003dea:	687b      	ldr	r3, [r7, #4]
 8003dec:	4a44      	ldr	r2, [pc, #272]	; (8003f00 <HAL_GPIO_Init+0x2cc>)
 8003dee:	4293      	cmp	r3, r2
 8003df0:	d00d      	beq.n	8003e0e <HAL_GPIO_Init+0x1da>
 8003df2:	687b      	ldr	r3, [r7, #4]
 8003df4:	4a43      	ldr	r2, [pc, #268]	; (8003f04 <HAL_GPIO_Init+0x2d0>)
 8003df6:	4293      	cmp	r3, r2
 8003df8:	d007      	beq.n	8003e0a <HAL_GPIO_Init+0x1d6>
 8003dfa:	687b      	ldr	r3, [r7, #4]
 8003dfc:	4a42      	ldr	r2, [pc, #264]	; (8003f08 <HAL_GPIO_Init+0x2d4>)
 8003dfe:	4293      	cmp	r3, r2
 8003e00:	d101      	bne.n	8003e06 <HAL_GPIO_Init+0x1d2>
 8003e02:	2305      	movs	r3, #5
 8003e04:	e006      	b.n	8003e14 <HAL_GPIO_Init+0x1e0>
 8003e06:	2306      	movs	r3, #6
 8003e08:	e004      	b.n	8003e14 <HAL_GPIO_Init+0x1e0>
 8003e0a:	2302      	movs	r3, #2
 8003e0c:	e002      	b.n	8003e14 <HAL_GPIO_Init+0x1e0>
 8003e0e:	2301      	movs	r3, #1
 8003e10:	e000      	b.n	8003e14 <HAL_GPIO_Init+0x1e0>
 8003e12:	2300      	movs	r3, #0
 8003e14:	697a      	ldr	r2, [r7, #20]
 8003e16:	2103      	movs	r1, #3
 8003e18:	400a      	ands	r2, r1
 8003e1a:	0092      	lsls	r2, r2, #2
 8003e1c:	4093      	lsls	r3, r2
 8003e1e:	693a      	ldr	r2, [r7, #16]
 8003e20:	4313      	orrs	r3, r2
 8003e22:	613b      	str	r3, [r7, #16]
        SYSCFG->EXTICR[position >> 2U] = temp;
 8003e24:	4935      	ldr	r1, [pc, #212]	; (8003efc <HAL_GPIO_Init+0x2c8>)
 8003e26:	697b      	ldr	r3, [r7, #20]
 8003e28:	089b      	lsrs	r3, r3, #2
 8003e2a:	3302      	adds	r3, #2
 8003e2c:	009b      	lsls	r3, r3, #2
 8003e2e:	693a      	ldr	r2, [r7, #16]
 8003e30:	505a      	str	r2, [r3, r1]

        /* Clear Rising Falling edge configuration */
        temp = EXTI->RTSR;
 8003e32:	4b36      	ldr	r3, [pc, #216]	; (8003f0c <HAL_GPIO_Init+0x2d8>)
 8003e34:	689b      	ldr	r3, [r3, #8]
 8003e36:	613b      	str	r3, [r7, #16]
        temp &= ~((uint32_t)iocurrent);
 8003e38:	68fb      	ldr	r3, [r7, #12]
 8003e3a:	43da      	mvns	r2, r3
 8003e3c:	693b      	ldr	r3, [r7, #16]
 8003e3e:	4013      	ands	r3, r2
 8003e40:	613b      	str	r3, [r7, #16]
        if ((GPIO_Init->Mode & TRIGGER_RISING) != 0x00U)
 8003e42:	683b      	ldr	r3, [r7, #0]
 8003e44:	685a      	ldr	r2, [r3, #4]
 8003e46:	2380      	movs	r3, #128	; 0x80
 8003e48:	035b      	lsls	r3, r3, #13
 8003e4a:	4013      	ands	r3, r2
 8003e4c:	d003      	beq.n	8003e56 <HAL_GPIO_Init+0x222>
        {
          temp |= iocurrent;
 8003e4e:	693a      	ldr	r2, [r7, #16]
 8003e50:	68fb      	ldr	r3, [r7, #12]
 8003e52:	4313      	orrs	r3, r2
 8003e54:	613b      	str	r3, [r7, #16]
        }
        EXTI->RTSR = temp;
 8003e56:	4b2d      	ldr	r3, [pc, #180]	; (8003f0c <HAL_GPIO_Init+0x2d8>)
 8003e58:	693a      	ldr	r2, [r7, #16]
 8003e5a:	609a      	str	r2, [r3, #8]

        temp = EXTI->FTSR;
 8003e5c:	4b2b      	ldr	r3, [pc, #172]	; (8003f0c <HAL_GPIO_Init+0x2d8>)
 8003e5e:	68db      	ldr	r3, [r3, #12]
 8003e60:	613b      	str	r3, [r7, #16]
        temp &= ~((uint32_t)iocurrent);
 8003e62:	68fb      	ldr	r3, [r7, #12]
 8003e64:	43da      	mvns	r2, r3
 8003e66:	693b      	ldr	r3, [r7, #16]
 8003e68:	4013      	ands	r3, r2
 8003e6a:	613b      	str	r3, [r7, #16]
        if ((GPIO_Init->Mode & TRIGGER_FALLING) != 0x00U)
 8003e6c:	683b      	ldr	r3, [r7, #0]
 8003e6e:	685a      	ldr	r2, [r3, #4]
 8003e70:	2380      	movs	r3, #128	; 0x80
 8003e72:	039b      	lsls	r3, r3, #14
 8003e74:	4013      	ands	r3, r2
 8003e76:	d003      	beq.n	8003e80 <HAL_GPIO_Init+0x24c>
        {
          temp |= iocurrent;
 8003e78:	693a      	ldr	r2, [r7, #16]
 8003e7a:	68fb      	ldr	r3, [r7, #12]
 8003e7c:	4313      	orrs	r3, r2
 8003e7e:	613b      	str	r3, [r7, #16]
        }
        EXTI->FTSR = temp;
 8003e80:	4b22      	ldr	r3, [pc, #136]	; (8003f0c <HAL_GPIO_Init+0x2d8>)
 8003e82:	693a      	ldr	r2, [r7, #16]
 8003e84:	60da      	str	r2, [r3, #12]

        temp = EXTI->EMR;
 8003e86:	4b21      	ldr	r3, [pc, #132]	; (8003f0c <HAL_GPIO_Init+0x2d8>)
 8003e88:	685b      	ldr	r3, [r3, #4]
 8003e8a:	613b      	str	r3, [r7, #16]
        temp &= ~((uint32_t)iocurrent);
 8003e8c:	68fb      	ldr	r3, [r7, #12]
 8003e8e:	43da      	mvns	r2, r3
 8003e90:	693b      	ldr	r3, [r7, #16]
 8003e92:	4013      	ands	r3, r2
 8003e94:	613b      	str	r3, [r7, #16]
        if ((GPIO_Init->Mode & EXTI_EVT) != 0x00U)
 8003e96:	683b      	ldr	r3, [r7, #0]
 8003e98:	685a      	ldr	r2, [r3, #4]
 8003e9a:	2380      	movs	r3, #128	; 0x80
 8003e9c:	029b      	lsls	r3, r3, #10
 8003e9e:	4013      	ands	r3, r2
 8003ea0:	d003      	beq.n	8003eaa <HAL_GPIO_Init+0x276>
        {
          temp |= iocurrent;
 8003ea2:	693a      	ldr	r2, [r7, #16]
 8003ea4:	68fb      	ldr	r3, [r7, #12]
 8003ea6:	4313      	orrs	r3, r2
 8003ea8:	613b      	str	r3, [r7, #16]
        }
        EXTI->EMR = temp;
 8003eaa:	4b18      	ldr	r3, [pc, #96]	; (8003f0c <HAL_GPIO_Init+0x2d8>)
 8003eac:	693a      	ldr	r2, [r7, #16]
 8003eae:	605a      	str	r2, [r3, #4]

        /* Clear EXTI line configuration */
        temp = EXTI->IMR;
 8003eb0:	4b16      	ldr	r3, [pc, #88]	; (8003f0c <HAL_GPIO_Init+0x2d8>)
 8003eb2:	681b      	ldr	r3, [r3, #0]
 8003eb4:	613b      	str	r3, [r7, #16]
        temp &= ~((uint32_t)iocurrent);
 8003eb6:	68fb      	ldr	r3, [r7, #12]
 8003eb8:	43da      	mvns	r2, r3
 8003eba:	693b      	ldr	r3, [r7, #16]
 8003ebc:	4013      	ands	r3, r2
 8003ebe:	613b      	str	r3, [r7, #16]
        if ((GPIO_Init->Mode & EXTI_IT) != 0x00U)
 8003ec0:	683b      	ldr	r3, [r7, #0]
 8003ec2:	685a      	ldr	r2, [r3, #4]
 8003ec4:	2380      	movs	r3, #128	; 0x80
 8003ec6:	025b      	lsls	r3, r3, #9
 8003ec8:	4013      	ands	r3, r2
 8003eca:	d003      	beq.n	8003ed4 <HAL_GPIO_Init+0x2a0>
        {
          temp |= iocurrent;
 8003ecc:	693a      	ldr	r2, [r7, #16]
 8003ece:	68fb      	ldr	r3, [r7, #12]
 8003ed0:	4313      	orrs	r3, r2
 8003ed2:	613b      	str	r3, [r7, #16]
        }
        EXTI->IMR = temp;
 8003ed4:	4b0d      	ldr	r3, [pc, #52]	; (8003f0c <HAL_GPIO_Init+0x2d8>)
 8003ed6:	693a      	ldr	r2, [r7, #16]
 8003ed8:	601a      	str	r2, [r3, #0]
      }
    }
    position++;
 8003eda:	697b      	ldr	r3, [r7, #20]
 8003edc:	3301      	adds	r3, #1
 8003ede:	617b      	str	r3, [r7, #20]
  while (((GPIO_Init->Pin) >> position) != 0)
 8003ee0:	683b      	ldr	r3, [r7, #0]
 8003ee2:	681a      	ldr	r2, [r3, #0]
 8003ee4:	697b      	ldr	r3, [r7, #20]
 8003ee6:	40da      	lsrs	r2, r3
 8003ee8:	1e13      	subs	r3, r2, #0
 8003eea:	d000      	beq.n	8003eee <HAL_GPIO_Init+0x2ba>
 8003eec:	e6ae      	b.n	8003c4c <HAL_GPIO_Init+0x18>
  }
}
 8003eee:	46c0      	nop			; (mov r8, r8)
 8003ef0:	46c0      	nop			; (mov r8, r8)
 8003ef2:	46bd      	mov	sp, r7
 8003ef4:	b006      	add	sp, #24
 8003ef6:	bd80      	pop	{r7, pc}
 8003ef8:	40021000 	.word	0x40021000
 8003efc:	40010000 	.word	0x40010000
 8003f00:	50000400 	.word	0x50000400
 8003f04:	50000800 	.word	0x50000800
 8003f08:	50001c00 	.word	0x50001c00
 8003f0c:	40010400 	.word	0x40010400

08003f10 <HAL_GPIO_ReadPin>:
  *                   This parameter can be GPIO_PIN_x where x can be (0..15).
  *                   All port bits are not necessarily available on all GPIOs.
  * @retval The input port pin value.
  */
GPIO_PinState HAL_GPIO_ReadPin(GPIO_TypeDef *GPIOx, uint16_t GPIO_Pin)
{
 8003f10:	b580      	push	{r7, lr}
 8003f12:	b084      	sub	sp, #16
 8003f14:	af00      	add	r7, sp, #0
 8003f16:	6078      	str	r0, [r7, #4]
 8003f18:	000a      	movs	r2, r1
 8003f1a:	1cbb      	adds	r3, r7, #2
 8003f1c:	801a      	strh	r2, [r3, #0]
  GPIO_PinState bitstatus;

  /* Check the parameters */
  assert_param(IS_GPIO_PIN_AVAILABLE(GPIOx, GPIO_Pin));

  if ((GPIOx->IDR & GPIO_Pin) != (uint32_t)GPIO_PIN_RESET)
 8003f1e:	687b      	ldr	r3, [r7, #4]
 8003f20:	691b      	ldr	r3, [r3, #16]
 8003f22:	1cba      	adds	r2, r7, #2
 8003f24:	8812      	ldrh	r2, [r2, #0]
 8003f26:	4013      	ands	r3, r2
 8003f28:	d004      	beq.n	8003f34 <HAL_GPIO_ReadPin+0x24>
  {
    bitstatus = GPIO_PIN_SET;
 8003f2a:	230f      	movs	r3, #15
 8003f2c:	18fb      	adds	r3, r7, r3
 8003f2e:	2201      	movs	r2, #1
 8003f30:	701a      	strb	r2, [r3, #0]
 8003f32:	e003      	b.n	8003f3c <HAL_GPIO_ReadPin+0x2c>
  }
  else
  {
    bitstatus = GPIO_PIN_RESET;
 8003f34:	230f      	movs	r3, #15
 8003f36:	18fb      	adds	r3, r7, r3
 8003f38:	2200      	movs	r2, #0
 8003f3a:	701a      	strb	r2, [r3, #0]
  }
  return bitstatus;
 8003f3c:	230f      	movs	r3, #15
 8003f3e:	18fb      	adds	r3, r7, r3
 8003f40:	781b      	ldrb	r3, [r3, #0]
}
 8003f42:	0018      	movs	r0, r3
 8003f44:	46bd      	mov	sp, r7
 8003f46:	b004      	add	sp, #16
 8003f48:	bd80      	pop	{r7, pc}

08003f4a <HAL_GPIO_WritePin>:
  *                        GPIO_PIN_RESET: to clear the port pin
  *                        GPIO_PIN_SET: to set the port pin
  * @retval None
  */
void HAL_GPIO_WritePin(GPIO_TypeDef *GPIOx, uint16_t GPIO_Pin, GPIO_PinState PinState)
{
 8003f4a:	b580      	push	{r7, lr}
 8003f4c:	b082      	sub	sp, #8
 8003f4e:	af00      	add	r7, sp, #0
 8003f50:	6078      	str	r0, [r7, #4]
 8003f52:	0008      	movs	r0, r1
 8003f54:	0011      	movs	r1, r2
 8003f56:	1cbb      	adds	r3, r7, #2
 8003f58:	1c02      	adds	r2, r0, #0
 8003f5a:	801a      	strh	r2, [r3, #0]
 8003f5c:	1c7b      	adds	r3, r7, #1
 8003f5e:	1c0a      	adds	r2, r1, #0
 8003f60:	701a      	strb	r2, [r3, #0]
  /* Check the parameters */
  assert_param(IS_GPIO_PIN_AVAILABLE(GPIOx, GPIO_Pin));
  assert_param(IS_GPIO_PIN_ACTION(PinState));

  if (PinState != GPIO_PIN_RESET)
 8003f62:	1c7b      	adds	r3, r7, #1
 8003f64:	781b      	ldrb	r3, [r3, #0]
 8003f66:	2b00      	cmp	r3, #0
 8003f68:	d004      	beq.n	8003f74 <HAL_GPIO_WritePin+0x2a>
  {
    GPIOx->BSRR = GPIO_Pin;
 8003f6a:	1cbb      	adds	r3, r7, #2
 8003f6c:	881a      	ldrh	r2, [r3, #0]
 8003f6e:	687b      	ldr	r3, [r7, #4]
 8003f70:	619a      	str	r2, [r3, #24]
  }
  else
  {
    GPIOx->BRR = GPIO_Pin ;
  }
}
 8003f72:	e003      	b.n	8003f7c <HAL_GPIO_WritePin+0x32>
    GPIOx->BRR = GPIO_Pin ;
 8003f74:	1cbb      	adds	r3, r7, #2
 8003f76:	881a      	ldrh	r2, [r3, #0]
 8003f78:	687b      	ldr	r3, [r7, #4]
 8003f7a:	629a      	str	r2, [r3, #40]	; 0x28
}
 8003f7c:	46c0      	nop			; (mov r8, r8)
 8003f7e:	46bd      	mov	sp, r7
 8003f80:	b002      	add	sp, #8
 8003f82:	bd80      	pop	{r7, pc}

08003f84 <HAL_I2C_Init>:
  * @param  hi2c Pointer to a I2C_HandleTypeDef structure that contains
  *                the configuration information for the specified I2C.
  * @retval HAL status
  */
HAL_StatusTypeDef HAL_I2C_Init(I2C_HandleTypeDef *hi2c)
{
 8003f84:	b580      	push	{r7, lr}
 8003f86:	b082      	sub	sp, #8
 8003f88:	af00      	add	r7, sp, #0
 8003f8a:	6078      	str	r0, [r7, #4]
  /* Check the I2C handle allocation */
  if (hi2c == NULL)
 8003f8c:	687b      	ldr	r3, [r7, #4]
 8003f8e:	2b00      	cmp	r3, #0
 8003f90:	d101      	bne.n	8003f96 <HAL_I2C_Init+0x12>
  {
    return HAL_ERROR;
 8003f92:	2301      	movs	r3, #1
 8003f94:	e082      	b.n	800409c <HAL_I2C_Init+0x118>
  assert_param(IS_I2C_OWN_ADDRESS2(hi2c->Init.OwnAddress2));
  assert_param(IS_I2C_OWN_ADDRESS2_MASK(hi2c->Init.OwnAddress2Masks));
  assert_param(IS_I2C_GENERAL_CALL(hi2c->Init.GeneralCallMode));
  assert_param(IS_I2C_NO_STRETCH(hi2c->Init.NoStretchMode));

  if (hi2c->State == HAL_I2C_STATE_RESET)
 8003f96:	687b      	ldr	r3, [r7, #4]
 8003f98:	2241      	movs	r2, #65	; 0x41
 8003f9a:	5c9b      	ldrb	r3, [r3, r2]
 8003f9c:	b2db      	uxtb	r3, r3
 8003f9e:	2b00      	cmp	r3, #0
 8003fa0:	d107      	bne.n	8003fb2 <HAL_I2C_Init+0x2e>
  {
    /* Allocate lock resource and initialize it */
    hi2c->Lock = HAL_UNLOCKED;
 8003fa2:	687b      	ldr	r3, [r7, #4]
 8003fa4:	2240      	movs	r2, #64	; 0x40
 8003fa6:	2100      	movs	r1, #0
 8003fa8:	5499      	strb	r1, [r3, r2]

    /* Init the low level hardware : GPIO, CLOCK, CORTEX...etc */
    hi2c->MspInitCallback(hi2c);
#else
    /* Init the low level hardware : GPIO, CLOCK, CORTEX...etc */
    HAL_I2C_MspInit(hi2c);
 8003faa:	687b      	ldr	r3, [r7, #4]
 8003fac:	0018      	movs	r0, r3
 8003fae:	f7fc fb47 	bl	8000640 <HAL_I2C_MspInit>
#endif /* USE_HAL_I2C_REGISTER_CALLBACKS */
  }

  hi2c->State = HAL_I2C_STATE_BUSY;
 8003fb2:	687b      	ldr	r3, [r7, #4]
 8003fb4:	2241      	movs	r2, #65	; 0x41
 8003fb6:	2124      	movs	r1, #36	; 0x24
 8003fb8:	5499      	strb	r1, [r3, r2]

  /* Disable the selected I2C peripheral */
  __HAL_I2C_DISABLE(hi2c);
 8003fba:	687b      	ldr	r3, [r7, #4]
 8003fbc:	681b      	ldr	r3, [r3, #0]
 8003fbe:	681a      	ldr	r2, [r3, #0]
 8003fc0:	687b      	ldr	r3, [r7, #4]
 8003fc2:	681b      	ldr	r3, [r3, #0]
 8003fc4:	2101      	movs	r1, #1
 8003fc6:	438a      	bics	r2, r1
 8003fc8:	601a      	str	r2, [r3, #0]

  /*---------------------------- I2Cx TIMINGR Configuration ------------------*/
  /* Configure I2Cx: Frequency range */
  hi2c->Instance->TIMINGR = hi2c->Init.Timing & TIMING_CLEAR_MASK;
 8003fca:	687b      	ldr	r3, [r7, #4]
 8003fcc:	685a      	ldr	r2, [r3, #4]
 8003fce:	687b      	ldr	r3, [r7, #4]
 8003fd0:	681b      	ldr	r3, [r3, #0]
 8003fd2:	4934      	ldr	r1, [pc, #208]	; (80040a4 <HAL_I2C_Init+0x120>)
 8003fd4:	400a      	ands	r2, r1
 8003fd6:	611a      	str	r2, [r3, #16]

  /*---------------------------- I2Cx OAR1 Configuration ---------------------*/
  /* Disable Own Address1 before set the Own Address1 configuration */
  hi2c->Instance->OAR1 &= ~I2C_OAR1_OA1EN;
 8003fd8:	687b      	ldr	r3, [r7, #4]
 8003fda:	681b      	ldr	r3, [r3, #0]
 8003fdc:	689a      	ldr	r2, [r3, #8]
 8003fde:	687b      	ldr	r3, [r7, #4]
 8003fe0:	681b      	ldr	r3, [r3, #0]
 8003fe2:	4931      	ldr	r1, [pc, #196]	; (80040a8 <HAL_I2C_Init+0x124>)
 8003fe4:	400a      	ands	r2, r1
 8003fe6:	609a      	str	r2, [r3, #8]

  /* Configure I2Cx: Own Address1 and ack own address1 mode */
  if (hi2c->Init.AddressingMode == I2C_ADDRESSINGMODE_7BIT)
 8003fe8:	687b      	ldr	r3, [r7, #4]
 8003fea:	68db      	ldr	r3, [r3, #12]
 8003fec:	2b01      	cmp	r3, #1
 8003fee:	d108      	bne.n	8004002 <HAL_I2C_Init+0x7e>
  {
    hi2c->Instance->OAR1 = (I2C_OAR1_OA1EN | hi2c->Init.OwnAddress1);
 8003ff0:	687b      	ldr	r3, [r7, #4]
 8003ff2:	689a      	ldr	r2, [r3, #8]
 8003ff4:	687b      	ldr	r3, [r7, #4]
 8003ff6:	681b      	ldr	r3, [r3, #0]
 8003ff8:	2180      	movs	r1, #128	; 0x80
 8003ffa:	0209      	lsls	r1, r1, #8
 8003ffc:	430a      	orrs	r2, r1
 8003ffe:	609a      	str	r2, [r3, #8]
 8004000:	e007      	b.n	8004012 <HAL_I2C_Init+0x8e>
  }
  else /* I2C_ADDRESSINGMODE_10BIT */
  {
    hi2c->Instance->OAR1 = (I2C_OAR1_OA1EN | I2C_OAR1_OA1MODE | hi2c->Init.OwnAddress1);
 8004002:	687b      	ldr	r3, [r7, #4]
 8004004:	689a      	ldr	r2, [r3, #8]
 8004006:	687b      	ldr	r3, [r7, #4]
 8004008:	681b      	ldr	r3, [r3, #0]
 800400a:	2184      	movs	r1, #132	; 0x84
 800400c:	0209      	lsls	r1, r1, #8
 800400e:	430a      	orrs	r2, r1
 8004010:	609a      	str	r2, [r3, #8]
  }

  /*---------------------------- I2Cx CR2 Configuration ----------------------*/
  /* Configure I2Cx: Addressing Master mode */
  if (hi2c->Init.AddressingMode == I2C_ADDRESSINGMODE_10BIT)
 8004012:	687b      	ldr	r3, [r7, #4]
 8004014:	68db      	ldr	r3, [r3, #12]
 8004016:	2b02      	cmp	r3, #2
 8004018:	d104      	bne.n	8004024 <HAL_I2C_Init+0xa0>
  {
    hi2c->Instance->CR2 = (I2C_CR2_ADD10);
 800401a:	687b      	ldr	r3, [r7, #4]
 800401c:	681b      	ldr	r3, [r3, #0]
 800401e:	2280      	movs	r2, #128	; 0x80
 8004020:	0112      	lsls	r2, r2, #4
 8004022:	605a      	str	r2, [r3, #4]
  }
  /* Enable the AUTOEND by default, and enable NACK (should be disable only during Slave process */
  hi2c->Instance->CR2 |= (I2C_CR2_AUTOEND | I2C_CR2_NACK);
 8004024:	687b      	ldr	r3, [r7, #4]
 8004026:	681b      	ldr	r3, [r3, #0]
 8004028:	685a      	ldr	r2, [r3, #4]
 800402a:	687b      	ldr	r3, [r7, #4]
 800402c:	681b      	ldr	r3, [r3, #0]
 800402e:	491f      	ldr	r1, [pc, #124]	; (80040ac <HAL_I2C_Init+0x128>)
 8004030:	430a      	orrs	r2, r1
 8004032:	605a      	str	r2, [r3, #4]

  /*---------------------------- I2Cx OAR2 Configuration ---------------------*/
  /* Disable Own Address2 before set the Own Address2 configuration */
  hi2c->Instance->OAR2 &= ~I2C_DUALADDRESS_ENABLE;
 8004034:	687b      	ldr	r3, [r7, #4]
 8004036:	681b      	ldr	r3, [r3, #0]
 8004038:	68da      	ldr	r2, [r3, #12]
 800403a:	687b      	ldr	r3, [r7, #4]
 800403c:	681b      	ldr	r3, [r3, #0]
 800403e:	491a      	ldr	r1, [pc, #104]	; (80040a8 <HAL_I2C_Init+0x124>)
 8004040:	400a      	ands	r2, r1
 8004042:	60da      	str	r2, [r3, #12]

  /* Configure I2Cx: Dual mode and Own Address2 */
  hi2c->Instance->OAR2 = (hi2c->Init.DualAddressMode | hi2c->Init.OwnAddress2 | \
 8004044:	687b      	ldr	r3, [r7, #4]
 8004046:	691a      	ldr	r2, [r3, #16]
 8004048:	687b      	ldr	r3, [r7, #4]
 800404a:	695b      	ldr	r3, [r3, #20]
 800404c:	431a      	orrs	r2, r3
 800404e:	0011      	movs	r1, r2
                          (hi2c->Init.OwnAddress2Masks << 8));
 8004050:	687b      	ldr	r3, [r7, #4]
 8004052:	699b      	ldr	r3, [r3, #24]
 8004054:	021a      	lsls	r2, r3, #8
  hi2c->Instance->OAR2 = (hi2c->Init.DualAddressMode | hi2c->Init.OwnAddress2 | \
 8004056:	687b      	ldr	r3, [r7, #4]
 8004058:	681b      	ldr	r3, [r3, #0]
 800405a:	430a      	orrs	r2, r1
 800405c:	60da      	str	r2, [r3, #12]

  /*---------------------------- I2Cx CR1 Configuration ----------------------*/
  /* Configure I2Cx: Generalcall and NoStretch mode */
  hi2c->Instance->CR1 = (hi2c->Init.GeneralCallMode | hi2c->Init.NoStretchMode);
 800405e:	687b      	ldr	r3, [r7, #4]
 8004060:	69d9      	ldr	r1, [r3, #28]
 8004062:	687b      	ldr	r3, [r7, #4]
 8004064:	6a1a      	ldr	r2, [r3, #32]
 8004066:	687b      	ldr	r3, [r7, #4]
 8004068:	681b      	ldr	r3, [r3, #0]
 800406a:	430a      	orrs	r2, r1
 800406c:	601a      	str	r2, [r3, #0]

  /* Enable the selected I2C peripheral */
  __HAL_I2C_ENABLE(hi2c);
 800406e:	687b      	ldr	r3, [r7, #4]
 8004070:	681b      	ldr	r3, [r3, #0]
 8004072:	681a      	ldr	r2, [r3, #0]
 8004074:	687b      	ldr	r3, [r7, #4]
 8004076:	681b      	ldr	r3, [r3, #0]
 8004078:	2101      	movs	r1, #1
 800407a:	430a      	orrs	r2, r1
 800407c:	601a      	str	r2, [r3, #0]

  hi2c->ErrorCode = HAL_I2C_ERROR_NONE;
 800407e:	687b      	ldr	r3, [r7, #4]
 8004080:	2200      	movs	r2, #0
 8004082:	645a      	str	r2, [r3, #68]	; 0x44
  hi2c->State = HAL_I2C_STATE_READY;
 8004084:	687b      	ldr	r3, [r7, #4]
 8004086:	2241      	movs	r2, #65	; 0x41
 8004088:	2120      	movs	r1, #32
 800408a:	5499      	strb	r1, [r3, r2]
  hi2c->PreviousState = I2C_STATE_NONE;
 800408c:	687b      	ldr	r3, [r7, #4]
 800408e:	2200      	movs	r2, #0
 8004090:	631a      	str	r2, [r3, #48]	; 0x30
  hi2c->Mode = HAL_I2C_MODE_NONE;
 8004092:	687b      	ldr	r3, [r7, #4]
 8004094:	2242      	movs	r2, #66	; 0x42
 8004096:	2100      	movs	r1, #0
 8004098:	5499      	strb	r1, [r3, r2]

  return HAL_OK;
 800409a:	2300      	movs	r3, #0
}
 800409c:	0018      	movs	r0, r3
 800409e:	46bd      	mov	sp, r7
 80040a0:	b002      	add	sp, #8
 80040a2:	bd80      	pop	{r7, pc}
 80040a4:	f0ffffff 	.word	0xf0ffffff
 80040a8:	ffff7fff 	.word	0xffff7fff
 80040ac:	02008000 	.word	0x02008000

080040b0 <HAL_I2C_Master_Transmit>:
  * @param  Timeout Timeout duration
  * @retval HAL status
  */
HAL_StatusTypeDef HAL_I2C_Master_Transmit(I2C_HandleTypeDef *hi2c, uint16_t DevAddress, uint8_t *pData,
                                          uint16_t Size, uint32_t Timeout)
{
 80040b0:	b590      	push	{r4, r7, lr}
 80040b2:	b089      	sub	sp, #36	; 0x24
 80040b4:	af02      	add	r7, sp, #8
 80040b6:	60f8      	str	r0, [r7, #12]
 80040b8:	0008      	movs	r0, r1
 80040ba:	607a      	str	r2, [r7, #4]
 80040bc:	0019      	movs	r1, r3
 80040be:	230a      	movs	r3, #10
 80040c0:	18fb      	adds	r3, r7, r3
 80040c2:	1c02      	adds	r2, r0, #0
 80040c4:	801a      	strh	r2, [r3, #0]
 80040c6:	2308      	movs	r3, #8
 80040c8:	18fb      	adds	r3, r7, r3
 80040ca:	1c0a      	adds	r2, r1, #0
 80040cc:	801a      	strh	r2, [r3, #0]
  uint32_t tickstart;

  if (hi2c->State == HAL_I2C_STATE_READY)
 80040ce:	68fb      	ldr	r3, [r7, #12]
 80040d0:	2241      	movs	r2, #65	; 0x41
 80040d2:	5c9b      	ldrb	r3, [r3, r2]
 80040d4:	b2db      	uxtb	r3, r3
 80040d6:	2b20      	cmp	r3, #32
 80040d8:	d000      	beq.n	80040dc <HAL_I2C_Master_Transmit+0x2c>
 80040da:	e0e7      	b.n	80042ac <HAL_I2C_Master_Transmit+0x1fc>
  {
    /* Process Locked */
    __HAL_LOCK(hi2c);
 80040dc:	68fb      	ldr	r3, [r7, #12]
 80040de:	2240      	movs	r2, #64	; 0x40
 80040e0:	5c9b      	ldrb	r3, [r3, r2]
 80040e2:	2b01      	cmp	r3, #1
 80040e4:	d101      	bne.n	80040ea <HAL_I2C_Master_Transmit+0x3a>
 80040e6:	2302      	movs	r3, #2
 80040e8:	e0e1      	b.n	80042ae <HAL_I2C_Master_Transmit+0x1fe>
 80040ea:	68fb      	ldr	r3, [r7, #12]
 80040ec:	2240      	movs	r2, #64	; 0x40
 80040ee:	2101      	movs	r1, #1
 80040f0:	5499      	strb	r1, [r3, r2]

    /* Init tickstart for timeout management*/
    tickstart = HAL_GetTick();
 80040f2:	f7ff f913 	bl	800331c <HAL_GetTick>
 80040f6:	0003      	movs	r3, r0
 80040f8:	617b      	str	r3, [r7, #20]

    if (I2C_WaitOnFlagUntilTimeout(hi2c, I2C_FLAG_BUSY, SET, I2C_TIMEOUT_BUSY, tickstart) != HAL_OK)
 80040fa:	2380      	movs	r3, #128	; 0x80
 80040fc:	0219      	lsls	r1, r3, #8
 80040fe:	68f8      	ldr	r0, [r7, #12]
 8004100:	697b      	ldr	r3, [r7, #20]
 8004102:	9300      	str	r3, [sp, #0]
 8004104:	2319      	movs	r3, #25
 8004106:	2201      	movs	r2, #1
 8004108:	f000 fa04 	bl	8004514 <I2C_WaitOnFlagUntilTimeout>
 800410c:	1e03      	subs	r3, r0, #0
 800410e:	d001      	beq.n	8004114 <HAL_I2C_Master_Transmit+0x64>
    {
      return HAL_ERROR;
 8004110:	2301      	movs	r3, #1
 8004112:	e0cc      	b.n	80042ae <HAL_I2C_Master_Transmit+0x1fe>
    }

    hi2c->State     = HAL_I2C_STATE_BUSY_TX;
 8004114:	68fb      	ldr	r3, [r7, #12]
 8004116:	2241      	movs	r2, #65	; 0x41
 8004118:	2121      	movs	r1, #33	; 0x21
 800411a:	5499      	strb	r1, [r3, r2]
    hi2c->Mode      = HAL_I2C_MODE_MASTER;
 800411c:	68fb      	ldr	r3, [r7, #12]
 800411e:	2242      	movs	r2, #66	; 0x42
 8004120:	2110      	movs	r1, #16
 8004122:	5499      	strb	r1, [r3, r2]
    hi2c->ErrorCode = HAL_I2C_ERROR_NONE;
 8004124:	68fb      	ldr	r3, [r7, #12]
 8004126:	2200      	movs	r2, #0
 8004128:	645a      	str	r2, [r3, #68]	; 0x44

    /* Prepare transfer parameters */
    hi2c->pBuffPtr  = pData;
 800412a:	68fb      	ldr	r3, [r7, #12]
 800412c:	687a      	ldr	r2, [r7, #4]
 800412e:	625a      	str	r2, [r3, #36]	; 0x24
    hi2c->XferCount = Size;
 8004130:	68fb      	ldr	r3, [r7, #12]
 8004132:	2208      	movs	r2, #8
 8004134:	18ba      	adds	r2, r7, r2
 8004136:	8812      	ldrh	r2, [r2, #0]
 8004138:	855a      	strh	r2, [r3, #42]	; 0x2a
    hi2c->XferISR   = NULL;
 800413a:	68fb      	ldr	r3, [r7, #12]
 800413c:	2200      	movs	r2, #0
 800413e:	635a      	str	r2, [r3, #52]	; 0x34

    /* Send Slave Address */
    /* Set NBYTES to write and reload if hi2c->XferCount > MAX_NBYTE_SIZE and generate RESTART */
    if (hi2c->XferCount > MAX_NBYTE_SIZE)
 8004140:	68fb      	ldr	r3, [r7, #12]
 8004142:	8d5b      	ldrh	r3, [r3, #42]	; 0x2a
 8004144:	b29b      	uxth	r3, r3
 8004146:	2bff      	cmp	r3, #255	; 0xff
 8004148:	d911      	bls.n	800416e <HAL_I2C_Master_Transmit+0xbe>
    {
      hi2c->XferSize = MAX_NBYTE_SIZE;
 800414a:	68fb      	ldr	r3, [r7, #12]
 800414c:	22ff      	movs	r2, #255	; 0xff
 800414e:	851a      	strh	r2, [r3, #40]	; 0x28
      I2C_TransferConfig(hi2c, DevAddress, (uint8_t)hi2c->XferSize, I2C_RELOAD_MODE,
 8004150:	68fb      	ldr	r3, [r7, #12]
 8004152:	8d1b      	ldrh	r3, [r3, #40]	; 0x28
 8004154:	b2da      	uxtb	r2, r3
 8004156:	2380      	movs	r3, #128	; 0x80
 8004158:	045c      	lsls	r4, r3, #17
 800415a:	230a      	movs	r3, #10
 800415c:	18fb      	adds	r3, r7, r3
 800415e:	8819      	ldrh	r1, [r3, #0]
 8004160:	68f8      	ldr	r0, [r7, #12]
 8004162:	4b55      	ldr	r3, [pc, #340]	; (80042b8 <HAL_I2C_Master_Transmit+0x208>)
 8004164:	9300      	str	r3, [sp, #0]
 8004166:	0023      	movs	r3, r4
 8004168:	f000 fc2e 	bl	80049c8 <I2C_TransferConfig>
 800416c:	e075      	b.n	800425a <HAL_I2C_Master_Transmit+0x1aa>
                         I2C_GENERATE_START_WRITE);
    }
    else
    {
      hi2c->XferSize = hi2c->XferCount;
 800416e:	68fb      	ldr	r3, [r7, #12]
 8004170:	8d5b      	ldrh	r3, [r3, #42]	; 0x2a
 8004172:	b29a      	uxth	r2, r3
 8004174:	68fb      	ldr	r3, [r7, #12]
 8004176:	851a      	strh	r2, [r3, #40]	; 0x28
      I2C_TransferConfig(hi2c, DevAddress, (uint8_t)hi2c->XferSize, I2C_AUTOEND_MODE,
 8004178:	68fb      	ldr	r3, [r7, #12]
 800417a:	8d1b      	ldrh	r3, [r3, #40]	; 0x28
 800417c:	b2da      	uxtb	r2, r3
 800417e:	2380      	movs	r3, #128	; 0x80
 8004180:	049c      	lsls	r4, r3, #18
 8004182:	230a      	movs	r3, #10
 8004184:	18fb      	adds	r3, r7, r3
 8004186:	8819      	ldrh	r1, [r3, #0]
 8004188:	68f8      	ldr	r0, [r7, #12]
 800418a:	4b4b      	ldr	r3, [pc, #300]	; (80042b8 <HAL_I2C_Master_Transmit+0x208>)
 800418c:	9300      	str	r3, [sp, #0]
 800418e:	0023      	movs	r3, r4
 8004190:	f000 fc1a 	bl	80049c8 <I2C_TransferConfig>
                         I2C_GENERATE_START_WRITE);
    }

    while (hi2c->XferCount > 0U)
 8004194:	e061      	b.n	800425a <HAL_I2C_Master_Transmit+0x1aa>
    {
      /* Wait until TXIS flag is set */
      if (I2C_WaitOnTXISFlagUntilTimeout(hi2c, Timeout, tickstart) != HAL_OK)
 8004196:	697a      	ldr	r2, [r7, #20]
 8004198:	6ab9      	ldr	r1, [r7, #40]	; 0x28
 800419a:	68fb      	ldr	r3, [r7, #12]
 800419c:	0018      	movs	r0, r3
 800419e:	f000 fa07 	bl	80045b0 <I2C_WaitOnTXISFlagUntilTimeout>
 80041a2:	1e03      	subs	r3, r0, #0
 80041a4:	d001      	beq.n	80041aa <HAL_I2C_Master_Transmit+0xfa>
      {
        return HAL_ERROR;
 80041a6:	2301      	movs	r3, #1
 80041a8:	e081      	b.n	80042ae <HAL_I2C_Master_Transmit+0x1fe>
      }
      /* Write data to TXDR */
      hi2c->Instance->TXDR = *hi2c->pBuffPtr;
 80041aa:	68fb      	ldr	r3, [r7, #12]
 80041ac:	6a5b      	ldr	r3, [r3, #36]	; 0x24
 80041ae:	781a      	ldrb	r2, [r3, #0]
 80041b0:	68fb      	ldr	r3, [r7, #12]
 80041b2:	681b      	ldr	r3, [r3, #0]
 80041b4:	629a      	str	r2, [r3, #40]	; 0x28

      /* Increment Buffer pointer */
      hi2c->pBuffPtr++;
 80041b6:	68fb      	ldr	r3, [r7, #12]
 80041b8:	6a5b      	ldr	r3, [r3, #36]	; 0x24
 80041ba:	1c5a      	adds	r2, r3, #1
 80041bc:	68fb      	ldr	r3, [r7, #12]
 80041be:	625a      	str	r2, [r3, #36]	; 0x24

      hi2c->XferCount--;
 80041c0:	68fb      	ldr	r3, [r7, #12]
 80041c2:	8d5b      	ldrh	r3, [r3, #42]	; 0x2a
 80041c4:	b29b      	uxth	r3, r3
 80041c6:	3b01      	subs	r3, #1
 80041c8:	b29a      	uxth	r2, r3
 80041ca:	68fb      	ldr	r3, [r7, #12]
 80041cc:	855a      	strh	r2, [r3, #42]	; 0x2a
      hi2c->XferSize--;
 80041ce:	68fb      	ldr	r3, [r7, #12]
 80041d0:	8d1b      	ldrh	r3, [r3, #40]	; 0x28
 80041d2:	3b01      	subs	r3, #1
 80041d4:	b29a      	uxth	r2, r3
 80041d6:	68fb      	ldr	r3, [r7, #12]
 80041d8:	851a      	strh	r2, [r3, #40]	; 0x28

      if ((hi2c->XferCount != 0U) && (hi2c->XferSize == 0U))
 80041da:	68fb      	ldr	r3, [r7, #12]
 80041dc:	8d5b      	ldrh	r3, [r3, #42]	; 0x2a
 80041de:	b29b      	uxth	r3, r3
 80041e0:	2b00      	cmp	r3, #0
 80041e2:	d03a      	beq.n	800425a <HAL_I2C_Master_Transmit+0x1aa>
 80041e4:	68fb      	ldr	r3, [r7, #12]
 80041e6:	8d1b      	ldrh	r3, [r3, #40]	; 0x28
 80041e8:	2b00      	cmp	r3, #0
 80041ea:	d136      	bne.n	800425a <HAL_I2C_Master_Transmit+0x1aa>
      {
        /* Wait until TCR flag is set */
        if (I2C_WaitOnFlagUntilTimeout(hi2c, I2C_FLAG_TCR, RESET, Timeout, tickstart) != HAL_OK)
 80041ec:	6aba      	ldr	r2, [r7, #40]	; 0x28
 80041ee:	68f8      	ldr	r0, [r7, #12]
 80041f0:	697b      	ldr	r3, [r7, #20]
 80041f2:	9300      	str	r3, [sp, #0]
 80041f4:	0013      	movs	r3, r2
 80041f6:	2200      	movs	r2, #0
 80041f8:	2180      	movs	r1, #128	; 0x80
 80041fa:	f000 f98b 	bl	8004514 <I2C_WaitOnFlagUntilTimeout>
 80041fe:	1e03      	subs	r3, r0, #0
 8004200:	d001      	beq.n	8004206 <HAL_I2C_Master_Transmit+0x156>
        {
          return HAL_ERROR;
 8004202:	2301      	movs	r3, #1
 8004204:	e053      	b.n	80042ae <HAL_I2C_Master_Transmit+0x1fe>
        }

        if (hi2c->XferCount > MAX_NBYTE_SIZE)
 8004206:	68fb      	ldr	r3, [r7, #12]
 8004208:	8d5b      	ldrh	r3, [r3, #42]	; 0x2a
 800420a:	b29b      	uxth	r3, r3
 800420c:	2bff      	cmp	r3, #255	; 0xff
 800420e:	d911      	bls.n	8004234 <HAL_I2C_Master_Transmit+0x184>
        {
          hi2c->XferSize = MAX_NBYTE_SIZE;
 8004210:	68fb      	ldr	r3, [r7, #12]
 8004212:	22ff      	movs	r2, #255	; 0xff
 8004214:	851a      	strh	r2, [r3, #40]	; 0x28
          I2C_TransferConfig(hi2c, DevAddress, (uint8_t)hi2c->XferSize, I2C_RELOAD_MODE,
 8004216:	68fb      	ldr	r3, [r7, #12]
 8004218:	8d1b      	ldrh	r3, [r3, #40]	; 0x28
 800421a:	b2da      	uxtb	r2, r3
 800421c:	2380      	movs	r3, #128	; 0x80
 800421e:	045c      	lsls	r4, r3, #17
 8004220:	230a      	movs	r3, #10
 8004222:	18fb      	adds	r3, r7, r3
 8004224:	8819      	ldrh	r1, [r3, #0]
 8004226:	68f8      	ldr	r0, [r7, #12]
 8004228:	2300      	movs	r3, #0
 800422a:	9300      	str	r3, [sp, #0]
 800422c:	0023      	movs	r3, r4
 800422e:	f000 fbcb 	bl	80049c8 <I2C_TransferConfig>
 8004232:	e012      	b.n	800425a <HAL_I2C_Master_Transmit+0x1aa>
                             I2C_NO_STARTSTOP);
        }
        else
        {
          hi2c->XferSize = hi2c->XferCount;
 8004234:	68fb      	ldr	r3, [r7, #12]
 8004236:	8d5b      	ldrh	r3, [r3, #42]	; 0x2a
 8004238:	b29a      	uxth	r2, r3
 800423a:	68fb      	ldr	r3, [r7, #12]
 800423c:	851a      	strh	r2, [r3, #40]	; 0x28
          I2C_TransferConfig(hi2c, DevAddress, (uint8_t)hi2c->XferSize, I2C_AUTOEND_MODE,
 800423e:	68fb      	ldr	r3, [r7, #12]
 8004240:	8d1b      	ldrh	r3, [r3, #40]	; 0x28
 8004242:	b2da      	uxtb	r2, r3
 8004244:	2380      	movs	r3, #128	; 0x80
 8004246:	049c      	lsls	r4, r3, #18
 8004248:	230a      	movs	r3, #10
 800424a:	18fb      	adds	r3, r7, r3
 800424c:	8819      	ldrh	r1, [r3, #0]
 800424e:	68f8      	ldr	r0, [r7, #12]
 8004250:	2300      	movs	r3, #0
 8004252:	9300      	str	r3, [sp, #0]
 8004254:	0023      	movs	r3, r4
 8004256:	f000 fbb7 	bl	80049c8 <I2C_TransferConfig>
    while (hi2c->XferCount > 0U)
 800425a:	68fb      	ldr	r3, [r7, #12]
 800425c:	8d5b      	ldrh	r3, [r3, #42]	; 0x2a
 800425e:	b29b      	uxth	r3, r3
 8004260:	2b00      	cmp	r3, #0
 8004262:	d198      	bne.n	8004196 <HAL_I2C_Master_Transmit+0xe6>
      }
    }

    /* No need to Check TC flag, with AUTOEND mode the stop is automatically generated */
    /* Wait until STOPF flag is set */
    if (I2C_WaitOnSTOPFlagUntilTimeout(hi2c, Timeout, tickstart) != HAL_OK)
 8004264:	697a      	ldr	r2, [r7, #20]
 8004266:	6ab9      	ldr	r1, [r7, #40]	; 0x28
 8004268:	68fb      	ldr	r3, [r7, #12]
 800426a:	0018      	movs	r0, r3
 800426c:	f000 f9e6 	bl	800463c <I2C_WaitOnSTOPFlagUntilTimeout>
 8004270:	1e03      	subs	r3, r0, #0
 8004272:	d001      	beq.n	8004278 <HAL_I2C_Master_Transmit+0x1c8>
    {
      return HAL_ERROR;
 8004274:	2301      	movs	r3, #1
 8004276:	e01a      	b.n	80042ae <HAL_I2C_Master_Transmit+0x1fe>
    }

    /* Clear STOP Flag */
    __HAL_I2C_CLEAR_FLAG(hi2c, I2C_FLAG_STOPF);
 8004278:	68fb      	ldr	r3, [r7, #12]
 800427a:	681b      	ldr	r3, [r3, #0]
 800427c:	2220      	movs	r2, #32
 800427e:	61da      	str	r2, [r3, #28]

    /* Clear Configuration Register 2 */
    I2C_RESET_CR2(hi2c);
 8004280:	68fb      	ldr	r3, [r7, #12]
 8004282:	681b      	ldr	r3, [r3, #0]
 8004284:	685a      	ldr	r2, [r3, #4]
 8004286:	68fb      	ldr	r3, [r7, #12]
 8004288:	681b      	ldr	r3, [r3, #0]
 800428a:	490c      	ldr	r1, [pc, #48]	; (80042bc <HAL_I2C_Master_Transmit+0x20c>)
 800428c:	400a      	ands	r2, r1
 800428e:	605a      	str	r2, [r3, #4]

    hi2c->State = HAL_I2C_STATE_READY;
 8004290:	68fb      	ldr	r3, [r7, #12]
 8004292:	2241      	movs	r2, #65	; 0x41
 8004294:	2120      	movs	r1, #32
 8004296:	5499      	strb	r1, [r3, r2]
    hi2c->Mode  = HAL_I2C_MODE_NONE;
 8004298:	68fb      	ldr	r3, [r7, #12]
 800429a:	2242      	movs	r2, #66	; 0x42
 800429c:	2100      	movs	r1, #0
 800429e:	5499      	strb	r1, [r3, r2]

    /* Process Unlocked */
    __HAL_UNLOCK(hi2c);
 80042a0:	68fb      	ldr	r3, [r7, #12]
 80042a2:	2240      	movs	r2, #64	; 0x40
 80042a4:	2100      	movs	r1, #0
 80042a6:	5499      	strb	r1, [r3, r2]

    return HAL_OK;
 80042a8:	2300      	movs	r3, #0
 80042aa:	e000      	b.n	80042ae <HAL_I2C_Master_Transmit+0x1fe>
  }
  else
  {
    return HAL_BUSY;
 80042ac:	2302      	movs	r3, #2
  }
}
 80042ae:	0018      	movs	r0, r3
 80042b0:	46bd      	mov	sp, r7
 80042b2:	b007      	add	sp, #28
 80042b4:	bd90      	pop	{r4, r7, pc}
 80042b6:	46c0      	nop			; (mov r8, r8)
 80042b8:	80002000 	.word	0x80002000
 80042bc:	fe00e800 	.word	0xfe00e800

080042c0 <HAL_I2C_Master_Receive>:
  * @param  Timeout Timeout duration
  * @retval HAL status
  */
HAL_StatusTypeDef HAL_I2C_Master_Receive(I2C_HandleTypeDef *hi2c, uint16_t DevAddress, uint8_t *pData,
                                         uint16_t Size, uint32_t Timeout)
{
 80042c0:	b590      	push	{r4, r7, lr}
 80042c2:	b089      	sub	sp, #36	; 0x24
 80042c4:	af02      	add	r7, sp, #8
 80042c6:	60f8      	str	r0, [r7, #12]
 80042c8:	0008      	movs	r0, r1
 80042ca:	607a      	str	r2, [r7, #4]
 80042cc:	0019      	movs	r1, r3
 80042ce:	230a      	movs	r3, #10
 80042d0:	18fb      	adds	r3, r7, r3
 80042d2:	1c02      	adds	r2, r0, #0
 80042d4:	801a      	strh	r2, [r3, #0]
 80042d6:	2308      	movs	r3, #8
 80042d8:	18fb      	adds	r3, r7, r3
 80042da:	1c0a      	adds	r2, r1, #0
 80042dc:	801a      	strh	r2, [r3, #0]
  uint32_t tickstart;

  if (hi2c->State == HAL_I2C_STATE_READY)
 80042de:	68fb      	ldr	r3, [r7, #12]
 80042e0:	2241      	movs	r2, #65	; 0x41
 80042e2:	5c9b      	ldrb	r3, [r3, r2]
 80042e4:	b2db      	uxtb	r3, r3
 80042e6:	2b20      	cmp	r3, #32
 80042e8:	d000      	beq.n	80042ec <HAL_I2C_Master_Receive+0x2c>
 80042ea:	e0e8      	b.n	80044be <HAL_I2C_Master_Receive+0x1fe>
  {
    /* Process Locked */
    __HAL_LOCK(hi2c);
 80042ec:	68fb      	ldr	r3, [r7, #12]
 80042ee:	2240      	movs	r2, #64	; 0x40
 80042f0:	5c9b      	ldrb	r3, [r3, r2]
 80042f2:	2b01      	cmp	r3, #1
 80042f4:	d101      	bne.n	80042fa <HAL_I2C_Master_Receive+0x3a>
 80042f6:	2302      	movs	r3, #2
 80042f8:	e0e2      	b.n	80044c0 <HAL_I2C_Master_Receive+0x200>
 80042fa:	68fb      	ldr	r3, [r7, #12]
 80042fc:	2240      	movs	r2, #64	; 0x40
 80042fe:	2101      	movs	r1, #1
 8004300:	5499      	strb	r1, [r3, r2]

    /* Init tickstart for timeout management*/
    tickstart = HAL_GetTick();
 8004302:	f7ff f80b 	bl	800331c <HAL_GetTick>
 8004306:	0003      	movs	r3, r0
 8004308:	617b      	str	r3, [r7, #20]

    if (I2C_WaitOnFlagUntilTimeout(hi2c, I2C_FLAG_BUSY, SET, I2C_TIMEOUT_BUSY, tickstart) != HAL_OK)
 800430a:	2380      	movs	r3, #128	; 0x80
 800430c:	0219      	lsls	r1, r3, #8
 800430e:	68f8      	ldr	r0, [r7, #12]
 8004310:	697b      	ldr	r3, [r7, #20]
 8004312:	9300      	str	r3, [sp, #0]
 8004314:	2319      	movs	r3, #25
 8004316:	2201      	movs	r2, #1
 8004318:	f000 f8fc 	bl	8004514 <I2C_WaitOnFlagUntilTimeout>
 800431c:	1e03      	subs	r3, r0, #0
 800431e:	d001      	beq.n	8004324 <HAL_I2C_Master_Receive+0x64>
    {
      return HAL_ERROR;
 8004320:	2301      	movs	r3, #1
 8004322:	e0cd      	b.n	80044c0 <HAL_I2C_Master_Receive+0x200>
    }

    hi2c->State     = HAL_I2C_STATE_BUSY_RX;
 8004324:	68fb      	ldr	r3, [r7, #12]
 8004326:	2241      	movs	r2, #65	; 0x41
 8004328:	2122      	movs	r1, #34	; 0x22
 800432a:	5499      	strb	r1, [r3, r2]
    hi2c->Mode      = HAL_I2C_MODE_MASTER;
 800432c:	68fb      	ldr	r3, [r7, #12]
 800432e:	2242      	movs	r2, #66	; 0x42
 8004330:	2110      	movs	r1, #16
 8004332:	5499      	strb	r1, [r3, r2]
    hi2c->ErrorCode = HAL_I2C_ERROR_NONE;
 8004334:	68fb      	ldr	r3, [r7, #12]
 8004336:	2200      	movs	r2, #0
 8004338:	645a      	str	r2, [r3, #68]	; 0x44

    /* Prepare transfer parameters */
    hi2c->pBuffPtr  = pData;
 800433a:	68fb      	ldr	r3, [r7, #12]
 800433c:	687a      	ldr	r2, [r7, #4]
 800433e:	625a      	str	r2, [r3, #36]	; 0x24
    hi2c->XferCount = Size;
 8004340:	68fb      	ldr	r3, [r7, #12]
 8004342:	2208      	movs	r2, #8
 8004344:	18ba      	adds	r2, r7, r2
 8004346:	8812      	ldrh	r2, [r2, #0]
 8004348:	855a      	strh	r2, [r3, #42]	; 0x2a
    hi2c->XferISR   = NULL;
 800434a:	68fb      	ldr	r3, [r7, #12]
 800434c:	2200      	movs	r2, #0
 800434e:	635a      	str	r2, [r3, #52]	; 0x34

    /* Send Slave Address */
    /* Set NBYTES to write and reload if hi2c->XferCount > MAX_NBYTE_SIZE and generate RESTART */
    if (hi2c->XferCount > MAX_NBYTE_SIZE)
 8004350:	68fb      	ldr	r3, [r7, #12]
 8004352:	8d5b      	ldrh	r3, [r3, #42]	; 0x2a
 8004354:	b29b      	uxth	r3, r3
 8004356:	2bff      	cmp	r3, #255	; 0xff
 8004358:	d911      	bls.n	800437e <HAL_I2C_Master_Receive+0xbe>
    {
      hi2c->XferSize = MAX_NBYTE_SIZE;
 800435a:	68fb      	ldr	r3, [r7, #12]
 800435c:	22ff      	movs	r2, #255	; 0xff
 800435e:	851a      	strh	r2, [r3, #40]	; 0x28
      I2C_TransferConfig(hi2c, DevAddress, (uint8_t)hi2c->XferSize, I2C_RELOAD_MODE,
 8004360:	68fb      	ldr	r3, [r7, #12]
 8004362:	8d1b      	ldrh	r3, [r3, #40]	; 0x28
 8004364:	b2da      	uxtb	r2, r3
 8004366:	2380      	movs	r3, #128	; 0x80
 8004368:	045c      	lsls	r4, r3, #17
 800436a:	230a      	movs	r3, #10
 800436c:	18fb      	adds	r3, r7, r3
 800436e:	8819      	ldrh	r1, [r3, #0]
 8004370:	68f8      	ldr	r0, [r7, #12]
 8004372:	4b55      	ldr	r3, [pc, #340]	; (80044c8 <HAL_I2C_Master_Receive+0x208>)
 8004374:	9300      	str	r3, [sp, #0]
 8004376:	0023      	movs	r3, r4
 8004378:	f000 fb26 	bl	80049c8 <I2C_TransferConfig>
 800437c:	e076      	b.n	800446c <HAL_I2C_Master_Receive+0x1ac>
                         I2C_GENERATE_START_READ);
    }
    else
    {
      hi2c->XferSize = hi2c->XferCount;
 800437e:	68fb      	ldr	r3, [r7, #12]
 8004380:	8d5b      	ldrh	r3, [r3, #42]	; 0x2a
 8004382:	b29a      	uxth	r2, r3
 8004384:	68fb      	ldr	r3, [r7, #12]
 8004386:	851a      	strh	r2, [r3, #40]	; 0x28
      I2C_TransferConfig(hi2c, DevAddress, (uint8_t)hi2c->XferSize, I2C_AUTOEND_MODE,
 8004388:	68fb      	ldr	r3, [r7, #12]
 800438a:	8d1b      	ldrh	r3, [r3, #40]	; 0x28
 800438c:	b2da      	uxtb	r2, r3
 800438e:	2380      	movs	r3, #128	; 0x80
 8004390:	049c      	lsls	r4, r3, #18
 8004392:	230a      	movs	r3, #10
 8004394:	18fb      	adds	r3, r7, r3
 8004396:	8819      	ldrh	r1, [r3, #0]
 8004398:	68f8      	ldr	r0, [r7, #12]
 800439a:	4b4b      	ldr	r3, [pc, #300]	; (80044c8 <HAL_I2C_Master_Receive+0x208>)
 800439c:	9300      	str	r3, [sp, #0]
 800439e:	0023      	movs	r3, r4
 80043a0:	f000 fb12 	bl	80049c8 <I2C_TransferConfig>
                         I2C_GENERATE_START_READ);
    }

    while (hi2c->XferCount > 0U)
 80043a4:	e062      	b.n	800446c <HAL_I2C_Master_Receive+0x1ac>
    {
      /* Wait until RXNE flag is set */
      if (I2C_WaitOnRXNEFlagUntilTimeout(hi2c, Timeout, tickstart) != HAL_OK)
 80043a6:	697a      	ldr	r2, [r7, #20]
 80043a8:	6ab9      	ldr	r1, [r7, #40]	; 0x28
 80043aa:	68fb      	ldr	r3, [r7, #12]
 80043ac:	0018      	movs	r0, r3
 80043ae:	f000 f989 	bl	80046c4 <I2C_WaitOnRXNEFlagUntilTimeout>
 80043b2:	1e03      	subs	r3, r0, #0
 80043b4:	d001      	beq.n	80043ba <HAL_I2C_Master_Receive+0xfa>
      {
        return HAL_ERROR;
 80043b6:	2301      	movs	r3, #1
 80043b8:	e082      	b.n	80044c0 <HAL_I2C_Master_Receive+0x200>
      }

      /* Read data from RXDR */
      *hi2c->pBuffPtr = (uint8_t)hi2c->Instance->RXDR;
 80043ba:	68fb      	ldr	r3, [r7, #12]
 80043bc:	681b      	ldr	r3, [r3, #0]
 80043be:	6a5a      	ldr	r2, [r3, #36]	; 0x24
 80043c0:	68fb      	ldr	r3, [r7, #12]
 80043c2:	6a5b      	ldr	r3, [r3, #36]	; 0x24
 80043c4:	b2d2      	uxtb	r2, r2
 80043c6:	701a      	strb	r2, [r3, #0]

      /* Increment Buffer pointer */
      hi2c->pBuffPtr++;
 80043c8:	68fb      	ldr	r3, [r7, #12]
 80043ca:	6a5b      	ldr	r3, [r3, #36]	; 0x24
 80043cc:	1c5a      	adds	r2, r3, #1
 80043ce:	68fb      	ldr	r3, [r7, #12]
 80043d0:	625a      	str	r2, [r3, #36]	; 0x24

      hi2c->XferSize--;
 80043d2:	68fb      	ldr	r3, [r7, #12]
 80043d4:	8d1b      	ldrh	r3, [r3, #40]	; 0x28
 80043d6:	3b01      	subs	r3, #1
 80043d8:	b29a      	uxth	r2, r3
 80043da:	68fb      	ldr	r3, [r7, #12]
 80043dc:	851a      	strh	r2, [r3, #40]	; 0x28
      hi2c->XferCount--;
 80043de:	68fb      	ldr	r3, [r7, #12]
 80043e0:	8d5b      	ldrh	r3, [r3, #42]	; 0x2a
 80043e2:	b29b      	uxth	r3, r3
 80043e4:	3b01      	subs	r3, #1
 80043e6:	b29a      	uxth	r2, r3
 80043e8:	68fb      	ldr	r3, [r7, #12]
 80043ea:	855a      	strh	r2, [r3, #42]	; 0x2a

      if ((hi2c->XferCount != 0U) && (hi2c->XferSize == 0U))
 80043ec:	68fb      	ldr	r3, [r7, #12]
 80043ee:	8d5b      	ldrh	r3, [r3, #42]	; 0x2a
 80043f0:	b29b      	uxth	r3, r3
 80043f2:	2b00      	cmp	r3, #0
 80043f4:	d03a      	beq.n	800446c <HAL_I2C_Master_Receive+0x1ac>
 80043f6:	68fb      	ldr	r3, [r7, #12]
 80043f8:	8d1b      	ldrh	r3, [r3, #40]	; 0x28
 80043fa:	2b00      	cmp	r3, #0
 80043fc:	d136      	bne.n	800446c <HAL_I2C_Master_Receive+0x1ac>
      {
        /* Wait until TCR flag is set */
        if (I2C_WaitOnFlagUntilTimeout(hi2c, I2C_FLAG_TCR, RESET, Timeout, tickstart) != HAL_OK)
 80043fe:	6aba      	ldr	r2, [r7, #40]	; 0x28
 8004400:	68f8      	ldr	r0, [r7, #12]
 8004402:	697b      	ldr	r3, [r7, #20]
 8004404:	9300      	str	r3, [sp, #0]
 8004406:	0013      	movs	r3, r2
 8004408:	2200      	movs	r2, #0
 800440a:	2180      	movs	r1, #128	; 0x80
 800440c:	f000 f882 	bl	8004514 <I2C_WaitOnFlagUntilTimeout>
 8004410:	1e03      	subs	r3, r0, #0
 8004412:	d001      	beq.n	8004418 <HAL_I2C_Master_Receive+0x158>
        {
          return HAL_ERROR;
 8004414:	2301      	movs	r3, #1
 8004416:	e053      	b.n	80044c0 <HAL_I2C_Master_Receive+0x200>
        }

        if (hi2c->XferCount > MAX_NBYTE_SIZE)
 8004418:	68fb      	ldr	r3, [r7, #12]
 800441a:	8d5b      	ldrh	r3, [r3, #42]	; 0x2a
 800441c:	b29b      	uxth	r3, r3
 800441e:	2bff      	cmp	r3, #255	; 0xff
 8004420:	d911      	bls.n	8004446 <HAL_I2C_Master_Receive+0x186>
        {
          hi2c->XferSize = MAX_NBYTE_SIZE;
 8004422:	68fb      	ldr	r3, [r7, #12]
 8004424:	22ff      	movs	r2, #255	; 0xff
 8004426:	851a      	strh	r2, [r3, #40]	; 0x28
          I2C_TransferConfig(hi2c, DevAddress, (uint8_t)hi2c->XferSize, I2C_RELOAD_MODE,
 8004428:	68fb      	ldr	r3, [r7, #12]
 800442a:	8d1b      	ldrh	r3, [r3, #40]	; 0x28
 800442c:	b2da      	uxtb	r2, r3
 800442e:	2380      	movs	r3, #128	; 0x80
 8004430:	045c      	lsls	r4, r3, #17
 8004432:	230a      	movs	r3, #10
 8004434:	18fb      	adds	r3, r7, r3
 8004436:	8819      	ldrh	r1, [r3, #0]
 8004438:	68f8      	ldr	r0, [r7, #12]
 800443a:	2300      	movs	r3, #0
 800443c:	9300      	str	r3, [sp, #0]
 800443e:	0023      	movs	r3, r4
 8004440:	f000 fac2 	bl	80049c8 <I2C_TransferConfig>
 8004444:	e012      	b.n	800446c <HAL_I2C_Master_Receive+0x1ac>
                             I2C_NO_STARTSTOP);
        }
        else
        {
          hi2c->XferSize = hi2c->XferCount;
 8004446:	68fb      	ldr	r3, [r7, #12]
 8004448:	8d5b      	ldrh	r3, [r3, #42]	; 0x2a
 800444a:	b29a      	uxth	r2, r3
 800444c:	68fb      	ldr	r3, [r7, #12]
 800444e:	851a      	strh	r2, [r3, #40]	; 0x28
          I2C_TransferConfig(hi2c, DevAddress, (uint8_t)hi2c->XferSize, I2C_AUTOEND_MODE,
 8004450:	68fb      	ldr	r3, [r7, #12]
 8004452:	8d1b      	ldrh	r3, [r3, #40]	; 0x28
 8004454:	b2da      	uxtb	r2, r3
 8004456:	2380      	movs	r3, #128	; 0x80
 8004458:	049c      	lsls	r4, r3, #18
 800445a:	230a      	movs	r3, #10
 800445c:	18fb      	adds	r3, r7, r3
 800445e:	8819      	ldrh	r1, [r3, #0]
 8004460:	68f8      	ldr	r0, [r7, #12]
 8004462:	2300      	movs	r3, #0
 8004464:	9300      	str	r3, [sp, #0]
 8004466:	0023      	movs	r3, r4
 8004468:	f000 faae 	bl	80049c8 <I2C_TransferConfig>
    while (hi2c->XferCount > 0U)
 800446c:	68fb      	ldr	r3, [r7, #12]
 800446e:	8d5b      	ldrh	r3, [r3, #42]	; 0x2a
 8004470:	b29b      	uxth	r3, r3
 8004472:	2b00      	cmp	r3, #0
 8004474:	d197      	bne.n	80043a6 <HAL_I2C_Master_Receive+0xe6>
      }
    }

    /* No need to Check TC flag, with AUTOEND mode the stop is automatically generated */
    /* Wait until STOPF flag is set */
    if (I2C_WaitOnSTOPFlagUntilTimeout(hi2c, Timeout, tickstart) != HAL_OK)
 8004476:	697a      	ldr	r2, [r7, #20]
 8004478:	6ab9      	ldr	r1, [r7, #40]	; 0x28
 800447a:	68fb      	ldr	r3, [r7, #12]
 800447c:	0018      	movs	r0, r3
 800447e:	f000 f8dd 	bl	800463c <I2C_WaitOnSTOPFlagUntilTimeout>
 8004482:	1e03      	subs	r3, r0, #0
 8004484:	d001      	beq.n	800448a <HAL_I2C_Master_Receive+0x1ca>
    {
      return HAL_ERROR;
 8004486:	2301      	movs	r3, #1
 8004488:	e01a      	b.n	80044c0 <HAL_I2C_Master_Receive+0x200>
    }

    /* Clear STOP Flag */
    __HAL_I2C_CLEAR_FLAG(hi2c, I2C_FLAG_STOPF);
 800448a:	68fb      	ldr	r3, [r7, #12]
 800448c:	681b      	ldr	r3, [r3, #0]
 800448e:	2220      	movs	r2, #32
 8004490:	61da      	str	r2, [r3, #28]

    /* Clear Configuration Register 2 */
    I2C_RESET_CR2(hi2c);
 8004492:	68fb      	ldr	r3, [r7, #12]
 8004494:	681b      	ldr	r3, [r3, #0]
 8004496:	685a      	ldr	r2, [r3, #4]
 8004498:	68fb      	ldr	r3, [r7, #12]
 800449a:	681b      	ldr	r3, [r3, #0]
 800449c:	490b      	ldr	r1, [pc, #44]	; (80044cc <HAL_I2C_Master_Receive+0x20c>)
 800449e:	400a      	ands	r2, r1
 80044a0:	605a      	str	r2, [r3, #4]

    hi2c->State = HAL_I2C_STATE_READY;
 80044a2:	68fb      	ldr	r3, [r7, #12]
 80044a4:	2241      	movs	r2, #65	; 0x41
 80044a6:	2120      	movs	r1, #32
 80044a8:	5499      	strb	r1, [r3, r2]
    hi2c->Mode  = HAL_I2C_MODE_NONE;
 80044aa:	68fb      	ldr	r3, [r7, #12]
 80044ac:	2242      	movs	r2, #66	; 0x42
 80044ae:	2100      	movs	r1, #0
 80044b0:	5499      	strb	r1, [r3, r2]

    /* Process Unlocked */
    __HAL_UNLOCK(hi2c);
 80044b2:	68fb      	ldr	r3, [r7, #12]
 80044b4:	2240      	movs	r2, #64	; 0x40
 80044b6:	2100      	movs	r1, #0
 80044b8:	5499      	strb	r1, [r3, r2]

    return HAL_OK;
 80044ba:	2300      	movs	r3, #0
 80044bc:	e000      	b.n	80044c0 <HAL_I2C_Master_Receive+0x200>
  }
  else
  {
    return HAL_BUSY;
 80044be:	2302      	movs	r3, #2
  }
}
 80044c0:	0018      	movs	r0, r3
 80044c2:	46bd      	mov	sp, r7
 80044c4:	b007      	add	sp, #28
 80044c6:	bd90      	pop	{r4, r7, pc}
 80044c8:	80002400 	.word	0x80002400
 80044cc:	fe00e800 	.word	0xfe00e800

080044d0 <I2C_Flush_TXDR>:
  * @brief  I2C Tx data register flush process.
  * @param  hi2c I2C handle.
  * @retval None
  */
static void I2C_Flush_TXDR(I2C_HandleTypeDef *hi2c)
{
 80044d0:	b580      	push	{r7, lr}
 80044d2:	b082      	sub	sp, #8
 80044d4:	af00      	add	r7, sp, #0
 80044d6:	6078      	str	r0, [r7, #4]
  /* If a pending TXIS flag is set */
  /* Write a dummy data in TXDR to clear it */
  if (__HAL_I2C_GET_FLAG(hi2c, I2C_FLAG_TXIS) != RESET)
 80044d8:	687b      	ldr	r3, [r7, #4]
 80044da:	681b      	ldr	r3, [r3, #0]
 80044dc:	699b      	ldr	r3, [r3, #24]
 80044de:	2202      	movs	r2, #2
 80044e0:	4013      	ands	r3, r2
 80044e2:	2b02      	cmp	r3, #2
 80044e4:	d103      	bne.n	80044ee <I2C_Flush_TXDR+0x1e>
  {
    hi2c->Instance->TXDR = 0x00U;
 80044e6:	687b      	ldr	r3, [r7, #4]
 80044e8:	681b      	ldr	r3, [r3, #0]
 80044ea:	2200      	movs	r2, #0
 80044ec:	629a      	str	r2, [r3, #40]	; 0x28
  }

  /* Flush TX register if not empty */
  if (__HAL_I2C_GET_FLAG(hi2c, I2C_FLAG_TXE) == RESET)
 80044ee:	687b      	ldr	r3, [r7, #4]
 80044f0:	681b      	ldr	r3, [r3, #0]
 80044f2:	699b      	ldr	r3, [r3, #24]
 80044f4:	2201      	movs	r2, #1
 80044f6:	4013      	ands	r3, r2
 80044f8:	2b01      	cmp	r3, #1
 80044fa:	d007      	beq.n	800450c <I2C_Flush_TXDR+0x3c>
  {
    __HAL_I2C_CLEAR_FLAG(hi2c, I2C_FLAG_TXE);
 80044fc:	687b      	ldr	r3, [r7, #4]
 80044fe:	681b      	ldr	r3, [r3, #0]
 8004500:	699a      	ldr	r2, [r3, #24]
 8004502:	687b      	ldr	r3, [r7, #4]
 8004504:	681b      	ldr	r3, [r3, #0]
 8004506:	2101      	movs	r1, #1
 8004508:	430a      	orrs	r2, r1
 800450a:	619a      	str	r2, [r3, #24]
  }
}
 800450c:	46c0      	nop			; (mov r8, r8)
 800450e:	46bd      	mov	sp, r7
 8004510:	b002      	add	sp, #8
 8004512:	bd80      	pop	{r7, pc}

08004514 <I2C_WaitOnFlagUntilTimeout>:
  * @param  Tickstart Tick start value
  * @retval HAL status
  */
static HAL_StatusTypeDef I2C_WaitOnFlagUntilTimeout(I2C_HandleTypeDef *hi2c, uint32_t Flag, FlagStatus Status,
                                                    uint32_t Timeout, uint32_t Tickstart)
{
 8004514:	b580      	push	{r7, lr}
 8004516:	b084      	sub	sp, #16
 8004518:	af00      	add	r7, sp, #0
 800451a:	60f8      	str	r0, [r7, #12]
 800451c:	60b9      	str	r1, [r7, #8]
 800451e:	603b      	str	r3, [r7, #0]
 8004520:	1dfb      	adds	r3, r7, #7
 8004522:	701a      	strb	r2, [r3, #0]
  while (__HAL_I2C_GET_FLAG(hi2c, Flag) == Status)
 8004524:	e030      	b.n	8004588 <I2C_WaitOnFlagUntilTimeout+0x74>
  {
    /* Check for the Timeout */
    if (Timeout != HAL_MAX_DELAY)
 8004526:	683b      	ldr	r3, [r7, #0]
 8004528:	3301      	adds	r3, #1
 800452a:	d02d      	beq.n	8004588 <I2C_WaitOnFlagUntilTimeout+0x74>
    {
      if (((HAL_GetTick() - Tickstart) > Timeout) || (Timeout == 0U))
 800452c:	f7fe fef6 	bl	800331c <HAL_GetTick>
 8004530:	0002      	movs	r2, r0
 8004532:	69bb      	ldr	r3, [r7, #24]
 8004534:	1ad3      	subs	r3, r2, r3
 8004536:	683a      	ldr	r2, [r7, #0]
 8004538:	429a      	cmp	r2, r3
 800453a:	d302      	bcc.n	8004542 <I2C_WaitOnFlagUntilTimeout+0x2e>
 800453c:	683b      	ldr	r3, [r7, #0]
 800453e:	2b00      	cmp	r3, #0
 8004540:	d122      	bne.n	8004588 <I2C_WaitOnFlagUntilTimeout+0x74>
      {
        if ((__HAL_I2C_GET_FLAG(hi2c, Flag) == Status))
 8004542:	68fb      	ldr	r3, [r7, #12]
 8004544:	681b      	ldr	r3, [r3, #0]
 8004546:	699b      	ldr	r3, [r3, #24]
 8004548:	68ba      	ldr	r2, [r7, #8]
 800454a:	4013      	ands	r3, r2
 800454c:	68ba      	ldr	r2, [r7, #8]
 800454e:	1ad3      	subs	r3, r2, r3
 8004550:	425a      	negs	r2, r3
 8004552:	4153      	adcs	r3, r2
 8004554:	b2db      	uxtb	r3, r3
 8004556:	001a      	movs	r2, r3
 8004558:	1dfb      	adds	r3, r7, #7
 800455a:	781b      	ldrb	r3, [r3, #0]
 800455c:	429a      	cmp	r2, r3
 800455e:	d113      	bne.n	8004588 <I2C_WaitOnFlagUntilTimeout+0x74>
        {
          hi2c->ErrorCode |= HAL_I2C_ERROR_TIMEOUT;
 8004560:	68fb      	ldr	r3, [r7, #12]
 8004562:	6c5b      	ldr	r3, [r3, #68]	; 0x44
 8004564:	2220      	movs	r2, #32
 8004566:	431a      	orrs	r2, r3
 8004568:	68fb      	ldr	r3, [r7, #12]
 800456a:	645a      	str	r2, [r3, #68]	; 0x44
          hi2c->State = HAL_I2C_STATE_READY;
 800456c:	68fb      	ldr	r3, [r7, #12]
 800456e:	2241      	movs	r2, #65	; 0x41
 8004570:	2120      	movs	r1, #32
 8004572:	5499      	strb	r1, [r3, r2]
          hi2c->Mode = HAL_I2C_MODE_NONE;
 8004574:	68fb      	ldr	r3, [r7, #12]
 8004576:	2242      	movs	r2, #66	; 0x42
 8004578:	2100      	movs	r1, #0
 800457a:	5499      	strb	r1, [r3, r2]

          /* Process Unlocked */
          __HAL_UNLOCK(hi2c);
 800457c:	68fb      	ldr	r3, [r7, #12]
 800457e:	2240      	movs	r2, #64	; 0x40
 8004580:	2100      	movs	r1, #0
 8004582:	5499      	strb	r1, [r3, r2]
          return HAL_ERROR;
 8004584:	2301      	movs	r3, #1
 8004586:	e00f      	b.n	80045a8 <I2C_WaitOnFlagUntilTimeout+0x94>
  while (__HAL_I2C_GET_FLAG(hi2c, Flag) == Status)
 8004588:	68fb      	ldr	r3, [r7, #12]
 800458a:	681b      	ldr	r3, [r3, #0]
 800458c:	699b      	ldr	r3, [r3, #24]
 800458e:	68ba      	ldr	r2, [r7, #8]
 8004590:	4013      	ands	r3, r2
 8004592:	68ba      	ldr	r2, [r7, #8]
 8004594:	1ad3      	subs	r3, r2, r3
 8004596:	425a      	negs	r2, r3
 8004598:	4153      	adcs	r3, r2
 800459a:	b2db      	uxtb	r3, r3
 800459c:	001a      	movs	r2, r3
 800459e:	1dfb      	adds	r3, r7, #7
 80045a0:	781b      	ldrb	r3, [r3, #0]
 80045a2:	429a      	cmp	r2, r3
 80045a4:	d0bf      	beq.n	8004526 <I2C_WaitOnFlagUntilTimeout+0x12>
        }
      }
    }
  }
  return HAL_OK;
 80045a6:	2300      	movs	r3, #0
}
 80045a8:	0018      	movs	r0, r3
 80045aa:	46bd      	mov	sp, r7
 80045ac:	b004      	add	sp, #16
 80045ae:	bd80      	pop	{r7, pc}

080045b0 <I2C_WaitOnTXISFlagUntilTimeout>:
  * @param  Tickstart Tick start value
  * @retval HAL status
  */
static HAL_StatusTypeDef I2C_WaitOnTXISFlagUntilTimeout(I2C_HandleTypeDef *hi2c, uint32_t Timeout,
                                                        uint32_t Tickstart)
{
 80045b0:	b580      	push	{r7, lr}
 80045b2:	b084      	sub	sp, #16
 80045b4:	af00      	add	r7, sp, #0
 80045b6:	60f8      	str	r0, [r7, #12]
 80045b8:	60b9      	str	r1, [r7, #8]
 80045ba:	607a      	str	r2, [r7, #4]
  while (__HAL_I2C_GET_FLAG(hi2c, I2C_FLAG_TXIS) == RESET)
 80045bc:	e032      	b.n	8004624 <I2C_WaitOnTXISFlagUntilTimeout+0x74>
  {
    /* Check if an error is detected */
    if (I2C_IsErrorOccurred(hi2c, Timeout, Tickstart) != HAL_OK)
 80045be:	687a      	ldr	r2, [r7, #4]
 80045c0:	68b9      	ldr	r1, [r7, #8]
 80045c2:	68fb      	ldr	r3, [r7, #12]
 80045c4:	0018      	movs	r0, r3
 80045c6:	f000 f8ff 	bl	80047c8 <I2C_IsErrorOccurred>
 80045ca:	1e03      	subs	r3, r0, #0
 80045cc:	d001      	beq.n	80045d2 <I2C_WaitOnTXISFlagUntilTimeout+0x22>
    {
      return HAL_ERROR;
 80045ce:	2301      	movs	r3, #1
 80045d0:	e030      	b.n	8004634 <I2C_WaitOnTXISFlagUntilTimeout+0x84>
    }

    /* Check for the Timeout */
    if (Timeout != HAL_MAX_DELAY)
 80045d2:	68bb      	ldr	r3, [r7, #8]
 80045d4:	3301      	adds	r3, #1
 80045d6:	d025      	beq.n	8004624 <I2C_WaitOnTXISFlagUntilTimeout+0x74>
    {
      if (((HAL_GetTick() - Tickstart) > Timeout) || (Timeout == 0U))
 80045d8:	f7fe fea0 	bl	800331c <HAL_GetTick>
 80045dc:	0002      	movs	r2, r0
 80045de:	687b      	ldr	r3, [r7, #4]
 80045e0:	1ad3      	subs	r3, r2, r3
 80045e2:	68ba      	ldr	r2, [r7, #8]
 80045e4:	429a      	cmp	r2, r3
 80045e6:	d302      	bcc.n	80045ee <I2C_WaitOnTXISFlagUntilTimeout+0x3e>
 80045e8:	68bb      	ldr	r3, [r7, #8]
 80045ea:	2b00      	cmp	r3, #0
 80045ec:	d11a      	bne.n	8004624 <I2C_WaitOnTXISFlagUntilTimeout+0x74>
      {
        if ((__HAL_I2C_GET_FLAG(hi2c, I2C_FLAG_TXIS) == RESET))
 80045ee:	68fb      	ldr	r3, [r7, #12]
 80045f0:	681b      	ldr	r3, [r3, #0]
 80045f2:	699b      	ldr	r3, [r3, #24]
 80045f4:	2202      	movs	r2, #2
 80045f6:	4013      	ands	r3, r2
 80045f8:	2b02      	cmp	r3, #2
 80045fa:	d013      	beq.n	8004624 <I2C_WaitOnTXISFlagUntilTimeout+0x74>
        {
          hi2c->ErrorCode |= HAL_I2C_ERROR_TIMEOUT;
 80045fc:	68fb      	ldr	r3, [r7, #12]
 80045fe:	6c5b      	ldr	r3, [r3, #68]	; 0x44
 8004600:	2220      	movs	r2, #32
 8004602:	431a      	orrs	r2, r3
 8004604:	68fb      	ldr	r3, [r7, #12]
 8004606:	645a      	str	r2, [r3, #68]	; 0x44
          hi2c->State = HAL_I2C_STATE_READY;
 8004608:	68fb      	ldr	r3, [r7, #12]
 800460a:	2241      	movs	r2, #65	; 0x41
 800460c:	2120      	movs	r1, #32
 800460e:	5499      	strb	r1, [r3, r2]
          hi2c->Mode = HAL_I2C_MODE_NONE;
 8004610:	68fb      	ldr	r3, [r7, #12]
 8004612:	2242      	movs	r2, #66	; 0x42
 8004614:	2100      	movs	r1, #0
 8004616:	5499      	strb	r1, [r3, r2]

          /* Process Unlocked */
          __HAL_UNLOCK(hi2c);
 8004618:	68fb      	ldr	r3, [r7, #12]
 800461a:	2240      	movs	r2, #64	; 0x40
 800461c:	2100      	movs	r1, #0
 800461e:	5499      	strb	r1, [r3, r2]

          return HAL_ERROR;
 8004620:	2301      	movs	r3, #1
 8004622:	e007      	b.n	8004634 <I2C_WaitOnTXISFlagUntilTimeout+0x84>
  while (__HAL_I2C_GET_FLAG(hi2c, I2C_FLAG_TXIS) == RESET)
 8004624:	68fb      	ldr	r3, [r7, #12]
 8004626:	681b      	ldr	r3, [r3, #0]
 8004628:	699b      	ldr	r3, [r3, #24]
 800462a:	2202      	movs	r2, #2
 800462c:	4013      	ands	r3, r2
 800462e:	2b02      	cmp	r3, #2
 8004630:	d1c5      	bne.n	80045be <I2C_WaitOnTXISFlagUntilTimeout+0xe>
        }
      }
    }
  }
  return HAL_OK;
 8004632:	2300      	movs	r3, #0
}
 8004634:	0018      	movs	r0, r3
 8004636:	46bd      	mov	sp, r7
 8004638:	b004      	add	sp, #16
 800463a:	bd80      	pop	{r7, pc}

0800463c <I2C_WaitOnSTOPFlagUntilTimeout>:
  * @param  Tickstart Tick start value
  * @retval HAL status
  */
static HAL_StatusTypeDef I2C_WaitOnSTOPFlagUntilTimeout(I2C_HandleTypeDef *hi2c, uint32_t Timeout,
                                                        uint32_t Tickstart)
{
 800463c:	b580      	push	{r7, lr}
 800463e:	b084      	sub	sp, #16
 8004640:	af00      	add	r7, sp, #0
 8004642:	60f8      	str	r0, [r7, #12]
 8004644:	60b9      	str	r1, [r7, #8]
 8004646:	607a      	str	r2, [r7, #4]
  while (__HAL_I2C_GET_FLAG(hi2c, I2C_FLAG_STOPF) == RESET)
 8004648:	e02f      	b.n	80046aa <I2C_WaitOnSTOPFlagUntilTimeout+0x6e>
  {
    /* Check if an error is detected */
    if (I2C_IsErrorOccurred(hi2c, Timeout, Tickstart) != HAL_OK)
 800464a:	687a      	ldr	r2, [r7, #4]
 800464c:	68b9      	ldr	r1, [r7, #8]
 800464e:	68fb      	ldr	r3, [r7, #12]
 8004650:	0018      	movs	r0, r3
 8004652:	f000 f8b9 	bl	80047c8 <I2C_IsErrorOccurred>
 8004656:	1e03      	subs	r3, r0, #0
 8004658:	d001      	beq.n	800465e <I2C_WaitOnSTOPFlagUntilTimeout+0x22>
    {
      return HAL_ERROR;
 800465a:	2301      	movs	r3, #1
 800465c:	e02d      	b.n	80046ba <I2C_WaitOnSTOPFlagUntilTimeout+0x7e>
    }

    /* Check for the Timeout */
    if (((HAL_GetTick() - Tickstart) > Timeout) || (Timeout == 0U))
 800465e:	f7fe fe5d 	bl	800331c <HAL_GetTick>
 8004662:	0002      	movs	r2, r0
 8004664:	687b      	ldr	r3, [r7, #4]
 8004666:	1ad3      	subs	r3, r2, r3
 8004668:	68ba      	ldr	r2, [r7, #8]
 800466a:	429a      	cmp	r2, r3
 800466c:	d302      	bcc.n	8004674 <I2C_WaitOnSTOPFlagUntilTimeout+0x38>
 800466e:	68bb      	ldr	r3, [r7, #8]
 8004670:	2b00      	cmp	r3, #0
 8004672:	d11a      	bne.n	80046aa <I2C_WaitOnSTOPFlagUntilTimeout+0x6e>
    {
      if ((__HAL_I2C_GET_FLAG(hi2c, I2C_FLAG_STOPF) == RESET))
 8004674:	68fb      	ldr	r3, [r7, #12]
 8004676:	681b      	ldr	r3, [r3, #0]
 8004678:	699b      	ldr	r3, [r3, #24]
 800467a:	2220      	movs	r2, #32
 800467c:	4013      	ands	r3, r2
 800467e:	2b20      	cmp	r3, #32
 8004680:	d013      	beq.n	80046aa <I2C_WaitOnSTOPFlagUntilTimeout+0x6e>
      {
        hi2c->ErrorCode |= HAL_I2C_ERROR_TIMEOUT;
 8004682:	68fb      	ldr	r3, [r7, #12]
 8004684:	6c5b      	ldr	r3, [r3, #68]	; 0x44
 8004686:	2220      	movs	r2, #32
 8004688:	431a      	orrs	r2, r3
 800468a:	68fb      	ldr	r3, [r7, #12]
 800468c:	645a      	str	r2, [r3, #68]	; 0x44
        hi2c->State = HAL_I2C_STATE_READY;
 800468e:	68fb      	ldr	r3, [r7, #12]
 8004690:	2241      	movs	r2, #65	; 0x41
 8004692:	2120      	movs	r1, #32
 8004694:	5499      	strb	r1, [r3, r2]
        hi2c->Mode = HAL_I2C_MODE_NONE;
 8004696:	68fb      	ldr	r3, [r7, #12]
 8004698:	2242      	movs	r2, #66	; 0x42
 800469a:	2100      	movs	r1, #0
 800469c:	5499      	strb	r1, [r3, r2]

        /* Process Unlocked */
        __HAL_UNLOCK(hi2c);
 800469e:	68fb      	ldr	r3, [r7, #12]
 80046a0:	2240      	movs	r2, #64	; 0x40
 80046a2:	2100      	movs	r1, #0
 80046a4:	5499      	strb	r1, [r3, r2]

        return HAL_ERROR;
 80046a6:	2301      	movs	r3, #1
 80046a8:	e007      	b.n	80046ba <I2C_WaitOnSTOPFlagUntilTimeout+0x7e>
  while (__HAL_I2C_GET_FLAG(hi2c, I2C_FLAG_STOPF) == RESET)
 80046aa:	68fb      	ldr	r3, [r7, #12]
 80046ac:	681b      	ldr	r3, [r3, #0]
 80046ae:	699b      	ldr	r3, [r3, #24]
 80046b0:	2220      	movs	r2, #32
 80046b2:	4013      	ands	r3, r2
 80046b4:	2b20      	cmp	r3, #32
 80046b6:	d1c8      	bne.n	800464a <I2C_WaitOnSTOPFlagUntilTimeout+0xe>
      }
    }
  }
  return HAL_OK;
 80046b8:	2300      	movs	r3, #0
}
 80046ba:	0018      	movs	r0, r3
 80046bc:	46bd      	mov	sp, r7
 80046be:	b004      	add	sp, #16
 80046c0:	bd80      	pop	{r7, pc}
	...

080046c4 <I2C_WaitOnRXNEFlagUntilTimeout>:
  * @param  Tickstart Tick start value
  * @retval HAL status
  */
static HAL_StatusTypeDef I2C_WaitOnRXNEFlagUntilTimeout(I2C_HandleTypeDef *hi2c, uint32_t Timeout,
                                                        uint32_t Tickstart)
{
 80046c4:	b580      	push	{r7, lr}
 80046c6:	b084      	sub	sp, #16
 80046c8:	af00      	add	r7, sp, #0
 80046ca:	60f8      	str	r0, [r7, #12]
 80046cc:	60b9      	str	r1, [r7, #8]
 80046ce:	607a      	str	r2, [r7, #4]
  while (__HAL_I2C_GET_FLAG(hi2c, I2C_FLAG_RXNE) == RESET)
 80046d0:	e06b      	b.n	80047aa <I2C_WaitOnRXNEFlagUntilTimeout+0xe6>
  {
    /* Check if an error is detected */
    if (I2C_IsErrorOccurred(hi2c, Timeout, Tickstart) != HAL_OK)
 80046d2:	687a      	ldr	r2, [r7, #4]
 80046d4:	68b9      	ldr	r1, [r7, #8]
 80046d6:	68fb      	ldr	r3, [r7, #12]
 80046d8:	0018      	movs	r0, r3
 80046da:	f000 f875 	bl	80047c8 <I2C_IsErrorOccurred>
 80046de:	1e03      	subs	r3, r0, #0
 80046e0:	d001      	beq.n	80046e6 <I2C_WaitOnRXNEFlagUntilTimeout+0x22>
    {
      return HAL_ERROR;
 80046e2:	2301      	movs	r3, #1
 80046e4:	e069      	b.n	80047ba <I2C_WaitOnRXNEFlagUntilTimeout+0xf6>
    }

    /* Check if a STOPF is detected */
    if (__HAL_I2C_GET_FLAG(hi2c, I2C_FLAG_STOPF) == SET)
 80046e6:	68fb      	ldr	r3, [r7, #12]
 80046e8:	681b      	ldr	r3, [r3, #0]
 80046ea:	699b      	ldr	r3, [r3, #24]
 80046ec:	2220      	movs	r2, #32
 80046ee:	4013      	ands	r3, r2
 80046f0:	2b20      	cmp	r3, #32
 80046f2:	d138      	bne.n	8004766 <I2C_WaitOnRXNEFlagUntilTimeout+0xa2>
    {
      /* Check if an RXNE is pending */
      /* Store Last receive data if any */
      if ((__HAL_I2C_GET_FLAG(hi2c, I2C_FLAG_RXNE) == SET) && (hi2c->XferSize > 0U))
 80046f4:	68fb      	ldr	r3, [r7, #12]
 80046f6:	681b      	ldr	r3, [r3, #0]
 80046f8:	699b      	ldr	r3, [r3, #24]
 80046fa:	2204      	movs	r2, #4
 80046fc:	4013      	ands	r3, r2
 80046fe:	2b04      	cmp	r3, #4
 8004700:	d105      	bne.n	800470e <I2C_WaitOnRXNEFlagUntilTimeout+0x4a>
 8004702:	68fb      	ldr	r3, [r7, #12]
 8004704:	8d1b      	ldrh	r3, [r3, #40]	; 0x28
 8004706:	2b00      	cmp	r3, #0
 8004708:	d001      	beq.n	800470e <I2C_WaitOnRXNEFlagUntilTimeout+0x4a>
      {
        /* Return HAL_OK */
        /* The Reading of data from RXDR will be done in caller function */
        return HAL_OK;
 800470a:	2300      	movs	r3, #0
 800470c:	e055      	b.n	80047ba <I2C_WaitOnRXNEFlagUntilTimeout+0xf6>
      }
      else
      {
        if (__HAL_I2C_GET_FLAG(hi2c, I2C_FLAG_AF) == SET)
 800470e:	68fb      	ldr	r3, [r7, #12]
 8004710:	681b      	ldr	r3, [r3, #0]
 8004712:	699b      	ldr	r3, [r3, #24]
 8004714:	2210      	movs	r2, #16
 8004716:	4013      	ands	r3, r2
 8004718:	2b10      	cmp	r3, #16
 800471a:	d107      	bne.n	800472c <I2C_WaitOnRXNEFlagUntilTimeout+0x68>
        {
          __HAL_I2C_CLEAR_FLAG(hi2c, I2C_FLAG_AF);
 800471c:	68fb      	ldr	r3, [r7, #12]
 800471e:	681b      	ldr	r3, [r3, #0]
 8004720:	2210      	movs	r2, #16
 8004722:	61da      	str	r2, [r3, #28]
          hi2c->ErrorCode = HAL_I2C_ERROR_AF;
 8004724:	68fb      	ldr	r3, [r7, #12]
 8004726:	2204      	movs	r2, #4
 8004728:	645a      	str	r2, [r3, #68]	; 0x44
 800472a:	e002      	b.n	8004732 <I2C_WaitOnRXNEFlagUntilTimeout+0x6e>
        }
        else
        {
          hi2c->ErrorCode = HAL_I2C_ERROR_NONE;
 800472c:	68fb      	ldr	r3, [r7, #12]
 800472e:	2200      	movs	r2, #0
 8004730:	645a      	str	r2, [r3, #68]	; 0x44
        }

        /* Clear STOP Flag */
        __HAL_I2C_CLEAR_FLAG(hi2c, I2C_FLAG_STOPF);
 8004732:	68fb      	ldr	r3, [r7, #12]
 8004734:	681b      	ldr	r3, [r3, #0]
 8004736:	2220      	movs	r2, #32
 8004738:	61da      	str	r2, [r3, #28]

        /* Clear Configuration Register 2 */
        I2C_RESET_CR2(hi2c);
 800473a:	68fb      	ldr	r3, [r7, #12]
 800473c:	681b      	ldr	r3, [r3, #0]
 800473e:	685a      	ldr	r2, [r3, #4]
 8004740:	68fb      	ldr	r3, [r7, #12]
 8004742:	681b      	ldr	r3, [r3, #0]
 8004744:	491f      	ldr	r1, [pc, #124]	; (80047c4 <I2C_WaitOnRXNEFlagUntilTimeout+0x100>)
 8004746:	400a      	ands	r2, r1
 8004748:	605a      	str	r2, [r3, #4]

        hi2c->State = HAL_I2C_STATE_READY;
 800474a:	68fb      	ldr	r3, [r7, #12]
 800474c:	2241      	movs	r2, #65	; 0x41
 800474e:	2120      	movs	r1, #32
 8004750:	5499      	strb	r1, [r3, r2]
        hi2c->Mode = HAL_I2C_MODE_NONE;
 8004752:	68fb      	ldr	r3, [r7, #12]
 8004754:	2242      	movs	r2, #66	; 0x42
 8004756:	2100      	movs	r1, #0
 8004758:	5499      	strb	r1, [r3, r2]

        /* Process Unlocked */
        __HAL_UNLOCK(hi2c);
 800475a:	68fb      	ldr	r3, [r7, #12]
 800475c:	2240      	movs	r2, #64	; 0x40
 800475e:	2100      	movs	r1, #0
 8004760:	5499      	strb	r1, [r3, r2]

        return HAL_ERROR;
 8004762:	2301      	movs	r3, #1
 8004764:	e029      	b.n	80047ba <I2C_WaitOnRXNEFlagUntilTimeout+0xf6>
      }
    }

    /* Check for the Timeout */
    if (((HAL_GetTick() - Tickstart) > Timeout) || (Timeout == 0U))
 8004766:	f7fe fdd9 	bl	800331c <HAL_GetTick>
 800476a:	0002      	movs	r2, r0
 800476c:	687b      	ldr	r3, [r7, #4]
 800476e:	1ad3      	subs	r3, r2, r3
 8004770:	68ba      	ldr	r2, [r7, #8]
 8004772:	429a      	cmp	r2, r3
 8004774:	d302      	bcc.n	800477c <I2C_WaitOnRXNEFlagUntilTimeout+0xb8>
 8004776:	68bb      	ldr	r3, [r7, #8]
 8004778:	2b00      	cmp	r3, #0
 800477a:	d116      	bne.n	80047aa <I2C_WaitOnRXNEFlagUntilTimeout+0xe6>
    {
      if ((__HAL_I2C_GET_FLAG(hi2c, I2C_FLAG_RXNE) == RESET))
 800477c:	68fb      	ldr	r3, [r7, #12]
 800477e:	681b      	ldr	r3, [r3, #0]
 8004780:	699b      	ldr	r3, [r3, #24]
 8004782:	2204      	movs	r2, #4
 8004784:	4013      	ands	r3, r2
 8004786:	2b04      	cmp	r3, #4
 8004788:	d00f      	beq.n	80047aa <I2C_WaitOnRXNEFlagUntilTimeout+0xe6>
      {
        hi2c->ErrorCode |= HAL_I2C_ERROR_TIMEOUT;
 800478a:	68fb      	ldr	r3, [r7, #12]
 800478c:	6c5b      	ldr	r3, [r3, #68]	; 0x44
 800478e:	2220      	movs	r2, #32
 8004790:	431a      	orrs	r2, r3
 8004792:	68fb      	ldr	r3, [r7, #12]
 8004794:	645a      	str	r2, [r3, #68]	; 0x44
        hi2c->State = HAL_I2C_STATE_READY;
 8004796:	68fb      	ldr	r3, [r7, #12]
 8004798:	2241      	movs	r2, #65	; 0x41
 800479a:	2120      	movs	r1, #32
 800479c:	5499      	strb	r1, [r3, r2]

        /* Process Unlocked */
        __HAL_UNLOCK(hi2c);
 800479e:	68fb      	ldr	r3, [r7, #12]
 80047a0:	2240      	movs	r2, #64	; 0x40
 80047a2:	2100      	movs	r1, #0
 80047a4:	5499      	strb	r1, [r3, r2]

        return HAL_ERROR;
 80047a6:	2301      	movs	r3, #1
 80047a8:	e007      	b.n	80047ba <I2C_WaitOnRXNEFlagUntilTimeout+0xf6>
  while (__HAL_I2C_GET_FLAG(hi2c, I2C_FLAG_RXNE) == RESET)
 80047aa:	68fb      	ldr	r3, [r7, #12]
 80047ac:	681b      	ldr	r3, [r3, #0]
 80047ae:	699b      	ldr	r3, [r3, #24]
 80047b0:	2204      	movs	r2, #4
 80047b2:	4013      	ands	r3, r2
 80047b4:	2b04      	cmp	r3, #4
 80047b6:	d18c      	bne.n	80046d2 <I2C_WaitOnRXNEFlagUntilTimeout+0xe>
      }
    }
  }
  return HAL_OK;
 80047b8:	2300      	movs	r3, #0
}
 80047ba:	0018      	movs	r0, r3
 80047bc:	46bd      	mov	sp, r7
 80047be:	b004      	add	sp, #16
 80047c0:	bd80      	pop	{r7, pc}
 80047c2:	46c0      	nop			; (mov r8, r8)
 80047c4:	fe00e800 	.word	0xfe00e800

080047c8 <I2C_IsErrorOccurred>:
  * @param  Timeout Timeout duration
  * @param  Tickstart Tick start value
  * @retval HAL status
  */
static HAL_StatusTypeDef I2C_IsErrorOccurred(I2C_HandleTypeDef *hi2c, uint32_t Timeout, uint32_t Tickstart)
{
 80047c8:	b590      	push	{r4, r7, lr}
 80047ca:	b08b      	sub	sp, #44	; 0x2c
 80047cc:	af00      	add	r7, sp, #0
 80047ce:	60f8      	str	r0, [r7, #12]
 80047d0:	60b9      	str	r1, [r7, #8]
 80047d2:	607a      	str	r2, [r7, #4]
  HAL_StatusTypeDef status = HAL_OK;
 80047d4:	2327      	movs	r3, #39	; 0x27
 80047d6:	18fb      	adds	r3, r7, r3
 80047d8:	2200      	movs	r2, #0
 80047da:	701a      	strb	r2, [r3, #0]
  uint32_t itflag   = hi2c->Instance->ISR;
 80047dc:	68fb      	ldr	r3, [r7, #12]
 80047de:	681b      	ldr	r3, [r3, #0]
 80047e0:	699b      	ldr	r3, [r3, #24]
 80047e2:	61bb      	str	r3, [r7, #24]
  uint32_t error_code = 0;
 80047e4:	2300      	movs	r3, #0
 80047e6:	623b      	str	r3, [r7, #32]
  uint32_t tickstart = Tickstart;
 80047e8:	687b      	ldr	r3, [r7, #4]
 80047ea:	61fb      	str	r3, [r7, #28]
  uint32_t tmp1;
  HAL_I2C_ModeTypeDef tmp2;

  if (HAL_IS_BIT_SET(itflag, I2C_FLAG_AF))
 80047ec:	69bb      	ldr	r3, [r7, #24]
 80047ee:	2210      	movs	r2, #16
 80047f0:	4013      	ands	r3, r2
 80047f2:	d100      	bne.n	80047f6 <I2C_IsErrorOccurred+0x2e>
 80047f4:	e082      	b.n	80048fc <I2C_IsErrorOccurred+0x134>
  {
    /* Clear NACKF Flag */
    __HAL_I2C_CLEAR_FLAG(hi2c, I2C_FLAG_AF);
 80047f6:	68fb      	ldr	r3, [r7, #12]
 80047f8:	681b      	ldr	r3, [r3, #0]
 80047fa:	2210      	movs	r2, #16
 80047fc:	61da      	str	r2, [r3, #28]

    /* Wait until STOP Flag is set or timeout occurred */
    /* AutoEnd should be initiate after AF */
    while ((__HAL_I2C_GET_FLAG(hi2c, I2C_FLAG_STOPF) == RESET) && (status == HAL_OK))
 80047fe:	e060      	b.n	80048c2 <I2C_IsErrorOccurred+0xfa>
 8004800:	2427      	movs	r4, #39	; 0x27
 8004802:	193b      	adds	r3, r7, r4
 8004804:	193a      	adds	r2, r7, r4
 8004806:	7812      	ldrb	r2, [r2, #0]
 8004808:	701a      	strb	r2, [r3, #0]
    {
      /* Check for the Timeout */
      if (Timeout != HAL_MAX_DELAY)
 800480a:	68bb      	ldr	r3, [r7, #8]
 800480c:	3301      	adds	r3, #1
 800480e:	d058      	beq.n	80048c2 <I2C_IsErrorOccurred+0xfa>
      {
        if (((HAL_GetTick() - tickstart) > Timeout) || (Timeout == 0U))
 8004810:	f7fe fd84 	bl	800331c <HAL_GetTick>
 8004814:	0002      	movs	r2, r0
 8004816:	69fb      	ldr	r3, [r7, #28]
 8004818:	1ad3      	subs	r3, r2, r3
 800481a:	68ba      	ldr	r2, [r7, #8]
 800481c:	429a      	cmp	r2, r3
 800481e:	d306      	bcc.n	800482e <I2C_IsErrorOccurred+0x66>
 8004820:	193b      	adds	r3, r7, r4
 8004822:	193a      	adds	r2, r7, r4
 8004824:	7812      	ldrb	r2, [r2, #0]
 8004826:	701a      	strb	r2, [r3, #0]
 8004828:	68bb      	ldr	r3, [r7, #8]
 800482a:	2b00      	cmp	r3, #0
 800482c:	d149      	bne.n	80048c2 <I2C_IsErrorOccurred+0xfa>
        {
          tmp1 = (uint32_t)(hi2c->Instance->CR2 & I2C_CR2_STOP);
 800482e:	68fb      	ldr	r3, [r7, #12]
 8004830:	681b      	ldr	r3, [r3, #0]
 8004832:	685a      	ldr	r2, [r3, #4]
 8004834:	2380      	movs	r3, #128	; 0x80
 8004836:	01db      	lsls	r3, r3, #7
 8004838:	4013      	ands	r3, r2
 800483a:	617b      	str	r3, [r7, #20]
          tmp2 = hi2c->Mode;
 800483c:	2013      	movs	r0, #19
 800483e:	183b      	adds	r3, r7, r0
 8004840:	68fa      	ldr	r2, [r7, #12]
 8004842:	2142      	movs	r1, #66	; 0x42
 8004844:	5c52      	ldrb	r2, [r2, r1]
 8004846:	701a      	strb	r2, [r3, #0]

          /* In case of I2C still busy, try to regenerate a STOP manually */
          if ((__HAL_I2C_GET_FLAG(hi2c, I2C_FLAG_BUSY) != RESET) && \
 8004848:	68fb      	ldr	r3, [r7, #12]
 800484a:	681b      	ldr	r3, [r3, #0]
 800484c:	699a      	ldr	r2, [r3, #24]
 800484e:	2380      	movs	r3, #128	; 0x80
 8004850:	021b      	lsls	r3, r3, #8
 8004852:	401a      	ands	r2, r3
 8004854:	2380      	movs	r3, #128	; 0x80
 8004856:	021b      	lsls	r3, r3, #8
 8004858:	429a      	cmp	r2, r3
 800485a:	d126      	bne.n	80048aa <I2C_IsErrorOccurred+0xe2>
 800485c:	697a      	ldr	r2, [r7, #20]
 800485e:	2380      	movs	r3, #128	; 0x80
 8004860:	01db      	lsls	r3, r3, #7
 8004862:	429a      	cmp	r2, r3
 8004864:	d021      	beq.n	80048aa <I2C_IsErrorOccurred+0xe2>
              (tmp1 != I2C_CR2_STOP) && \
 8004866:	183b      	adds	r3, r7, r0
 8004868:	781b      	ldrb	r3, [r3, #0]
 800486a:	2b20      	cmp	r3, #32
 800486c:	d01d      	beq.n	80048aa <I2C_IsErrorOccurred+0xe2>
              (tmp2 != HAL_I2C_MODE_SLAVE))
          {
            /* Generate Stop */
            hi2c->Instance->CR2 |= I2C_CR2_STOP;
 800486e:	68fb      	ldr	r3, [r7, #12]
 8004870:	681b      	ldr	r3, [r3, #0]
 8004872:	685a      	ldr	r2, [r3, #4]
 8004874:	68fb      	ldr	r3, [r7, #12]
 8004876:	681b      	ldr	r3, [r3, #0]
 8004878:	2180      	movs	r1, #128	; 0x80
 800487a:	01c9      	lsls	r1, r1, #7
 800487c:	430a      	orrs	r2, r1
 800487e:	605a      	str	r2, [r3, #4]

            /* Update Tick with new reference */
            tickstart = HAL_GetTick();
 8004880:	f7fe fd4c 	bl	800331c <HAL_GetTick>
 8004884:	0003      	movs	r3, r0
 8004886:	61fb      	str	r3, [r7, #28]
          }

          while (__HAL_I2C_GET_FLAG(hi2c, I2C_FLAG_STOPF) == RESET)
 8004888:	e00f      	b.n	80048aa <I2C_IsErrorOccurred+0xe2>
          {
            /* Check for the Timeout */
            if ((HAL_GetTick() - tickstart) > I2C_TIMEOUT_STOPF)
 800488a:	f7fe fd47 	bl	800331c <HAL_GetTick>
 800488e:	0002      	movs	r2, r0
 8004890:	69fb      	ldr	r3, [r7, #28]
 8004892:	1ad3      	subs	r3, r2, r3
 8004894:	2b19      	cmp	r3, #25
 8004896:	d908      	bls.n	80048aa <I2C_IsErrorOccurred+0xe2>
            {
              error_code |= HAL_I2C_ERROR_TIMEOUT;
 8004898:	6a3b      	ldr	r3, [r7, #32]
 800489a:	2220      	movs	r2, #32
 800489c:	4313      	orrs	r3, r2
 800489e:	623b      	str	r3, [r7, #32]

              status = HAL_ERROR;
 80048a0:	2327      	movs	r3, #39	; 0x27
 80048a2:	18fb      	adds	r3, r7, r3
 80048a4:	2201      	movs	r2, #1
 80048a6:	701a      	strb	r2, [r3, #0]

              break;
 80048a8:	e00b      	b.n	80048c2 <I2C_IsErrorOccurred+0xfa>
          while (__HAL_I2C_GET_FLAG(hi2c, I2C_FLAG_STOPF) == RESET)
 80048aa:	68fb      	ldr	r3, [r7, #12]
 80048ac:	681b      	ldr	r3, [r3, #0]
 80048ae:	699b      	ldr	r3, [r3, #24]
 80048b0:	2220      	movs	r2, #32
 80048b2:	4013      	ands	r3, r2
 80048b4:	2127      	movs	r1, #39	; 0x27
 80048b6:	187a      	adds	r2, r7, r1
 80048b8:	1879      	adds	r1, r7, r1
 80048ba:	7809      	ldrb	r1, [r1, #0]
 80048bc:	7011      	strb	r1, [r2, #0]
 80048be:	2b20      	cmp	r3, #32
 80048c0:	d1e3      	bne.n	800488a <I2C_IsErrorOccurred+0xc2>
    while ((__HAL_I2C_GET_FLAG(hi2c, I2C_FLAG_STOPF) == RESET) && (status == HAL_OK))
 80048c2:	68fb      	ldr	r3, [r7, #12]
 80048c4:	681b      	ldr	r3, [r3, #0]
 80048c6:	699b      	ldr	r3, [r3, #24]
 80048c8:	2220      	movs	r2, #32
 80048ca:	4013      	ands	r3, r2
 80048cc:	2b20      	cmp	r3, #32
 80048ce:	d004      	beq.n	80048da <I2C_IsErrorOccurred+0x112>
 80048d0:	2327      	movs	r3, #39	; 0x27
 80048d2:	18fb      	adds	r3, r7, r3
 80048d4:	781b      	ldrb	r3, [r3, #0]
 80048d6:	2b00      	cmp	r3, #0
 80048d8:	d092      	beq.n	8004800 <I2C_IsErrorOccurred+0x38>
        }
      }
    }

    /* In case STOP Flag is detected, clear it */
    if (status == HAL_OK)
 80048da:	2327      	movs	r3, #39	; 0x27
 80048dc:	18fb      	adds	r3, r7, r3
 80048de:	781b      	ldrb	r3, [r3, #0]
 80048e0:	2b00      	cmp	r3, #0
 80048e2:	d103      	bne.n	80048ec <I2C_IsErrorOccurred+0x124>
    {
      /* Clear STOP Flag */
      __HAL_I2C_CLEAR_FLAG(hi2c, I2C_FLAG_STOPF);
 80048e4:	68fb      	ldr	r3, [r7, #12]
 80048e6:	681b      	ldr	r3, [r3, #0]
 80048e8:	2220      	movs	r2, #32
 80048ea:	61da      	str	r2, [r3, #28]
    }

    error_code |= HAL_I2C_ERROR_AF;
 80048ec:	6a3b      	ldr	r3, [r7, #32]
 80048ee:	2204      	movs	r2, #4
 80048f0:	4313      	orrs	r3, r2
 80048f2:	623b      	str	r3, [r7, #32]

    status = HAL_ERROR;
 80048f4:	2327      	movs	r3, #39	; 0x27
 80048f6:	18fb      	adds	r3, r7, r3
 80048f8:	2201      	movs	r2, #1
 80048fa:	701a      	strb	r2, [r3, #0]
  }

  /* Refresh Content of Status register */
  itflag = hi2c->Instance->ISR;
 80048fc:	68fb      	ldr	r3, [r7, #12]
 80048fe:	681b      	ldr	r3, [r3, #0]
 8004900:	699b      	ldr	r3, [r3, #24]
 8004902:	61bb      	str	r3, [r7, #24]

  /* Then verify if an additional errors occurs */
  /* Check if a Bus error occurred */
  if (HAL_IS_BIT_SET(itflag, I2C_FLAG_BERR))
 8004904:	69ba      	ldr	r2, [r7, #24]
 8004906:	2380      	movs	r3, #128	; 0x80
 8004908:	005b      	lsls	r3, r3, #1
 800490a:	4013      	ands	r3, r2
 800490c:	d00c      	beq.n	8004928 <I2C_IsErrorOccurred+0x160>
  {
    error_code |= HAL_I2C_ERROR_BERR;
 800490e:	6a3b      	ldr	r3, [r7, #32]
 8004910:	2201      	movs	r2, #1
 8004912:	4313      	orrs	r3, r2
 8004914:	623b      	str	r3, [r7, #32]

    /* Clear BERR flag */
    __HAL_I2C_CLEAR_FLAG(hi2c, I2C_FLAG_BERR);
 8004916:	68fb      	ldr	r3, [r7, #12]
 8004918:	681b      	ldr	r3, [r3, #0]
 800491a:	2280      	movs	r2, #128	; 0x80
 800491c:	0052      	lsls	r2, r2, #1
 800491e:	61da      	str	r2, [r3, #28]

    status = HAL_ERROR;
 8004920:	2327      	movs	r3, #39	; 0x27
 8004922:	18fb      	adds	r3, r7, r3
 8004924:	2201      	movs	r2, #1
 8004926:	701a      	strb	r2, [r3, #0]
  }

  /* Check if an Over-Run/Under-Run error occurred */
  if (HAL_IS_BIT_SET(itflag, I2C_FLAG_OVR))
 8004928:	69ba      	ldr	r2, [r7, #24]
 800492a:	2380      	movs	r3, #128	; 0x80
 800492c:	00db      	lsls	r3, r3, #3
 800492e:	4013      	ands	r3, r2
 8004930:	d00c      	beq.n	800494c <I2C_IsErrorOccurred+0x184>
  {
    error_code |= HAL_I2C_ERROR_OVR;
 8004932:	6a3b      	ldr	r3, [r7, #32]
 8004934:	2208      	movs	r2, #8
 8004936:	4313      	orrs	r3, r2
 8004938:	623b      	str	r3, [r7, #32]

    /* Clear OVR flag */
    __HAL_I2C_CLEAR_FLAG(hi2c, I2C_FLAG_OVR);
 800493a:	68fb      	ldr	r3, [r7, #12]
 800493c:	681b      	ldr	r3, [r3, #0]
 800493e:	2280      	movs	r2, #128	; 0x80
 8004940:	00d2      	lsls	r2, r2, #3
 8004942:	61da      	str	r2, [r3, #28]

    status = HAL_ERROR;
 8004944:	2327      	movs	r3, #39	; 0x27
 8004946:	18fb      	adds	r3, r7, r3
 8004948:	2201      	movs	r2, #1
 800494a:	701a      	strb	r2, [r3, #0]
  }

  /* Check if an Arbitration Loss error occurred */
  if (HAL_IS_BIT_SET(itflag, I2C_FLAG_ARLO))
 800494c:	69ba      	ldr	r2, [r7, #24]
 800494e:	2380      	movs	r3, #128	; 0x80
 8004950:	009b      	lsls	r3, r3, #2
 8004952:	4013      	ands	r3, r2
 8004954:	d00c      	beq.n	8004970 <I2C_IsErrorOccurred+0x1a8>
  {
    error_code |= HAL_I2C_ERROR_ARLO;
 8004956:	6a3b      	ldr	r3, [r7, #32]
 8004958:	2202      	movs	r2, #2
 800495a:	4313      	orrs	r3, r2
 800495c:	623b      	str	r3, [r7, #32]

    /* Clear ARLO flag */
    __HAL_I2C_CLEAR_FLAG(hi2c, I2C_FLAG_ARLO);
 800495e:	68fb      	ldr	r3, [r7, #12]
 8004960:	681b      	ldr	r3, [r3, #0]
 8004962:	2280      	movs	r2, #128	; 0x80
 8004964:	0092      	lsls	r2, r2, #2
 8004966:	61da      	str	r2, [r3, #28]

    status = HAL_ERROR;
 8004968:	2327      	movs	r3, #39	; 0x27
 800496a:	18fb      	adds	r3, r7, r3
 800496c:	2201      	movs	r2, #1
 800496e:	701a      	strb	r2, [r3, #0]
  }

  if (status != HAL_OK)
 8004970:	2327      	movs	r3, #39	; 0x27
 8004972:	18fb      	adds	r3, r7, r3
 8004974:	781b      	ldrb	r3, [r3, #0]
 8004976:	2b00      	cmp	r3, #0
 8004978:	d01d      	beq.n	80049b6 <I2C_IsErrorOccurred+0x1ee>
  {
    /* Flush TX register */
    I2C_Flush_TXDR(hi2c);
 800497a:	68fb      	ldr	r3, [r7, #12]
 800497c:	0018      	movs	r0, r3
 800497e:	f7ff fda7 	bl	80044d0 <I2C_Flush_TXDR>

    /* Clear Configuration Register 2 */
    I2C_RESET_CR2(hi2c);
 8004982:	68fb      	ldr	r3, [r7, #12]
 8004984:	681b      	ldr	r3, [r3, #0]
 8004986:	685a      	ldr	r2, [r3, #4]
 8004988:	68fb      	ldr	r3, [r7, #12]
 800498a:	681b      	ldr	r3, [r3, #0]
 800498c:	490d      	ldr	r1, [pc, #52]	; (80049c4 <I2C_IsErrorOccurred+0x1fc>)
 800498e:	400a      	ands	r2, r1
 8004990:	605a      	str	r2, [r3, #4]

    hi2c->ErrorCode |= error_code;
 8004992:	68fb      	ldr	r3, [r7, #12]
 8004994:	6c5a      	ldr	r2, [r3, #68]	; 0x44
 8004996:	6a3b      	ldr	r3, [r7, #32]
 8004998:	431a      	orrs	r2, r3
 800499a:	68fb      	ldr	r3, [r7, #12]
 800499c:	645a      	str	r2, [r3, #68]	; 0x44
    hi2c->State = HAL_I2C_STATE_READY;
 800499e:	68fb      	ldr	r3, [r7, #12]
 80049a0:	2241      	movs	r2, #65	; 0x41
 80049a2:	2120      	movs	r1, #32
 80049a4:	5499      	strb	r1, [r3, r2]
    hi2c->Mode = HAL_I2C_MODE_NONE;
 80049a6:	68fb      	ldr	r3, [r7, #12]
 80049a8:	2242      	movs	r2, #66	; 0x42
 80049aa:	2100      	movs	r1, #0
 80049ac:	5499      	strb	r1, [r3, r2]

    /* Process Unlocked */
    __HAL_UNLOCK(hi2c);
 80049ae:	68fb      	ldr	r3, [r7, #12]
 80049b0:	2240      	movs	r2, #64	; 0x40
 80049b2:	2100      	movs	r1, #0
 80049b4:	5499      	strb	r1, [r3, r2]
  }

  return status;
 80049b6:	2327      	movs	r3, #39	; 0x27
 80049b8:	18fb      	adds	r3, r7, r3
 80049ba:	781b      	ldrb	r3, [r3, #0]
}
 80049bc:	0018      	movs	r0, r3
 80049be:	46bd      	mov	sp, r7
 80049c0:	b00b      	add	sp, #44	; 0x2c
 80049c2:	bd90      	pop	{r4, r7, pc}
 80049c4:	fe00e800 	.word	0xfe00e800

080049c8 <I2C_TransferConfig>:
  *     @arg @ref I2C_GENERATE_START_WRITE Generate Restart for write request.
  * @retval None
  */
static void I2C_TransferConfig(I2C_HandleTypeDef *hi2c, uint16_t DevAddress, uint8_t Size, uint32_t Mode,
                               uint32_t Request)
{
 80049c8:	b590      	push	{r4, r7, lr}
 80049ca:	b087      	sub	sp, #28
 80049cc:	af00      	add	r7, sp, #0
 80049ce:	60f8      	str	r0, [r7, #12]
 80049d0:	0008      	movs	r0, r1
 80049d2:	0011      	movs	r1, r2
 80049d4:	607b      	str	r3, [r7, #4]
 80049d6:	240a      	movs	r4, #10
 80049d8:	193b      	adds	r3, r7, r4
 80049da:	1c02      	adds	r2, r0, #0
 80049dc:	801a      	strh	r2, [r3, #0]
 80049de:	2009      	movs	r0, #9
 80049e0:	183b      	adds	r3, r7, r0
 80049e2:	1c0a      	adds	r2, r1, #0
 80049e4:	701a      	strb	r2, [r3, #0]
  assert_param(IS_I2C_ALL_INSTANCE(hi2c->Instance));
  assert_param(IS_TRANSFER_MODE(Mode));
  assert_param(IS_TRANSFER_REQUEST(Request));

  /* Declaration of tmp to prevent undefined behavior of volatile usage */
  uint32_t tmp = ((uint32_t)(((uint32_t)DevAddress & I2C_CR2_SADD) | \
 80049e6:	193b      	adds	r3, r7, r4
 80049e8:	881b      	ldrh	r3, [r3, #0]
 80049ea:	059b      	lsls	r3, r3, #22
 80049ec:	0d9a      	lsrs	r2, r3, #22
                             (((uint32_t)Size << I2C_CR2_NBYTES_Pos) & I2C_CR2_NBYTES) | \
 80049ee:	183b      	adds	r3, r7, r0
 80049f0:	781b      	ldrb	r3, [r3, #0]
 80049f2:	0419      	lsls	r1, r3, #16
 80049f4:	23ff      	movs	r3, #255	; 0xff
 80049f6:	041b      	lsls	r3, r3, #16
 80049f8:	400b      	ands	r3, r1
  uint32_t tmp = ((uint32_t)(((uint32_t)DevAddress & I2C_CR2_SADD) | \
 80049fa:	431a      	orrs	r2, r3
                             (((uint32_t)Size << I2C_CR2_NBYTES_Pos) & I2C_CR2_NBYTES) | \
 80049fc:	687b      	ldr	r3, [r7, #4]
 80049fe:	431a      	orrs	r2, r3
  uint32_t tmp = ((uint32_t)(((uint32_t)DevAddress & I2C_CR2_SADD) | \
 8004a00:	6abb      	ldr	r3, [r7, #40]	; 0x28
 8004a02:	4313      	orrs	r3, r2
 8004a04:	005b      	lsls	r3, r3, #1
 8004a06:	085b      	lsrs	r3, r3, #1
 8004a08:	617b      	str	r3, [r7, #20]
                             (uint32_t)Mode | (uint32_t)Request) & (~0x80000000U));

  /* update CR2 register */
  MODIFY_REG(hi2c->Instance->CR2, \
 8004a0a:	68fb      	ldr	r3, [r7, #12]
 8004a0c:	681b      	ldr	r3, [r3, #0]
 8004a0e:	685b      	ldr	r3, [r3, #4]
 8004a10:	6aba      	ldr	r2, [r7, #40]	; 0x28
 8004a12:	0d51      	lsrs	r1, r2, #21
 8004a14:	2280      	movs	r2, #128	; 0x80
 8004a16:	00d2      	lsls	r2, r2, #3
 8004a18:	400a      	ands	r2, r1
 8004a1a:	4907      	ldr	r1, [pc, #28]	; (8004a38 <I2C_TransferConfig+0x70>)
 8004a1c:	430a      	orrs	r2, r1
 8004a1e:	43d2      	mvns	r2, r2
 8004a20:	401a      	ands	r2, r3
 8004a22:	0011      	movs	r1, r2
 8004a24:	68fb      	ldr	r3, [r7, #12]
 8004a26:	681b      	ldr	r3, [r3, #0]
 8004a28:	697a      	ldr	r2, [r7, #20]
 8004a2a:	430a      	orrs	r2, r1
 8004a2c:	605a      	str	r2, [r3, #4]
             ((I2C_CR2_SADD | I2C_CR2_NBYTES | I2C_CR2_RELOAD | I2C_CR2_AUTOEND | \
               (I2C_CR2_RD_WRN & (uint32_t)(Request >> (31U - I2C_CR2_RD_WRN_Pos))) | \
               I2C_CR2_START | I2C_CR2_STOP)), tmp);
}
 8004a2e:	46c0      	nop			; (mov r8, r8)
 8004a30:	46bd      	mov	sp, r7
 8004a32:	b007      	add	sp, #28
 8004a34:	bd90      	pop	{r4, r7, pc}
 8004a36:	46c0      	nop			; (mov r8, r8)
 8004a38:	03ff63ff 	.word	0x03ff63ff

08004a3c <HAL_I2CEx_ConfigAnalogFilter>:
  *                the configuration information for the specified I2Cx peripheral.
  * @param  AnalogFilter New state of the Analog filter.
  * @retval HAL status
  */
HAL_StatusTypeDef HAL_I2CEx_ConfigAnalogFilter(I2C_HandleTypeDef *hi2c, uint32_t AnalogFilter)
{
 8004a3c:	b580      	push	{r7, lr}
 8004a3e:	b082      	sub	sp, #8
 8004a40:	af00      	add	r7, sp, #0
 8004a42:	6078      	str	r0, [r7, #4]
 8004a44:	6039      	str	r1, [r7, #0]
  /* Check the parameters */
  assert_param(IS_I2C_ALL_INSTANCE(hi2c->Instance));
  assert_param(IS_I2C_ANALOG_FILTER(AnalogFilter));

  if (hi2c->State == HAL_I2C_STATE_READY)
 8004a46:	687b      	ldr	r3, [r7, #4]
 8004a48:	2241      	movs	r2, #65	; 0x41
 8004a4a:	5c9b      	ldrb	r3, [r3, r2]
 8004a4c:	b2db      	uxtb	r3, r3
 8004a4e:	2b20      	cmp	r3, #32
 8004a50:	d138      	bne.n	8004ac4 <HAL_I2CEx_ConfigAnalogFilter+0x88>
  {
    /* Process Locked */
    __HAL_LOCK(hi2c);
 8004a52:	687b      	ldr	r3, [r7, #4]
 8004a54:	2240      	movs	r2, #64	; 0x40
 8004a56:	5c9b      	ldrb	r3, [r3, r2]
 8004a58:	2b01      	cmp	r3, #1
 8004a5a:	d101      	bne.n	8004a60 <HAL_I2CEx_ConfigAnalogFilter+0x24>
 8004a5c:	2302      	movs	r3, #2
 8004a5e:	e032      	b.n	8004ac6 <HAL_I2CEx_ConfigAnalogFilter+0x8a>
 8004a60:	687b      	ldr	r3, [r7, #4]
 8004a62:	2240      	movs	r2, #64	; 0x40
 8004a64:	2101      	movs	r1, #1
 8004a66:	5499      	strb	r1, [r3, r2]

    hi2c->State = HAL_I2C_STATE_BUSY;
 8004a68:	687b      	ldr	r3, [r7, #4]
 8004a6a:	2241      	movs	r2, #65	; 0x41
 8004a6c:	2124      	movs	r1, #36	; 0x24
 8004a6e:	5499      	strb	r1, [r3, r2]

    /* Disable the selected I2C peripheral */
    __HAL_I2C_DISABLE(hi2c);
 8004a70:	687b      	ldr	r3, [r7, #4]
 8004a72:	681b      	ldr	r3, [r3, #0]
 8004a74:	681a      	ldr	r2, [r3, #0]
 8004a76:	687b      	ldr	r3, [r7, #4]
 8004a78:	681b      	ldr	r3, [r3, #0]
 8004a7a:	2101      	movs	r1, #1
 8004a7c:	438a      	bics	r2, r1
 8004a7e:	601a      	str	r2, [r3, #0]

    /* Reset I2Cx ANOFF bit */
    hi2c->Instance->CR1 &= ~(I2C_CR1_ANFOFF);
 8004a80:	687b      	ldr	r3, [r7, #4]
 8004a82:	681b      	ldr	r3, [r3, #0]
 8004a84:	681a      	ldr	r2, [r3, #0]
 8004a86:	687b      	ldr	r3, [r7, #4]
 8004a88:	681b      	ldr	r3, [r3, #0]
 8004a8a:	4911      	ldr	r1, [pc, #68]	; (8004ad0 <HAL_I2CEx_ConfigAnalogFilter+0x94>)
 8004a8c:	400a      	ands	r2, r1
 8004a8e:	601a      	str	r2, [r3, #0]

    /* Set analog filter bit*/
    hi2c->Instance->CR1 |= AnalogFilter;
 8004a90:	687b      	ldr	r3, [r7, #4]
 8004a92:	681b      	ldr	r3, [r3, #0]
 8004a94:	6819      	ldr	r1, [r3, #0]
 8004a96:	687b      	ldr	r3, [r7, #4]
 8004a98:	681b      	ldr	r3, [r3, #0]
 8004a9a:	683a      	ldr	r2, [r7, #0]
 8004a9c:	430a      	orrs	r2, r1
 8004a9e:	601a      	str	r2, [r3, #0]

    __HAL_I2C_ENABLE(hi2c);
 8004aa0:	687b      	ldr	r3, [r7, #4]
 8004aa2:	681b      	ldr	r3, [r3, #0]
 8004aa4:	681a      	ldr	r2, [r3, #0]
 8004aa6:	687b      	ldr	r3, [r7, #4]
 8004aa8:	681b      	ldr	r3, [r3, #0]
 8004aaa:	2101      	movs	r1, #1
 8004aac:	430a      	orrs	r2, r1
 8004aae:	601a      	str	r2, [r3, #0]

    hi2c->State = HAL_I2C_STATE_READY;
 8004ab0:	687b      	ldr	r3, [r7, #4]
 8004ab2:	2241      	movs	r2, #65	; 0x41
 8004ab4:	2120      	movs	r1, #32
 8004ab6:	5499      	strb	r1, [r3, r2]

    /* Process Unlocked */
    __HAL_UNLOCK(hi2c);
 8004ab8:	687b      	ldr	r3, [r7, #4]
 8004aba:	2240      	movs	r2, #64	; 0x40
 8004abc:	2100      	movs	r1, #0
 8004abe:	5499      	strb	r1, [r3, r2]

    return HAL_OK;
 8004ac0:	2300      	movs	r3, #0
 8004ac2:	e000      	b.n	8004ac6 <HAL_I2CEx_ConfigAnalogFilter+0x8a>
  }
  else
  {
    return HAL_BUSY;
 8004ac4:	2302      	movs	r3, #2
  }
}
 8004ac6:	0018      	movs	r0, r3
 8004ac8:	46bd      	mov	sp, r7
 8004aca:	b002      	add	sp, #8
 8004acc:	bd80      	pop	{r7, pc}
 8004ace:	46c0      	nop			; (mov r8, r8)
 8004ad0:	ffffefff 	.word	0xffffefff

08004ad4 <HAL_I2CEx_ConfigDigitalFilter>:
  *                the configuration information for the specified I2Cx peripheral.
  * @param  DigitalFilter Coefficient of digital noise filter between Min_Data=0x00 and Max_Data=0x0F.
  * @retval HAL status
  */
HAL_StatusTypeDef HAL_I2CEx_ConfigDigitalFilter(I2C_HandleTypeDef *hi2c, uint32_t DigitalFilter)
{
 8004ad4:	b580      	push	{r7, lr}
 8004ad6:	b084      	sub	sp, #16
 8004ad8:	af00      	add	r7, sp, #0
 8004ada:	6078      	str	r0, [r7, #4]
 8004adc:	6039      	str	r1, [r7, #0]

  /* Check the parameters */
  assert_param(IS_I2C_ALL_INSTANCE(hi2c->Instance));
  assert_param(IS_I2C_DIGITAL_FILTER(DigitalFilter));

  if (hi2c->State == HAL_I2C_STATE_READY)
 8004ade:	687b      	ldr	r3, [r7, #4]
 8004ae0:	2241      	movs	r2, #65	; 0x41
 8004ae2:	5c9b      	ldrb	r3, [r3, r2]
 8004ae4:	b2db      	uxtb	r3, r3
 8004ae6:	2b20      	cmp	r3, #32
 8004ae8:	d139      	bne.n	8004b5e <HAL_I2CEx_ConfigDigitalFilter+0x8a>
  {
    /* Process Locked */
    __HAL_LOCK(hi2c);
 8004aea:	687b      	ldr	r3, [r7, #4]
 8004aec:	2240      	movs	r2, #64	; 0x40
 8004aee:	5c9b      	ldrb	r3, [r3, r2]
 8004af0:	2b01      	cmp	r3, #1
 8004af2:	d101      	bne.n	8004af8 <HAL_I2CEx_ConfigDigitalFilter+0x24>
 8004af4:	2302      	movs	r3, #2
 8004af6:	e033      	b.n	8004b60 <HAL_I2CEx_ConfigDigitalFilter+0x8c>
 8004af8:	687b      	ldr	r3, [r7, #4]
 8004afa:	2240      	movs	r2, #64	; 0x40
 8004afc:	2101      	movs	r1, #1
 8004afe:	5499      	strb	r1, [r3, r2]

    hi2c->State = HAL_I2C_STATE_BUSY;
 8004b00:	687b      	ldr	r3, [r7, #4]
 8004b02:	2241      	movs	r2, #65	; 0x41
 8004b04:	2124      	movs	r1, #36	; 0x24
 8004b06:	5499      	strb	r1, [r3, r2]

    /* Disable the selected I2C peripheral */
    __HAL_I2C_DISABLE(hi2c);
 8004b08:	687b      	ldr	r3, [r7, #4]
 8004b0a:	681b      	ldr	r3, [r3, #0]
 8004b0c:	681a      	ldr	r2, [r3, #0]
 8004b0e:	687b      	ldr	r3, [r7, #4]
 8004b10:	681b      	ldr	r3, [r3, #0]
 8004b12:	2101      	movs	r1, #1
 8004b14:	438a      	bics	r2, r1
 8004b16:	601a      	str	r2, [r3, #0]

    /* Get the old register value */
    tmpreg = hi2c->Instance->CR1;
 8004b18:	687b      	ldr	r3, [r7, #4]
 8004b1a:	681b      	ldr	r3, [r3, #0]
 8004b1c:	681b      	ldr	r3, [r3, #0]
 8004b1e:	60fb      	str	r3, [r7, #12]

    /* Reset I2Cx DNF bits [11:8] */
    tmpreg &= ~(I2C_CR1_DNF);
 8004b20:	68fb      	ldr	r3, [r7, #12]
 8004b22:	4a11      	ldr	r2, [pc, #68]	; (8004b68 <HAL_I2CEx_ConfigDigitalFilter+0x94>)
 8004b24:	4013      	ands	r3, r2
 8004b26:	60fb      	str	r3, [r7, #12]

    /* Set I2Cx DNF coefficient */
    tmpreg |= DigitalFilter << 8U;
 8004b28:	683b      	ldr	r3, [r7, #0]
 8004b2a:	021b      	lsls	r3, r3, #8
 8004b2c:	68fa      	ldr	r2, [r7, #12]
 8004b2e:	4313      	orrs	r3, r2
 8004b30:	60fb      	str	r3, [r7, #12]

    /* Store the new register value */
    hi2c->Instance->CR1 = tmpreg;
 8004b32:	687b      	ldr	r3, [r7, #4]
 8004b34:	681b      	ldr	r3, [r3, #0]
 8004b36:	68fa      	ldr	r2, [r7, #12]
 8004b38:	601a      	str	r2, [r3, #0]

    __HAL_I2C_ENABLE(hi2c);
 8004b3a:	687b      	ldr	r3, [r7, #4]
 8004b3c:	681b      	ldr	r3, [r3, #0]
 8004b3e:	681a      	ldr	r2, [r3, #0]
 8004b40:	687b      	ldr	r3, [r7, #4]
 8004b42:	681b      	ldr	r3, [r3, #0]
 8004b44:	2101      	movs	r1, #1
 8004b46:	430a      	orrs	r2, r1
 8004b48:	601a      	str	r2, [r3, #0]

    hi2c->State = HAL_I2C_STATE_READY;
 8004b4a:	687b      	ldr	r3, [r7, #4]
 8004b4c:	2241      	movs	r2, #65	; 0x41
 8004b4e:	2120      	movs	r1, #32
 8004b50:	5499      	strb	r1, [r3, r2]

    /* Process Unlocked */
    __HAL_UNLOCK(hi2c);
 8004b52:	687b      	ldr	r3, [r7, #4]
 8004b54:	2240      	movs	r2, #64	; 0x40
 8004b56:	2100      	movs	r1, #0
 8004b58:	5499      	strb	r1, [r3, r2]

    return HAL_OK;
 8004b5a:	2300      	movs	r3, #0
 8004b5c:	e000      	b.n	8004b60 <HAL_I2CEx_ConfigDigitalFilter+0x8c>
  }
  else
  {
    return HAL_BUSY;
 8004b5e:	2302      	movs	r3, #2
  }
}
 8004b60:	0018      	movs	r0, r3
 8004b62:	46bd      	mov	sp, r7
 8004b64:	b004      	add	sp, #16
 8004b66:	bd80      	pop	{r7, pc}
 8004b68:	fffff0ff 	.word	0xfffff0ff

08004b6c <HAL_RCC_OscConfig>:
  *         supported by this macro. User should request a transition to HSE Off
  *         first and then HSE On or HSE Bypass.
  * @retval HAL status
  */
HAL_StatusTypeDef HAL_RCC_OscConfig(RCC_OscInitTypeDef  *RCC_OscInitStruct)
{
 8004b6c:	b5b0      	push	{r4, r5, r7, lr}
 8004b6e:	b08a      	sub	sp, #40	; 0x28
 8004b70:	af00      	add	r7, sp, #0
 8004b72:	6078      	str	r0, [r7, #4]
  uint32_t hsi_state;
  HAL_StatusTypeDef status;
  uint32_t sysclk_source, pll_config;

  /* Check Null pointer */
  if(RCC_OscInitStruct == NULL)
 8004b74:	687b      	ldr	r3, [r7, #4]
 8004b76:	2b00      	cmp	r3, #0
 8004b78:	d102      	bne.n	8004b80 <HAL_RCC_OscConfig+0x14>
  {
    return HAL_ERROR;
 8004b7a:	2301      	movs	r3, #1
 8004b7c:	f000 fb6c 	bl	8005258 <HAL_RCC_OscConfig+0x6ec>
  }

  /* Check the parameters */
  assert_param(IS_RCC_OSCILLATORTYPE(RCC_OscInitStruct->OscillatorType));

  sysclk_source = __HAL_RCC_GET_SYSCLK_SOURCE();
 8004b80:	4bc8      	ldr	r3, [pc, #800]	; (8004ea4 <HAL_RCC_OscConfig+0x338>)
 8004b82:	68db      	ldr	r3, [r3, #12]
 8004b84:	220c      	movs	r2, #12
 8004b86:	4013      	ands	r3, r2
 8004b88:	61fb      	str	r3, [r7, #28]
  pll_config = __HAL_RCC_GET_PLL_OSCSOURCE();
 8004b8a:	4bc6      	ldr	r3, [pc, #792]	; (8004ea4 <HAL_RCC_OscConfig+0x338>)
 8004b8c:	68da      	ldr	r2, [r3, #12]
 8004b8e:	2380      	movs	r3, #128	; 0x80
 8004b90:	025b      	lsls	r3, r3, #9
 8004b92:	4013      	ands	r3, r2
 8004b94:	61bb      	str	r3, [r7, #24]

  /*------------------------------- HSE Configuration ------------------------*/
  if(((RCC_OscInitStruct->OscillatorType) & RCC_OSCILLATORTYPE_HSE) == RCC_OSCILLATORTYPE_HSE)
 8004b96:	687b      	ldr	r3, [r7, #4]
 8004b98:	681b      	ldr	r3, [r3, #0]
 8004b9a:	2201      	movs	r2, #1
 8004b9c:	4013      	ands	r3, r2
 8004b9e:	d100      	bne.n	8004ba2 <HAL_RCC_OscConfig+0x36>
 8004ba0:	e07d      	b.n	8004c9e <HAL_RCC_OscConfig+0x132>
  {
    /* Check the parameters */
    assert_param(IS_RCC_HSE(RCC_OscInitStruct->HSEState));

    /* When the HSE is used as system clock or clock source for PLL in these cases it is not allowed to be disabled */
    if((sysclk_source == RCC_SYSCLKSOURCE_STATUS_HSE)
 8004ba2:	69fb      	ldr	r3, [r7, #28]
 8004ba4:	2b08      	cmp	r3, #8
 8004ba6:	d007      	beq.n	8004bb8 <HAL_RCC_OscConfig+0x4c>
       || ((sysclk_source == RCC_SYSCLKSOURCE_STATUS_PLLCLK) && (pll_config == RCC_PLLSOURCE_HSE)))
 8004ba8:	69fb      	ldr	r3, [r7, #28]
 8004baa:	2b0c      	cmp	r3, #12
 8004bac:	d112      	bne.n	8004bd4 <HAL_RCC_OscConfig+0x68>
 8004bae:	69ba      	ldr	r2, [r7, #24]
 8004bb0:	2380      	movs	r3, #128	; 0x80
 8004bb2:	025b      	lsls	r3, r3, #9
 8004bb4:	429a      	cmp	r2, r3
 8004bb6:	d10d      	bne.n	8004bd4 <HAL_RCC_OscConfig+0x68>
    {
      if((__HAL_RCC_GET_FLAG(RCC_FLAG_HSERDY) != 0U) && (RCC_OscInitStruct->HSEState == RCC_HSE_OFF))
 8004bb8:	4bba      	ldr	r3, [pc, #744]	; (8004ea4 <HAL_RCC_OscConfig+0x338>)
 8004bba:	681a      	ldr	r2, [r3, #0]
 8004bbc:	2380      	movs	r3, #128	; 0x80
 8004bbe:	029b      	lsls	r3, r3, #10
 8004bc0:	4013      	ands	r3, r2
 8004bc2:	d100      	bne.n	8004bc6 <HAL_RCC_OscConfig+0x5a>
 8004bc4:	e06a      	b.n	8004c9c <HAL_RCC_OscConfig+0x130>
 8004bc6:	687b      	ldr	r3, [r7, #4]
 8004bc8:	685b      	ldr	r3, [r3, #4]
 8004bca:	2b00      	cmp	r3, #0
 8004bcc:	d166      	bne.n	8004c9c <HAL_RCC_OscConfig+0x130>
      {
        return HAL_ERROR;
 8004bce:	2301      	movs	r3, #1
 8004bd0:	f000 fb42 	bl	8005258 <HAL_RCC_OscConfig+0x6ec>
      }
    }
    else
    {
      /* Set the new HSE configuration ---------------------------------------*/
      __HAL_RCC_HSE_CONFIG(RCC_OscInitStruct->HSEState);
 8004bd4:	687b      	ldr	r3, [r7, #4]
 8004bd6:	685a      	ldr	r2, [r3, #4]
 8004bd8:	2380      	movs	r3, #128	; 0x80
 8004bda:	025b      	lsls	r3, r3, #9
 8004bdc:	429a      	cmp	r2, r3
 8004bde:	d107      	bne.n	8004bf0 <HAL_RCC_OscConfig+0x84>
 8004be0:	4bb0      	ldr	r3, [pc, #704]	; (8004ea4 <HAL_RCC_OscConfig+0x338>)
 8004be2:	681a      	ldr	r2, [r3, #0]
 8004be4:	4baf      	ldr	r3, [pc, #700]	; (8004ea4 <HAL_RCC_OscConfig+0x338>)
 8004be6:	2180      	movs	r1, #128	; 0x80
 8004be8:	0249      	lsls	r1, r1, #9
 8004bea:	430a      	orrs	r2, r1
 8004bec:	601a      	str	r2, [r3, #0]
 8004bee:	e027      	b.n	8004c40 <HAL_RCC_OscConfig+0xd4>
 8004bf0:	687b      	ldr	r3, [r7, #4]
 8004bf2:	685a      	ldr	r2, [r3, #4]
 8004bf4:	23a0      	movs	r3, #160	; 0xa0
 8004bf6:	02db      	lsls	r3, r3, #11
 8004bf8:	429a      	cmp	r2, r3
 8004bfa:	d10e      	bne.n	8004c1a <HAL_RCC_OscConfig+0xae>
 8004bfc:	4ba9      	ldr	r3, [pc, #676]	; (8004ea4 <HAL_RCC_OscConfig+0x338>)
 8004bfe:	681a      	ldr	r2, [r3, #0]
 8004c00:	4ba8      	ldr	r3, [pc, #672]	; (8004ea4 <HAL_RCC_OscConfig+0x338>)
 8004c02:	2180      	movs	r1, #128	; 0x80
 8004c04:	02c9      	lsls	r1, r1, #11
 8004c06:	430a      	orrs	r2, r1
 8004c08:	601a      	str	r2, [r3, #0]
 8004c0a:	4ba6      	ldr	r3, [pc, #664]	; (8004ea4 <HAL_RCC_OscConfig+0x338>)
 8004c0c:	681a      	ldr	r2, [r3, #0]
 8004c0e:	4ba5      	ldr	r3, [pc, #660]	; (8004ea4 <HAL_RCC_OscConfig+0x338>)
 8004c10:	2180      	movs	r1, #128	; 0x80
 8004c12:	0249      	lsls	r1, r1, #9
 8004c14:	430a      	orrs	r2, r1
 8004c16:	601a      	str	r2, [r3, #0]
 8004c18:	e012      	b.n	8004c40 <HAL_RCC_OscConfig+0xd4>
 8004c1a:	4ba2      	ldr	r3, [pc, #648]	; (8004ea4 <HAL_RCC_OscConfig+0x338>)
 8004c1c:	681a      	ldr	r2, [r3, #0]
 8004c1e:	4ba1      	ldr	r3, [pc, #644]	; (8004ea4 <HAL_RCC_OscConfig+0x338>)
 8004c20:	49a1      	ldr	r1, [pc, #644]	; (8004ea8 <HAL_RCC_OscConfig+0x33c>)
 8004c22:	400a      	ands	r2, r1
 8004c24:	601a      	str	r2, [r3, #0]
 8004c26:	4b9f      	ldr	r3, [pc, #636]	; (8004ea4 <HAL_RCC_OscConfig+0x338>)
 8004c28:	681a      	ldr	r2, [r3, #0]
 8004c2a:	2380      	movs	r3, #128	; 0x80
 8004c2c:	025b      	lsls	r3, r3, #9
 8004c2e:	4013      	ands	r3, r2
 8004c30:	60fb      	str	r3, [r7, #12]
 8004c32:	68fb      	ldr	r3, [r7, #12]
 8004c34:	4b9b      	ldr	r3, [pc, #620]	; (8004ea4 <HAL_RCC_OscConfig+0x338>)
 8004c36:	681a      	ldr	r2, [r3, #0]
 8004c38:	4b9a      	ldr	r3, [pc, #616]	; (8004ea4 <HAL_RCC_OscConfig+0x338>)
 8004c3a:	499c      	ldr	r1, [pc, #624]	; (8004eac <HAL_RCC_OscConfig+0x340>)
 8004c3c:	400a      	ands	r2, r1
 8004c3e:	601a      	str	r2, [r3, #0]

      /* Check the HSE State */
      if(RCC_OscInitStruct->HSEState != RCC_HSE_OFF)
 8004c40:	687b      	ldr	r3, [r7, #4]
 8004c42:	685b      	ldr	r3, [r3, #4]
 8004c44:	2b00      	cmp	r3, #0
 8004c46:	d014      	beq.n	8004c72 <HAL_RCC_OscConfig+0x106>
      {
        /* Get Start Tick */
        tickstart = HAL_GetTick();
 8004c48:	f7fe fb68 	bl	800331c <HAL_GetTick>
 8004c4c:	0003      	movs	r3, r0
 8004c4e:	617b      	str	r3, [r7, #20]

        /* Wait till HSE is ready */
        while(__HAL_RCC_GET_FLAG(RCC_FLAG_HSERDY) == 0U)
 8004c50:	e008      	b.n	8004c64 <HAL_RCC_OscConfig+0xf8>
        {
          if((HAL_GetTick() - tickstart ) > HSE_TIMEOUT_VALUE)
 8004c52:	f7fe fb63 	bl	800331c <HAL_GetTick>
 8004c56:	0002      	movs	r2, r0
 8004c58:	697b      	ldr	r3, [r7, #20]
 8004c5a:	1ad3      	subs	r3, r2, r3
 8004c5c:	2b64      	cmp	r3, #100	; 0x64
 8004c5e:	d901      	bls.n	8004c64 <HAL_RCC_OscConfig+0xf8>
          {
            return HAL_TIMEOUT;
 8004c60:	2303      	movs	r3, #3
 8004c62:	e2f9      	b.n	8005258 <HAL_RCC_OscConfig+0x6ec>
        while(__HAL_RCC_GET_FLAG(RCC_FLAG_HSERDY) == 0U)
 8004c64:	4b8f      	ldr	r3, [pc, #572]	; (8004ea4 <HAL_RCC_OscConfig+0x338>)
 8004c66:	681a      	ldr	r2, [r3, #0]
 8004c68:	2380      	movs	r3, #128	; 0x80
 8004c6a:	029b      	lsls	r3, r3, #10
 8004c6c:	4013      	ands	r3, r2
 8004c6e:	d0f0      	beq.n	8004c52 <HAL_RCC_OscConfig+0xe6>
 8004c70:	e015      	b.n	8004c9e <HAL_RCC_OscConfig+0x132>
        }
      }
      else
      {
        /* Get Start Tick */
        tickstart = HAL_GetTick();
 8004c72:	f7fe fb53 	bl	800331c <HAL_GetTick>
 8004c76:	0003      	movs	r3, r0
 8004c78:	617b      	str	r3, [r7, #20]

        /* Wait till HSE is disabled */
        while(__HAL_RCC_GET_FLAG(RCC_FLAG_HSERDY) != 0U)
 8004c7a:	e008      	b.n	8004c8e <HAL_RCC_OscConfig+0x122>
        {
           if((HAL_GetTick() - tickstart ) > HSE_TIMEOUT_VALUE)
 8004c7c:	f7fe fb4e 	bl	800331c <HAL_GetTick>
 8004c80:	0002      	movs	r2, r0
 8004c82:	697b      	ldr	r3, [r7, #20]
 8004c84:	1ad3      	subs	r3, r2, r3
 8004c86:	2b64      	cmp	r3, #100	; 0x64
 8004c88:	d901      	bls.n	8004c8e <HAL_RCC_OscConfig+0x122>
          {
            return HAL_TIMEOUT;
 8004c8a:	2303      	movs	r3, #3
 8004c8c:	e2e4      	b.n	8005258 <HAL_RCC_OscConfig+0x6ec>
        while(__HAL_RCC_GET_FLAG(RCC_FLAG_HSERDY) != 0U)
 8004c8e:	4b85      	ldr	r3, [pc, #532]	; (8004ea4 <HAL_RCC_OscConfig+0x338>)
 8004c90:	681a      	ldr	r2, [r3, #0]
 8004c92:	2380      	movs	r3, #128	; 0x80
 8004c94:	029b      	lsls	r3, r3, #10
 8004c96:	4013      	ands	r3, r2
 8004c98:	d1f0      	bne.n	8004c7c <HAL_RCC_OscConfig+0x110>
 8004c9a:	e000      	b.n	8004c9e <HAL_RCC_OscConfig+0x132>
      if((__HAL_RCC_GET_FLAG(RCC_FLAG_HSERDY) != 0U) && (RCC_OscInitStruct->HSEState == RCC_HSE_OFF))
 8004c9c:	46c0      	nop			; (mov r8, r8)
        }
      }
    }
  }
  /*----------------------------- HSI Configuration --------------------------*/
  if(((RCC_OscInitStruct->OscillatorType) & RCC_OSCILLATORTYPE_HSI) == RCC_OSCILLATORTYPE_HSI)
 8004c9e:	687b      	ldr	r3, [r7, #4]
 8004ca0:	681b      	ldr	r3, [r3, #0]
 8004ca2:	2202      	movs	r2, #2
 8004ca4:	4013      	ands	r3, r2
 8004ca6:	d100      	bne.n	8004caa <HAL_RCC_OscConfig+0x13e>
 8004ca8:	e099      	b.n	8004dde <HAL_RCC_OscConfig+0x272>
  {
    /* Check the parameters */
    assert_param(IS_RCC_HSI(RCC_OscInitStruct->HSIState));
    assert_param(IS_RCC_CALIBRATION_VALUE(RCC_OscInitStruct->HSICalibrationValue));

    hsi_state = RCC_OscInitStruct->HSIState;
 8004caa:	687b      	ldr	r3, [r7, #4]
 8004cac:	68db      	ldr	r3, [r3, #12]
 8004cae:	627b      	str	r3, [r7, #36]	; 0x24

#if defined(RCC_CR_HSIOUTEN)
    if((hsi_state & RCC_HSI_OUTEN) != 0U)
 8004cb0:	6a7b      	ldr	r3, [r7, #36]	; 0x24
 8004cb2:	2220      	movs	r2, #32
 8004cb4:	4013      	ands	r3, r2
 8004cb6:	d009      	beq.n	8004ccc <HAL_RCC_OscConfig+0x160>
    {
      /* HSI Output enable for timer requested */
      SET_BIT(RCC->CR, RCC_CR_HSIOUTEN);
 8004cb8:	4b7a      	ldr	r3, [pc, #488]	; (8004ea4 <HAL_RCC_OscConfig+0x338>)
 8004cba:	681a      	ldr	r2, [r3, #0]
 8004cbc:	4b79      	ldr	r3, [pc, #484]	; (8004ea4 <HAL_RCC_OscConfig+0x338>)
 8004cbe:	2120      	movs	r1, #32
 8004cc0:	430a      	orrs	r2, r1
 8004cc2:	601a      	str	r2, [r3, #0]

      hsi_state &= ~RCC_CR_HSIOUTEN;
 8004cc4:	6a7b      	ldr	r3, [r7, #36]	; 0x24
 8004cc6:	2220      	movs	r2, #32
 8004cc8:	4393      	bics	r3, r2
 8004cca:	627b      	str	r3, [r7, #36]	; 0x24
    }
#endif

    /* Check if HSI is used as system clock or as PLL source when PLL is selected as system clock */
    if((sysclk_source == RCC_SYSCLKSOURCE_STATUS_HSI)
 8004ccc:	69fb      	ldr	r3, [r7, #28]
 8004cce:	2b04      	cmp	r3, #4
 8004cd0:	d005      	beq.n	8004cde <HAL_RCC_OscConfig+0x172>
       || ((sysclk_source == RCC_SYSCLKSOURCE_STATUS_PLLCLK) && (pll_config == RCC_PLLSOURCE_HSI)))
 8004cd2:	69fb      	ldr	r3, [r7, #28]
 8004cd4:	2b0c      	cmp	r3, #12
 8004cd6:	d13e      	bne.n	8004d56 <HAL_RCC_OscConfig+0x1ea>
 8004cd8:	69bb      	ldr	r3, [r7, #24]
 8004cda:	2b00      	cmp	r3, #0
 8004cdc:	d13b      	bne.n	8004d56 <HAL_RCC_OscConfig+0x1ea>
    {
      /* When HSI is used as system clock it will not disabled */
      if((__HAL_RCC_GET_FLAG(RCC_FLAG_HSIRDY) != 0U) && (hsi_state == RCC_HSI_OFF))
 8004cde:	4b71      	ldr	r3, [pc, #452]	; (8004ea4 <HAL_RCC_OscConfig+0x338>)
 8004ce0:	681b      	ldr	r3, [r3, #0]
 8004ce2:	2204      	movs	r2, #4
 8004ce4:	4013      	ands	r3, r2
 8004ce6:	d004      	beq.n	8004cf2 <HAL_RCC_OscConfig+0x186>
 8004ce8:	6a7b      	ldr	r3, [r7, #36]	; 0x24
 8004cea:	2b00      	cmp	r3, #0
 8004cec:	d101      	bne.n	8004cf2 <HAL_RCC_OscConfig+0x186>
      {
        return HAL_ERROR;
 8004cee:	2301      	movs	r3, #1
 8004cf0:	e2b2      	b.n	8005258 <HAL_RCC_OscConfig+0x6ec>
      }
      /* Otherwise, just the calibration and HSI or HSIdiv4 are allowed */
      else
      {
        /* Adjusts the Internal High Speed oscillator (HSI) calibration value.*/
        __HAL_RCC_HSI_CALIBRATIONVALUE_ADJUST(RCC_OscInitStruct->HSICalibrationValue);
 8004cf2:	4b6c      	ldr	r3, [pc, #432]	; (8004ea4 <HAL_RCC_OscConfig+0x338>)
 8004cf4:	685b      	ldr	r3, [r3, #4]
 8004cf6:	4a6e      	ldr	r2, [pc, #440]	; (8004eb0 <HAL_RCC_OscConfig+0x344>)
 8004cf8:	4013      	ands	r3, r2
 8004cfa:	0019      	movs	r1, r3
 8004cfc:	687b      	ldr	r3, [r7, #4]
 8004cfe:	691b      	ldr	r3, [r3, #16]
 8004d00:	021a      	lsls	r2, r3, #8
 8004d02:	4b68      	ldr	r3, [pc, #416]	; (8004ea4 <HAL_RCC_OscConfig+0x338>)
 8004d04:	430a      	orrs	r2, r1
 8004d06:	605a      	str	r2, [r3, #4]

        /* Enable the Internal High Speed oscillator (HSI or HSIdiv4) */
        __HAL_RCC_HSI_CONFIG(hsi_state);
 8004d08:	4b66      	ldr	r3, [pc, #408]	; (8004ea4 <HAL_RCC_OscConfig+0x338>)
 8004d0a:	681b      	ldr	r3, [r3, #0]
 8004d0c:	2209      	movs	r2, #9
 8004d0e:	4393      	bics	r3, r2
 8004d10:	0019      	movs	r1, r3
 8004d12:	4b64      	ldr	r3, [pc, #400]	; (8004ea4 <HAL_RCC_OscConfig+0x338>)
 8004d14:	6a7a      	ldr	r2, [r7, #36]	; 0x24
 8004d16:	430a      	orrs	r2, r1
 8004d18:	601a      	str	r2, [r3, #0]
      }

      /* Update the SystemCoreClock global variable */
      SystemCoreClock = HAL_RCC_GetSysClockFreq() >> AHBPrescTable[(RCC->CFGR & RCC_CFGR_HPRE)>> RCC_CFGR_HPRE_Pos];
 8004d1a:	f000 fbeb 	bl	80054f4 <HAL_RCC_GetSysClockFreq>
 8004d1e:	0001      	movs	r1, r0
 8004d20:	4b60      	ldr	r3, [pc, #384]	; (8004ea4 <HAL_RCC_OscConfig+0x338>)
 8004d22:	68db      	ldr	r3, [r3, #12]
 8004d24:	091b      	lsrs	r3, r3, #4
 8004d26:	220f      	movs	r2, #15
 8004d28:	4013      	ands	r3, r2
 8004d2a:	4a62      	ldr	r2, [pc, #392]	; (8004eb4 <HAL_RCC_OscConfig+0x348>)
 8004d2c:	5cd3      	ldrb	r3, [r2, r3]
 8004d2e:	000a      	movs	r2, r1
 8004d30:	40da      	lsrs	r2, r3
 8004d32:	4b61      	ldr	r3, [pc, #388]	; (8004eb8 <HAL_RCC_OscConfig+0x34c>)
 8004d34:	601a      	str	r2, [r3, #0]

      /* Configure the source of time base considering new system clocks settings*/
      status = HAL_InitTick (uwTickPrio);
 8004d36:	4b61      	ldr	r3, [pc, #388]	; (8004ebc <HAL_RCC_OscConfig+0x350>)
 8004d38:	681b      	ldr	r3, [r3, #0]
 8004d3a:	2513      	movs	r5, #19
 8004d3c:	197c      	adds	r4, r7, r5
 8004d3e:	0018      	movs	r0, r3
 8004d40:	f7fe faa6 	bl	8003290 <HAL_InitTick>
 8004d44:	0003      	movs	r3, r0
 8004d46:	7023      	strb	r3, [r4, #0]
      if(status != HAL_OK)
 8004d48:	197b      	adds	r3, r7, r5
 8004d4a:	781b      	ldrb	r3, [r3, #0]
 8004d4c:	2b00      	cmp	r3, #0
 8004d4e:	d046      	beq.n	8004dde <HAL_RCC_OscConfig+0x272>
      {
        return status;
 8004d50:	197b      	adds	r3, r7, r5
 8004d52:	781b      	ldrb	r3, [r3, #0]
 8004d54:	e280      	b.n	8005258 <HAL_RCC_OscConfig+0x6ec>
      }
    }
    else
    {
      /* Check the HSI State */
      if(hsi_state != RCC_HSI_OFF)
 8004d56:	6a7b      	ldr	r3, [r7, #36]	; 0x24
 8004d58:	2b00      	cmp	r3, #0
 8004d5a:	d027      	beq.n	8004dac <HAL_RCC_OscConfig+0x240>
      {
        /* Enable the Internal High Speed oscillator (HSI or HSIdiv4) */
        __HAL_RCC_HSI_CONFIG(hsi_state);
 8004d5c:	4b51      	ldr	r3, [pc, #324]	; (8004ea4 <HAL_RCC_OscConfig+0x338>)
 8004d5e:	681b      	ldr	r3, [r3, #0]
 8004d60:	2209      	movs	r2, #9
 8004d62:	4393      	bics	r3, r2
 8004d64:	0019      	movs	r1, r3
 8004d66:	4b4f      	ldr	r3, [pc, #316]	; (8004ea4 <HAL_RCC_OscConfig+0x338>)
 8004d68:	6a7a      	ldr	r2, [r7, #36]	; 0x24
 8004d6a:	430a      	orrs	r2, r1
 8004d6c:	601a      	str	r2, [r3, #0]

        /* Get Start Tick */
        tickstart = HAL_GetTick();
 8004d6e:	f7fe fad5 	bl	800331c <HAL_GetTick>
 8004d72:	0003      	movs	r3, r0
 8004d74:	617b      	str	r3, [r7, #20]

        /* Wait till HSI is ready */
        while(__HAL_RCC_GET_FLAG(RCC_FLAG_HSIRDY) == 0U)
 8004d76:	e008      	b.n	8004d8a <HAL_RCC_OscConfig+0x21e>
        {
          if((HAL_GetTick() - tickstart ) > HSI_TIMEOUT_VALUE)
 8004d78:	f7fe fad0 	bl	800331c <HAL_GetTick>
 8004d7c:	0002      	movs	r2, r0
 8004d7e:	697b      	ldr	r3, [r7, #20]
 8004d80:	1ad3      	subs	r3, r2, r3
 8004d82:	2b02      	cmp	r3, #2
 8004d84:	d901      	bls.n	8004d8a <HAL_RCC_OscConfig+0x21e>
          {
            return HAL_TIMEOUT;
 8004d86:	2303      	movs	r3, #3
 8004d88:	e266      	b.n	8005258 <HAL_RCC_OscConfig+0x6ec>
        while(__HAL_RCC_GET_FLAG(RCC_FLAG_HSIRDY) == 0U)
 8004d8a:	4b46      	ldr	r3, [pc, #280]	; (8004ea4 <HAL_RCC_OscConfig+0x338>)
 8004d8c:	681b      	ldr	r3, [r3, #0]
 8004d8e:	2204      	movs	r2, #4
 8004d90:	4013      	ands	r3, r2
 8004d92:	d0f1      	beq.n	8004d78 <HAL_RCC_OscConfig+0x20c>
          }
        }

        /* Adjusts the Internal High Speed oscillator (HSI) calibration value.*/
        __HAL_RCC_HSI_CALIBRATIONVALUE_ADJUST(RCC_OscInitStruct->HSICalibrationValue);
 8004d94:	4b43      	ldr	r3, [pc, #268]	; (8004ea4 <HAL_RCC_OscConfig+0x338>)
 8004d96:	685b      	ldr	r3, [r3, #4]
 8004d98:	4a45      	ldr	r2, [pc, #276]	; (8004eb0 <HAL_RCC_OscConfig+0x344>)
 8004d9a:	4013      	ands	r3, r2
 8004d9c:	0019      	movs	r1, r3
 8004d9e:	687b      	ldr	r3, [r7, #4]
 8004da0:	691b      	ldr	r3, [r3, #16]
 8004da2:	021a      	lsls	r2, r3, #8
 8004da4:	4b3f      	ldr	r3, [pc, #252]	; (8004ea4 <HAL_RCC_OscConfig+0x338>)
 8004da6:	430a      	orrs	r2, r1
 8004da8:	605a      	str	r2, [r3, #4]
 8004daa:	e018      	b.n	8004dde <HAL_RCC_OscConfig+0x272>
      }
      else
      {
        /* Disable the Internal High Speed oscillator (HSI). */
        __HAL_RCC_HSI_DISABLE();
 8004dac:	4b3d      	ldr	r3, [pc, #244]	; (8004ea4 <HAL_RCC_OscConfig+0x338>)
 8004dae:	681a      	ldr	r2, [r3, #0]
 8004db0:	4b3c      	ldr	r3, [pc, #240]	; (8004ea4 <HAL_RCC_OscConfig+0x338>)
 8004db2:	2101      	movs	r1, #1
 8004db4:	438a      	bics	r2, r1
 8004db6:	601a      	str	r2, [r3, #0]

        /* Get Start Tick */
        tickstart = HAL_GetTick();
 8004db8:	f7fe fab0 	bl	800331c <HAL_GetTick>
 8004dbc:	0003      	movs	r3, r0
 8004dbe:	617b      	str	r3, [r7, #20]

        /* Wait till HSI is disabled */
        while(__HAL_RCC_GET_FLAG(RCC_FLAG_HSIRDY) != 0U)
 8004dc0:	e008      	b.n	8004dd4 <HAL_RCC_OscConfig+0x268>
        {
          if((HAL_GetTick() - tickstart ) > HSI_TIMEOUT_VALUE)
 8004dc2:	f7fe faab 	bl	800331c <HAL_GetTick>
 8004dc6:	0002      	movs	r2, r0
 8004dc8:	697b      	ldr	r3, [r7, #20]
 8004dca:	1ad3      	subs	r3, r2, r3
 8004dcc:	2b02      	cmp	r3, #2
 8004dce:	d901      	bls.n	8004dd4 <HAL_RCC_OscConfig+0x268>
          {
            return HAL_TIMEOUT;
 8004dd0:	2303      	movs	r3, #3
 8004dd2:	e241      	b.n	8005258 <HAL_RCC_OscConfig+0x6ec>
        while(__HAL_RCC_GET_FLAG(RCC_FLAG_HSIRDY) != 0U)
 8004dd4:	4b33      	ldr	r3, [pc, #204]	; (8004ea4 <HAL_RCC_OscConfig+0x338>)
 8004dd6:	681b      	ldr	r3, [r3, #0]
 8004dd8:	2204      	movs	r2, #4
 8004dda:	4013      	ands	r3, r2
 8004ddc:	d1f1      	bne.n	8004dc2 <HAL_RCC_OscConfig+0x256>
        }
      }
    }
  }
  /*----------------------------- MSI Configuration --------------------------*/
  if(((RCC_OscInitStruct->OscillatorType) & RCC_OSCILLATORTYPE_MSI) == RCC_OSCILLATORTYPE_MSI)
 8004dde:	687b      	ldr	r3, [r7, #4]
 8004de0:	681b      	ldr	r3, [r3, #0]
 8004de2:	2210      	movs	r2, #16
 8004de4:	4013      	ands	r3, r2
 8004de6:	d100      	bne.n	8004dea <HAL_RCC_OscConfig+0x27e>
 8004de8:	e0a1      	b.n	8004f2e <HAL_RCC_OscConfig+0x3c2>
  {
    /* When the MSI is used as system clock it will not be disabled */
    if(sysclk_source == RCC_CFGR_SWS_MSI)
 8004dea:	69fb      	ldr	r3, [r7, #28]
 8004dec:	2b00      	cmp	r3, #0
 8004dee:	d140      	bne.n	8004e72 <HAL_RCC_OscConfig+0x306>
    {
      if((__HAL_RCC_GET_FLAG(RCC_FLAG_MSIRDY) != 0U) && (RCC_OscInitStruct->MSIState == RCC_MSI_OFF))
 8004df0:	4b2c      	ldr	r3, [pc, #176]	; (8004ea4 <HAL_RCC_OscConfig+0x338>)
 8004df2:	681a      	ldr	r2, [r3, #0]
 8004df4:	2380      	movs	r3, #128	; 0x80
 8004df6:	009b      	lsls	r3, r3, #2
 8004df8:	4013      	ands	r3, r2
 8004dfa:	d005      	beq.n	8004e08 <HAL_RCC_OscConfig+0x29c>
 8004dfc:	687b      	ldr	r3, [r7, #4]
 8004dfe:	699b      	ldr	r3, [r3, #24]
 8004e00:	2b00      	cmp	r3, #0
 8004e02:	d101      	bne.n	8004e08 <HAL_RCC_OscConfig+0x29c>
      {
        return HAL_ERROR;
 8004e04:	2301      	movs	r3, #1
 8004e06:	e227      	b.n	8005258 <HAL_RCC_OscConfig+0x6ec>
        /* Check MSICalibrationValue and MSIClockRange input parameters */
        assert_param(IS_RCC_MSICALIBRATION_VALUE(RCC_OscInitStruct->MSICalibrationValue));
        assert_param(IS_RCC_MSI_CLOCK_RANGE(RCC_OscInitStruct->MSIClockRange));

        /* Selects the Multiple Speed oscillator (MSI) clock range .*/
        __HAL_RCC_MSI_RANGE_CONFIG(RCC_OscInitStruct->MSIClockRange);
 8004e08:	4b26      	ldr	r3, [pc, #152]	; (8004ea4 <HAL_RCC_OscConfig+0x338>)
 8004e0a:	685b      	ldr	r3, [r3, #4]
 8004e0c:	4a2c      	ldr	r2, [pc, #176]	; (8004ec0 <HAL_RCC_OscConfig+0x354>)
 8004e0e:	4013      	ands	r3, r2
 8004e10:	0019      	movs	r1, r3
 8004e12:	687b      	ldr	r3, [r7, #4]
 8004e14:	6a1a      	ldr	r2, [r3, #32]
 8004e16:	4b23      	ldr	r3, [pc, #140]	; (8004ea4 <HAL_RCC_OscConfig+0x338>)
 8004e18:	430a      	orrs	r2, r1
 8004e1a:	605a      	str	r2, [r3, #4]
        /* Adjusts the Multiple Speed oscillator (MSI) calibration value.*/
        __HAL_RCC_MSI_CALIBRATIONVALUE_ADJUST(RCC_OscInitStruct->MSICalibrationValue);
 8004e1c:	4b21      	ldr	r3, [pc, #132]	; (8004ea4 <HAL_RCC_OscConfig+0x338>)
 8004e1e:	685b      	ldr	r3, [r3, #4]
 8004e20:	021b      	lsls	r3, r3, #8
 8004e22:	0a19      	lsrs	r1, r3, #8
 8004e24:	687b      	ldr	r3, [r7, #4]
 8004e26:	69db      	ldr	r3, [r3, #28]
 8004e28:	061a      	lsls	r2, r3, #24
 8004e2a:	4b1e      	ldr	r3, [pc, #120]	; (8004ea4 <HAL_RCC_OscConfig+0x338>)
 8004e2c:	430a      	orrs	r2, r1
 8004e2e:	605a      	str	r2, [r3, #4]


        /* Update the SystemCoreClock global variable */
        SystemCoreClock =  (32768U * (1UL << ((RCC_OscInitStruct->MSIClockRange >> RCC_ICSCR_MSIRANGE_Pos) + 1U)))
 8004e30:	687b      	ldr	r3, [r7, #4]
 8004e32:	6a1b      	ldr	r3, [r3, #32]
 8004e34:	0b5b      	lsrs	r3, r3, #13
 8004e36:	3301      	adds	r3, #1
 8004e38:	2280      	movs	r2, #128	; 0x80
 8004e3a:	0212      	lsls	r2, r2, #8
 8004e3c:	409a      	lsls	r2, r3
                           >> AHBPrescTable[((RCC->CFGR & RCC_CFGR_HPRE) >> RCC_CFGR_HPRE_Pos)];
 8004e3e:	4b19      	ldr	r3, [pc, #100]	; (8004ea4 <HAL_RCC_OscConfig+0x338>)
 8004e40:	68db      	ldr	r3, [r3, #12]
 8004e42:	091b      	lsrs	r3, r3, #4
 8004e44:	210f      	movs	r1, #15
 8004e46:	400b      	ands	r3, r1
 8004e48:	491a      	ldr	r1, [pc, #104]	; (8004eb4 <HAL_RCC_OscConfig+0x348>)
 8004e4a:	5ccb      	ldrb	r3, [r1, r3]
 8004e4c:	40da      	lsrs	r2, r3
        SystemCoreClock =  (32768U * (1UL << ((RCC_OscInitStruct->MSIClockRange >> RCC_ICSCR_MSIRANGE_Pos) + 1U)))
 8004e4e:	4b1a      	ldr	r3, [pc, #104]	; (8004eb8 <HAL_RCC_OscConfig+0x34c>)
 8004e50:	601a      	str	r2, [r3, #0]

        /* Configure the source of time base considering new system clocks settings*/
        status = HAL_InitTick (uwTickPrio);
 8004e52:	4b1a      	ldr	r3, [pc, #104]	; (8004ebc <HAL_RCC_OscConfig+0x350>)
 8004e54:	681b      	ldr	r3, [r3, #0]
 8004e56:	2513      	movs	r5, #19
 8004e58:	197c      	adds	r4, r7, r5
 8004e5a:	0018      	movs	r0, r3
 8004e5c:	f7fe fa18 	bl	8003290 <HAL_InitTick>
 8004e60:	0003      	movs	r3, r0
 8004e62:	7023      	strb	r3, [r4, #0]
        if(status != HAL_OK)
 8004e64:	197b      	adds	r3, r7, r5
 8004e66:	781b      	ldrb	r3, [r3, #0]
 8004e68:	2b00      	cmp	r3, #0
 8004e6a:	d060      	beq.n	8004f2e <HAL_RCC_OscConfig+0x3c2>
        {
          return status;
 8004e6c:	197b      	adds	r3, r7, r5
 8004e6e:	781b      	ldrb	r3, [r3, #0]
 8004e70:	e1f2      	b.n	8005258 <HAL_RCC_OscConfig+0x6ec>
    {
      /* Check MSI State */
      assert_param(IS_RCC_MSI(RCC_OscInitStruct->MSIState));

      /* Check the MSI State */
      if(RCC_OscInitStruct->MSIState != RCC_MSI_OFF)
 8004e72:	687b      	ldr	r3, [r7, #4]
 8004e74:	699b      	ldr	r3, [r3, #24]
 8004e76:	2b00      	cmp	r3, #0
 8004e78:	d03f      	beq.n	8004efa <HAL_RCC_OscConfig+0x38e>
      {
        /* Enable the Multi Speed oscillator (MSI). */
        __HAL_RCC_MSI_ENABLE();
 8004e7a:	4b0a      	ldr	r3, [pc, #40]	; (8004ea4 <HAL_RCC_OscConfig+0x338>)
 8004e7c:	681a      	ldr	r2, [r3, #0]
 8004e7e:	4b09      	ldr	r3, [pc, #36]	; (8004ea4 <HAL_RCC_OscConfig+0x338>)
 8004e80:	2180      	movs	r1, #128	; 0x80
 8004e82:	0049      	lsls	r1, r1, #1
 8004e84:	430a      	orrs	r2, r1
 8004e86:	601a      	str	r2, [r3, #0]

        /* Get Start Tick */
        tickstart = HAL_GetTick();
 8004e88:	f7fe fa48 	bl	800331c <HAL_GetTick>
 8004e8c:	0003      	movs	r3, r0
 8004e8e:	617b      	str	r3, [r7, #20]

        /* Wait till MSI is ready */
        while(__HAL_RCC_GET_FLAG(RCC_FLAG_MSIRDY) == 0U)
 8004e90:	e018      	b.n	8004ec4 <HAL_RCC_OscConfig+0x358>
        {
          if((HAL_GetTick() - tickstart) > MSI_TIMEOUT_VALUE)
 8004e92:	f7fe fa43 	bl	800331c <HAL_GetTick>
 8004e96:	0002      	movs	r2, r0
 8004e98:	697b      	ldr	r3, [r7, #20]
 8004e9a:	1ad3      	subs	r3, r2, r3
 8004e9c:	2b02      	cmp	r3, #2
 8004e9e:	d911      	bls.n	8004ec4 <HAL_RCC_OscConfig+0x358>
          {
            return HAL_TIMEOUT;
 8004ea0:	2303      	movs	r3, #3
 8004ea2:	e1d9      	b.n	8005258 <HAL_RCC_OscConfig+0x6ec>
 8004ea4:	40021000 	.word	0x40021000
 8004ea8:	fffeffff 	.word	0xfffeffff
 8004eac:	fffbffff 	.word	0xfffbffff
 8004eb0:	ffffe0ff 	.word	0xffffe0ff
 8004eb4:	080072c4 	.word	0x080072c4
 8004eb8:	20000010 	.word	0x20000010
 8004ebc:	2000002c 	.word	0x2000002c
 8004ec0:	ffff1fff 	.word	0xffff1fff
        while(__HAL_RCC_GET_FLAG(RCC_FLAG_MSIRDY) == 0U)
 8004ec4:	4bc9      	ldr	r3, [pc, #804]	; (80051ec <HAL_RCC_OscConfig+0x680>)
 8004ec6:	681a      	ldr	r2, [r3, #0]
 8004ec8:	2380      	movs	r3, #128	; 0x80
 8004eca:	009b      	lsls	r3, r3, #2
 8004ecc:	4013      	ands	r3, r2
 8004ece:	d0e0      	beq.n	8004e92 <HAL_RCC_OscConfig+0x326>
        /* Check MSICalibrationValue and MSIClockRange input parameters */
        assert_param(IS_RCC_MSICALIBRATION_VALUE(RCC_OscInitStruct->MSICalibrationValue));
        assert_param(IS_RCC_MSI_CLOCK_RANGE(RCC_OscInitStruct->MSIClockRange));

        /* Selects the Multiple Speed oscillator (MSI) clock range .*/
        __HAL_RCC_MSI_RANGE_CONFIG(RCC_OscInitStruct->MSIClockRange);
 8004ed0:	4bc6      	ldr	r3, [pc, #792]	; (80051ec <HAL_RCC_OscConfig+0x680>)
 8004ed2:	685b      	ldr	r3, [r3, #4]
 8004ed4:	4ac6      	ldr	r2, [pc, #792]	; (80051f0 <HAL_RCC_OscConfig+0x684>)
 8004ed6:	4013      	ands	r3, r2
 8004ed8:	0019      	movs	r1, r3
 8004eda:	687b      	ldr	r3, [r7, #4]
 8004edc:	6a1a      	ldr	r2, [r3, #32]
 8004ede:	4bc3      	ldr	r3, [pc, #780]	; (80051ec <HAL_RCC_OscConfig+0x680>)
 8004ee0:	430a      	orrs	r2, r1
 8004ee2:	605a      	str	r2, [r3, #4]
         /* Adjusts the Multiple Speed oscillator (MSI) calibration value.*/
        __HAL_RCC_MSI_CALIBRATIONVALUE_ADJUST(RCC_OscInitStruct->MSICalibrationValue);
 8004ee4:	4bc1      	ldr	r3, [pc, #772]	; (80051ec <HAL_RCC_OscConfig+0x680>)
 8004ee6:	685b      	ldr	r3, [r3, #4]
 8004ee8:	021b      	lsls	r3, r3, #8
 8004eea:	0a19      	lsrs	r1, r3, #8
 8004eec:	687b      	ldr	r3, [r7, #4]
 8004eee:	69db      	ldr	r3, [r3, #28]
 8004ef0:	061a      	lsls	r2, r3, #24
 8004ef2:	4bbe      	ldr	r3, [pc, #760]	; (80051ec <HAL_RCC_OscConfig+0x680>)
 8004ef4:	430a      	orrs	r2, r1
 8004ef6:	605a      	str	r2, [r3, #4]
 8004ef8:	e019      	b.n	8004f2e <HAL_RCC_OscConfig+0x3c2>
      }
      else
      {
        /* Disable the Multi Speed oscillator (MSI). */
        __HAL_RCC_MSI_DISABLE();
 8004efa:	4bbc      	ldr	r3, [pc, #752]	; (80051ec <HAL_RCC_OscConfig+0x680>)
 8004efc:	681a      	ldr	r2, [r3, #0]
 8004efe:	4bbb      	ldr	r3, [pc, #748]	; (80051ec <HAL_RCC_OscConfig+0x680>)
 8004f00:	49bc      	ldr	r1, [pc, #752]	; (80051f4 <HAL_RCC_OscConfig+0x688>)
 8004f02:	400a      	ands	r2, r1
 8004f04:	601a      	str	r2, [r3, #0]

        /* Get Start Tick */
        tickstart = HAL_GetTick();
 8004f06:	f7fe fa09 	bl	800331c <HAL_GetTick>
 8004f0a:	0003      	movs	r3, r0
 8004f0c:	617b      	str	r3, [r7, #20]

        /* Wait till MSI is ready */
        while(__HAL_RCC_GET_FLAG(RCC_FLAG_MSIRDY) != 0U)
 8004f0e:	e008      	b.n	8004f22 <HAL_RCC_OscConfig+0x3b6>
        {
          if((HAL_GetTick() - tickstart) > MSI_TIMEOUT_VALUE)
 8004f10:	f7fe fa04 	bl	800331c <HAL_GetTick>
 8004f14:	0002      	movs	r2, r0
 8004f16:	697b      	ldr	r3, [r7, #20]
 8004f18:	1ad3      	subs	r3, r2, r3
 8004f1a:	2b02      	cmp	r3, #2
 8004f1c:	d901      	bls.n	8004f22 <HAL_RCC_OscConfig+0x3b6>
          {
            return HAL_TIMEOUT;
 8004f1e:	2303      	movs	r3, #3
 8004f20:	e19a      	b.n	8005258 <HAL_RCC_OscConfig+0x6ec>
        while(__HAL_RCC_GET_FLAG(RCC_FLAG_MSIRDY) != 0U)
 8004f22:	4bb2      	ldr	r3, [pc, #712]	; (80051ec <HAL_RCC_OscConfig+0x680>)
 8004f24:	681a      	ldr	r2, [r3, #0]
 8004f26:	2380      	movs	r3, #128	; 0x80
 8004f28:	009b      	lsls	r3, r3, #2
 8004f2a:	4013      	ands	r3, r2
 8004f2c:	d1f0      	bne.n	8004f10 <HAL_RCC_OscConfig+0x3a4>
        }
      }
    }
  }
  /*------------------------------ LSI Configuration -------------------------*/
  if(((RCC_OscInitStruct->OscillatorType) & RCC_OSCILLATORTYPE_LSI) == RCC_OSCILLATORTYPE_LSI)
 8004f2e:	687b      	ldr	r3, [r7, #4]
 8004f30:	681b      	ldr	r3, [r3, #0]
 8004f32:	2208      	movs	r2, #8
 8004f34:	4013      	ands	r3, r2
 8004f36:	d036      	beq.n	8004fa6 <HAL_RCC_OscConfig+0x43a>
  {
    /* Check the parameters */
    assert_param(IS_RCC_LSI(RCC_OscInitStruct->LSIState));

    /* Check the LSI State */
    if(RCC_OscInitStruct->LSIState != RCC_LSI_OFF)
 8004f38:	687b      	ldr	r3, [r7, #4]
 8004f3a:	695b      	ldr	r3, [r3, #20]
 8004f3c:	2b00      	cmp	r3, #0
 8004f3e:	d019      	beq.n	8004f74 <HAL_RCC_OscConfig+0x408>
    {
      /* Enable the Internal Low Speed oscillator (LSI). */
      __HAL_RCC_LSI_ENABLE();
 8004f40:	4baa      	ldr	r3, [pc, #680]	; (80051ec <HAL_RCC_OscConfig+0x680>)
 8004f42:	6d1a      	ldr	r2, [r3, #80]	; 0x50
 8004f44:	4ba9      	ldr	r3, [pc, #676]	; (80051ec <HAL_RCC_OscConfig+0x680>)
 8004f46:	2101      	movs	r1, #1
 8004f48:	430a      	orrs	r2, r1
 8004f4a:	651a      	str	r2, [r3, #80]	; 0x50

      /* Get Start Tick */
      tickstart = HAL_GetTick();
 8004f4c:	f7fe f9e6 	bl	800331c <HAL_GetTick>
 8004f50:	0003      	movs	r3, r0
 8004f52:	617b      	str	r3, [r7, #20]

      /* Wait till LSI is ready */
      while(__HAL_RCC_GET_FLAG(RCC_FLAG_LSIRDY) == 0U)
 8004f54:	e008      	b.n	8004f68 <HAL_RCC_OscConfig+0x3fc>
      {
        if((HAL_GetTick() - tickstart ) > LSI_TIMEOUT_VALUE)
 8004f56:	f7fe f9e1 	bl	800331c <HAL_GetTick>
 8004f5a:	0002      	movs	r2, r0
 8004f5c:	697b      	ldr	r3, [r7, #20]
 8004f5e:	1ad3      	subs	r3, r2, r3
 8004f60:	2b02      	cmp	r3, #2
 8004f62:	d901      	bls.n	8004f68 <HAL_RCC_OscConfig+0x3fc>
        {
          return HAL_TIMEOUT;
 8004f64:	2303      	movs	r3, #3
 8004f66:	e177      	b.n	8005258 <HAL_RCC_OscConfig+0x6ec>
      while(__HAL_RCC_GET_FLAG(RCC_FLAG_LSIRDY) == 0U)
 8004f68:	4ba0      	ldr	r3, [pc, #640]	; (80051ec <HAL_RCC_OscConfig+0x680>)
 8004f6a:	6d1b      	ldr	r3, [r3, #80]	; 0x50
 8004f6c:	2202      	movs	r2, #2
 8004f6e:	4013      	ands	r3, r2
 8004f70:	d0f1      	beq.n	8004f56 <HAL_RCC_OscConfig+0x3ea>
 8004f72:	e018      	b.n	8004fa6 <HAL_RCC_OscConfig+0x43a>
      }
    }
    else
    {
      /* Disable the Internal Low Speed oscillator (LSI). */
      __HAL_RCC_LSI_DISABLE();
 8004f74:	4b9d      	ldr	r3, [pc, #628]	; (80051ec <HAL_RCC_OscConfig+0x680>)
 8004f76:	6d1a      	ldr	r2, [r3, #80]	; 0x50
 8004f78:	4b9c      	ldr	r3, [pc, #624]	; (80051ec <HAL_RCC_OscConfig+0x680>)
 8004f7a:	2101      	movs	r1, #1
 8004f7c:	438a      	bics	r2, r1
 8004f7e:	651a      	str	r2, [r3, #80]	; 0x50

      /* Get Start Tick */
      tickstart = HAL_GetTick();
 8004f80:	f7fe f9cc 	bl	800331c <HAL_GetTick>
 8004f84:	0003      	movs	r3, r0
 8004f86:	617b      	str	r3, [r7, #20]

      /* Wait till LSI is disabled */
      while(__HAL_RCC_GET_FLAG(RCC_FLAG_LSIRDY) != 0U)
 8004f88:	e008      	b.n	8004f9c <HAL_RCC_OscConfig+0x430>
      {
        if((HAL_GetTick() - tickstart ) > LSI_TIMEOUT_VALUE)
 8004f8a:	f7fe f9c7 	bl	800331c <HAL_GetTick>
 8004f8e:	0002      	movs	r2, r0
 8004f90:	697b      	ldr	r3, [r7, #20]
 8004f92:	1ad3      	subs	r3, r2, r3
 8004f94:	2b02      	cmp	r3, #2
 8004f96:	d901      	bls.n	8004f9c <HAL_RCC_OscConfig+0x430>
        {
          return HAL_TIMEOUT;
 8004f98:	2303      	movs	r3, #3
 8004f9a:	e15d      	b.n	8005258 <HAL_RCC_OscConfig+0x6ec>
      while(__HAL_RCC_GET_FLAG(RCC_FLAG_LSIRDY) != 0U)
 8004f9c:	4b93      	ldr	r3, [pc, #588]	; (80051ec <HAL_RCC_OscConfig+0x680>)
 8004f9e:	6d1b      	ldr	r3, [r3, #80]	; 0x50
 8004fa0:	2202      	movs	r2, #2
 8004fa2:	4013      	ands	r3, r2
 8004fa4:	d1f1      	bne.n	8004f8a <HAL_RCC_OscConfig+0x41e>
        }
      }
    }
  }
  /*------------------------------ LSE Configuration -------------------------*/
  if(((RCC_OscInitStruct->OscillatorType) & RCC_OSCILLATORTYPE_LSE) == RCC_OSCILLATORTYPE_LSE)
 8004fa6:	687b      	ldr	r3, [r7, #4]
 8004fa8:	681b      	ldr	r3, [r3, #0]
 8004faa:	2204      	movs	r2, #4
 8004fac:	4013      	ands	r3, r2
 8004fae:	d100      	bne.n	8004fb2 <HAL_RCC_OscConfig+0x446>
 8004fb0:	e0ae      	b.n	8005110 <HAL_RCC_OscConfig+0x5a4>
  {
    FlagStatus       pwrclkchanged = RESET;
 8004fb2:	2023      	movs	r0, #35	; 0x23
 8004fb4:	183b      	adds	r3, r7, r0
 8004fb6:	2200      	movs	r2, #0
 8004fb8:	701a      	strb	r2, [r3, #0]
    /* Check the parameters */
    assert_param(IS_RCC_LSE(RCC_OscInitStruct->LSEState));

    /* Update LSE configuration in Backup Domain control register    */
    /* Requires to enable write access to Backup Domain of necessary */
    if(__HAL_RCC_PWR_IS_CLK_DISABLED())
 8004fba:	4b8c      	ldr	r3, [pc, #560]	; (80051ec <HAL_RCC_OscConfig+0x680>)
 8004fbc:	6b9a      	ldr	r2, [r3, #56]	; 0x38
 8004fbe:	2380      	movs	r3, #128	; 0x80
 8004fc0:	055b      	lsls	r3, r3, #21
 8004fc2:	4013      	ands	r3, r2
 8004fc4:	d109      	bne.n	8004fda <HAL_RCC_OscConfig+0x46e>
    {
      __HAL_RCC_PWR_CLK_ENABLE();
 8004fc6:	4b89      	ldr	r3, [pc, #548]	; (80051ec <HAL_RCC_OscConfig+0x680>)
 8004fc8:	6b9a      	ldr	r2, [r3, #56]	; 0x38
 8004fca:	4b88      	ldr	r3, [pc, #544]	; (80051ec <HAL_RCC_OscConfig+0x680>)
 8004fcc:	2180      	movs	r1, #128	; 0x80
 8004fce:	0549      	lsls	r1, r1, #21
 8004fd0:	430a      	orrs	r2, r1
 8004fd2:	639a      	str	r2, [r3, #56]	; 0x38
      pwrclkchanged = SET;
 8004fd4:	183b      	adds	r3, r7, r0
 8004fd6:	2201      	movs	r2, #1
 8004fd8:	701a      	strb	r2, [r3, #0]
    }

    if(HAL_IS_BIT_CLR(PWR->CR, PWR_CR_DBP))
 8004fda:	4b87      	ldr	r3, [pc, #540]	; (80051f8 <HAL_RCC_OscConfig+0x68c>)
 8004fdc:	681a      	ldr	r2, [r3, #0]
 8004fde:	2380      	movs	r3, #128	; 0x80
 8004fe0:	005b      	lsls	r3, r3, #1
 8004fe2:	4013      	ands	r3, r2
 8004fe4:	d11a      	bne.n	800501c <HAL_RCC_OscConfig+0x4b0>
    {
      /* Enable write access to Backup domain */
      SET_BIT(PWR->CR, PWR_CR_DBP);
 8004fe6:	4b84      	ldr	r3, [pc, #528]	; (80051f8 <HAL_RCC_OscConfig+0x68c>)
 8004fe8:	681a      	ldr	r2, [r3, #0]
 8004fea:	4b83      	ldr	r3, [pc, #524]	; (80051f8 <HAL_RCC_OscConfig+0x68c>)
 8004fec:	2180      	movs	r1, #128	; 0x80
 8004fee:	0049      	lsls	r1, r1, #1
 8004ff0:	430a      	orrs	r2, r1
 8004ff2:	601a      	str	r2, [r3, #0]

      /* Wait for Backup domain Write protection disable */
      tickstart = HAL_GetTick();
 8004ff4:	f7fe f992 	bl	800331c <HAL_GetTick>
 8004ff8:	0003      	movs	r3, r0
 8004ffa:	617b      	str	r3, [r7, #20]

      while(HAL_IS_BIT_CLR(PWR->CR, PWR_CR_DBP))
 8004ffc:	e008      	b.n	8005010 <HAL_RCC_OscConfig+0x4a4>
      {
        if((HAL_GetTick() - tickstart) > RCC_DBP_TIMEOUT_VALUE)
 8004ffe:	f7fe f98d 	bl	800331c <HAL_GetTick>
 8005002:	0002      	movs	r2, r0
 8005004:	697b      	ldr	r3, [r7, #20]
 8005006:	1ad3      	subs	r3, r2, r3
 8005008:	2b64      	cmp	r3, #100	; 0x64
 800500a:	d901      	bls.n	8005010 <HAL_RCC_OscConfig+0x4a4>
        {
          return HAL_TIMEOUT;
 800500c:	2303      	movs	r3, #3
 800500e:	e123      	b.n	8005258 <HAL_RCC_OscConfig+0x6ec>
      while(HAL_IS_BIT_CLR(PWR->CR, PWR_CR_DBP))
 8005010:	4b79      	ldr	r3, [pc, #484]	; (80051f8 <HAL_RCC_OscConfig+0x68c>)
 8005012:	681a      	ldr	r2, [r3, #0]
 8005014:	2380      	movs	r3, #128	; 0x80
 8005016:	005b      	lsls	r3, r3, #1
 8005018:	4013      	ands	r3, r2
 800501a:	d0f0      	beq.n	8004ffe <HAL_RCC_OscConfig+0x492>
        }
      }
    }

    /* Set the new LSE configuration -----------------------------------------*/
    __HAL_RCC_LSE_CONFIG(RCC_OscInitStruct->LSEState);
 800501c:	687b      	ldr	r3, [r7, #4]
 800501e:	689a      	ldr	r2, [r3, #8]
 8005020:	2380      	movs	r3, #128	; 0x80
 8005022:	005b      	lsls	r3, r3, #1
 8005024:	429a      	cmp	r2, r3
 8005026:	d107      	bne.n	8005038 <HAL_RCC_OscConfig+0x4cc>
 8005028:	4b70      	ldr	r3, [pc, #448]	; (80051ec <HAL_RCC_OscConfig+0x680>)
 800502a:	6d1a      	ldr	r2, [r3, #80]	; 0x50
 800502c:	4b6f      	ldr	r3, [pc, #444]	; (80051ec <HAL_RCC_OscConfig+0x680>)
 800502e:	2180      	movs	r1, #128	; 0x80
 8005030:	0049      	lsls	r1, r1, #1
 8005032:	430a      	orrs	r2, r1
 8005034:	651a      	str	r2, [r3, #80]	; 0x50
 8005036:	e031      	b.n	800509c <HAL_RCC_OscConfig+0x530>
 8005038:	687b      	ldr	r3, [r7, #4]
 800503a:	689b      	ldr	r3, [r3, #8]
 800503c:	2b00      	cmp	r3, #0
 800503e:	d10c      	bne.n	800505a <HAL_RCC_OscConfig+0x4ee>
 8005040:	4b6a      	ldr	r3, [pc, #424]	; (80051ec <HAL_RCC_OscConfig+0x680>)
 8005042:	6d1a      	ldr	r2, [r3, #80]	; 0x50
 8005044:	4b69      	ldr	r3, [pc, #420]	; (80051ec <HAL_RCC_OscConfig+0x680>)
 8005046:	496b      	ldr	r1, [pc, #428]	; (80051f4 <HAL_RCC_OscConfig+0x688>)
 8005048:	400a      	ands	r2, r1
 800504a:	651a      	str	r2, [r3, #80]	; 0x50
 800504c:	4b67      	ldr	r3, [pc, #412]	; (80051ec <HAL_RCC_OscConfig+0x680>)
 800504e:	6d1a      	ldr	r2, [r3, #80]	; 0x50
 8005050:	4b66      	ldr	r3, [pc, #408]	; (80051ec <HAL_RCC_OscConfig+0x680>)
 8005052:	496a      	ldr	r1, [pc, #424]	; (80051fc <HAL_RCC_OscConfig+0x690>)
 8005054:	400a      	ands	r2, r1
 8005056:	651a      	str	r2, [r3, #80]	; 0x50
 8005058:	e020      	b.n	800509c <HAL_RCC_OscConfig+0x530>
 800505a:	687b      	ldr	r3, [r7, #4]
 800505c:	689a      	ldr	r2, [r3, #8]
 800505e:	23a0      	movs	r3, #160	; 0xa0
 8005060:	00db      	lsls	r3, r3, #3
 8005062:	429a      	cmp	r2, r3
 8005064:	d10e      	bne.n	8005084 <HAL_RCC_OscConfig+0x518>
 8005066:	4b61      	ldr	r3, [pc, #388]	; (80051ec <HAL_RCC_OscConfig+0x680>)
 8005068:	6d1a      	ldr	r2, [r3, #80]	; 0x50
 800506a:	4b60      	ldr	r3, [pc, #384]	; (80051ec <HAL_RCC_OscConfig+0x680>)
 800506c:	2180      	movs	r1, #128	; 0x80
 800506e:	00c9      	lsls	r1, r1, #3
 8005070:	430a      	orrs	r2, r1
 8005072:	651a      	str	r2, [r3, #80]	; 0x50
 8005074:	4b5d      	ldr	r3, [pc, #372]	; (80051ec <HAL_RCC_OscConfig+0x680>)
 8005076:	6d1a      	ldr	r2, [r3, #80]	; 0x50
 8005078:	4b5c      	ldr	r3, [pc, #368]	; (80051ec <HAL_RCC_OscConfig+0x680>)
 800507a:	2180      	movs	r1, #128	; 0x80
 800507c:	0049      	lsls	r1, r1, #1
 800507e:	430a      	orrs	r2, r1
 8005080:	651a      	str	r2, [r3, #80]	; 0x50
 8005082:	e00b      	b.n	800509c <HAL_RCC_OscConfig+0x530>
 8005084:	4b59      	ldr	r3, [pc, #356]	; (80051ec <HAL_RCC_OscConfig+0x680>)
 8005086:	6d1a      	ldr	r2, [r3, #80]	; 0x50
 8005088:	4b58      	ldr	r3, [pc, #352]	; (80051ec <HAL_RCC_OscConfig+0x680>)
 800508a:	495a      	ldr	r1, [pc, #360]	; (80051f4 <HAL_RCC_OscConfig+0x688>)
 800508c:	400a      	ands	r2, r1
 800508e:	651a      	str	r2, [r3, #80]	; 0x50
 8005090:	4b56      	ldr	r3, [pc, #344]	; (80051ec <HAL_RCC_OscConfig+0x680>)
 8005092:	6d1a      	ldr	r2, [r3, #80]	; 0x50
 8005094:	4b55      	ldr	r3, [pc, #340]	; (80051ec <HAL_RCC_OscConfig+0x680>)
 8005096:	4959      	ldr	r1, [pc, #356]	; (80051fc <HAL_RCC_OscConfig+0x690>)
 8005098:	400a      	ands	r2, r1
 800509a:	651a      	str	r2, [r3, #80]	; 0x50

    /* Check the LSE State */
    if(RCC_OscInitStruct->LSEState != RCC_LSE_OFF)
 800509c:	687b      	ldr	r3, [r7, #4]
 800509e:	689b      	ldr	r3, [r3, #8]
 80050a0:	2b00      	cmp	r3, #0
 80050a2:	d015      	beq.n	80050d0 <HAL_RCC_OscConfig+0x564>
    {
      /* Get Start Tick */
      tickstart = HAL_GetTick();
 80050a4:	f7fe f93a 	bl	800331c <HAL_GetTick>
 80050a8:	0003      	movs	r3, r0
 80050aa:	617b      	str	r3, [r7, #20]

      /* Wait till LSE is ready */
      while(__HAL_RCC_GET_FLAG(RCC_FLAG_LSERDY) == 0U)
 80050ac:	e009      	b.n	80050c2 <HAL_RCC_OscConfig+0x556>
      {
        if((HAL_GetTick() - tickstart ) > RCC_LSE_TIMEOUT_VALUE)
 80050ae:	f7fe f935 	bl	800331c <HAL_GetTick>
 80050b2:	0002      	movs	r2, r0
 80050b4:	697b      	ldr	r3, [r7, #20]
 80050b6:	1ad3      	subs	r3, r2, r3
 80050b8:	4a51      	ldr	r2, [pc, #324]	; (8005200 <HAL_RCC_OscConfig+0x694>)
 80050ba:	4293      	cmp	r3, r2
 80050bc:	d901      	bls.n	80050c2 <HAL_RCC_OscConfig+0x556>
        {
          return HAL_TIMEOUT;
 80050be:	2303      	movs	r3, #3
 80050c0:	e0ca      	b.n	8005258 <HAL_RCC_OscConfig+0x6ec>
      while(__HAL_RCC_GET_FLAG(RCC_FLAG_LSERDY) == 0U)
 80050c2:	4b4a      	ldr	r3, [pc, #296]	; (80051ec <HAL_RCC_OscConfig+0x680>)
 80050c4:	6d1a      	ldr	r2, [r3, #80]	; 0x50
 80050c6:	2380      	movs	r3, #128	; 0x80
 80050c8:	009b      	lsls	r3, r3, #2
 80050ca:	4013      	ands	r3, r2
 80050cc:	d0ef      	beq.n	80050ae <HAL_RCC_OscConfig+0x542>
 80050ce:	e014      	b.n	80050fa <HAL_RCC_OscConfig+0x58e>
      }
    }
    else
    {
      /* Get Start Tick */
      tickstart = HAL_GetTick();
 80050d0:	f7fe f924 	bl	800331c <HAL_GetTick>
 80050d4:	0003      	movs	r3, r0
 80050d6:	617b      	str	r3, [r7, #20]

      /* Wait till LSE is disabled */
      while(__HAL_RCC_GET_FLAG(RCC_FLAG_LSERDY) != 0U)
 80050d8:	e009      	b.n	80050ee <HAL_RCC_OscConfig+0x582>
      {
        if((HAL_GetTick() - tickstart ) > RCC_LSE_TIMEOUT_VALUE)
 80050da:	f7fe f91f 	bl	800331c <HAL_GetTick>
 80050de:	0002      	movs	r2, r0
 80050e0:	697b      	ldr	r3, [r7, #20]
 80050e2:	1ad3      	subs	r3, r2, r3
 80050e4:	4a46      	ldr	r2, [pc, #280]	; (8005200 <HAL_RCC_OscConfig+0x694>)
 80050e6:	4293      	cmp	r3, r2
 80050e8:	d901      	bls.n	80050ee <HAL_RCC_OscConfig+0x582>
        {
          return HAL_TIMEOUT;
 80050ea:	2303      	movs	r3, #3
 80050ec:	e0b4      	b.n	8005258 <HAL_RCC_OscConfig+0x6ec>
      while(__HAL_RCC_GET_FLAG(RCC_FLAG_LSERDY) != 0U)
 80050ee:	4b3f      	ldr	r3, [pc, #252]	; (80051ec <HAL_RCC_OscConfig+0x680>)
 80050f0:	6d1a      	ldr	r2, [r3, #80]	; 0x50
 80050f2:	2380      	movs	r3, #128	; 0x80
 80050f4:	009b      	lsls	r3, r3, #2
 80050f6:	4013      	ands	r3, r2
 80050f8:	d1ef      	bne.n	80050da <HAL_RCC_OscConfig+0x56e>
        }
      }
    }

    /* Require to disable power clock if necessary */
    if(pwrclkchanged == SET)
 80050fa:	2323      	movs	r3, #35	; 0x23
 80050fc:	18fb      	adds	r3, r7, r3
 80050fe:	781b      	ldrb	r3, [r3, #0]
 8005100:	2b01      	cmp	r3, #1
 8005102:	d105      	bne.n	8005110 <HAL_RCC_OscConfig+0x5a4>
    {
      __HAL_RCC_PWR_CLK_DISABLE();
 8005104:	4b39      	ldr	r3, [pc, #228]	; (80051ec <HAL_RCC_OscConfig+0x680>)
 8005106:	6b9a      	ldr	r2, [r3, #56]	; 0x38
 8005108:	4b38      	ldr	r3, [pc, #224]	; (80051ec <HAL_RCC_OscConfig+0x680>)
 800510a:	493e      	ldr	r1, [pc, #248]	; (8005204 <HAL_RCC_OscConfig+0x698>)
 800510c:	400a      	ands	r2, r1
 800510e:	639a      	str	r2, [r3, #56]	; 0x38
#endif /* RCC_HSI48_SUPPORT */

  /*-------------------------------- PLL Configuration -----------------------*/
  /* Check the parameters */
  assert_param(IS_RCC_PLL(RCC_OscInitStruct->PLL.PLLState));
  if ((RCC_OscInitStruct->PLL.PLLState) != RCC_PLL_NONE)
 8005110:	687b      	ldr	r3, [r7, #4]
 8005112:	6a5b      	ldr	r3, [r3, #36]	; 0x24
 8005114:	2b00      	cmp	r3, #0
 8005116:	d100      	bne.n	800511a <HAL_RCC_OscConfig+0x5ae>
 8005118:	e09d      	b.n	8005256 <HAL_RCC_OscConfig+0x6ea>
  {
    /* Check if the PLL is used as system clock or not */
    if(sysclk_source != RCC_SYSCLKSOURCE_STATUS_PLLCLK)
 800511a:	69fb      	ldr	r3, [r7, #28]
 800511c:	2b0c      	cmp	r3, #12
 800511e:	d100      	bne.n	8005122 <HAL_RCC_OscConfig+0x5b6>
 8005120:	e076      	b.n	8005210 <HAL_RCC_OscConfig+0x6a4>
    {
      if((RCC_OscInitStruct->PLL.PLLState) == RCC_PLL_ON)
 8005122:	687b      	ldr	r3, [r7, #4]
 8005124:	6a5b      	ldr	r3, [r3, #36]	; 0x24
 8005126:	2b02      	cmp	r3, #2
 8005128:	d145      	bne.n	80051b6 <HAL_RCC_OscConfig+0x64a>
        assert_param(IS_RCC_PLLSOURCE(RCC_OscInitStruct->PLL.PLLSource));
        assert_param(IS_RCC_PLL_MUL(RCC_OscInitStruct->PLL.PLLMUL));
        assert_param(IS_RCC_PLL_DIV(RCC_OscInitStruct->PLL.PLLDIV));

        /* Disable the main PLL. */
        __HAL_RCC_PLL_DISABLE();
 800512a:	4b30      	ldr	r3, [pc, #192]	; (80051ec <HAL_RCC_OscConfig+0x680>)
 800512c:	681a      	ldr	r2, [r3, #0]
 800512e:	4b2f      	ldr	r3, [pc, #188]	; (80051ec <HAL_RCC_OscConfig+0x680>)
 8005130:	4935      	ldr	r1, [pc, #212]	; (8005208 <HAL_RCC_OscConfig+0x69c>)
 8005132:	400a      	ands	r2, r1
 8005134:	601a      	str	r2, [r3, #0]

        /* Get Start Tick */
        tickstart = HAL_GetTick();
 8005136:	f7fe f8f1 	bl	800331c <HAL_GetTick>
 800513a:	0003      	movs	r3, r0
 800513c:	617b      	str	r3, [r7, #20]

        /* Wait till PLL is ready */
        while(__HAL_RCC_GET_FLAG(RCC_FLAG_PLLRDY)  != 0U)
 800513e:	e008      	b.n	8005152 <HAL_RCC_OscConfig+0x5e6>
        {
          if((HAL_GetTick() - tickstart ) > PLL_TIMEOUT_VALUE)
 8005140:	f7fe f8ec 	bl	800331c <HAL_GetTick>
 8005144:	0002      	movs	r2, r0
 8005146:	697b      	ldr	r3, [r7, #20]
 8005148:	1ad3      	subs	r3, r2, r3
 800514a:	2b02      	cmp	r3, #2
 800514c:	d901      	bls.n	8005152 <HAL_RCC_OscConfig+0x5e6>
          {
            return HAL_TIMEOUT;
 800514e:	2303      	movs	r3, #3
 8005150:	e082      	b.n	8005258 <HAL_RCC_OscConfig+0x6ec>
        while(__HAL_RCC_GET_FLAG(RCC_FLAG_PLLRDY)  != 0U)
 8005152:	4b26      	ldr	r3, [pc, #152]	; (80051ec <HAL_RCC_OscConfig+0x680>)
 8005154:	681a      	ldr	r2, [r3, #0]
 8005156:	2380      	movs	r3, #128	; 0x80
 8005158:	049b      	lsls	r3, r3, #18
 800515a:	4013      	ands	r3, r2
 800515c:	d1f0      	bne.n	8005140 <HAL_RCC_OscConfig+0x5d4>
          }
        }

        /* Configure the main PLL clock source, multiplication and division factors. */
        __HAL_RCC_PLL_CONFIG(RCC_OscInitStruct->PLL.PLLSource,
 800515e:	4b23      	ldr	r3, [pc, #140]	; (80051ec <HAL_RCC_OscConfig+0x680>)
 8005160:	68db      	ldr	r3, [r3, #12]
 8005162:	4a2a      	ldr	r2, [pc, #168]	; (800520c <HAL_RCC_OscConfig+0x6a0>)
 8005164:	4013      	ands	r3, r2
 8005166:	0019      	movs	r1, r3
 8005168:	687b      	ldr	r3, [r7, #4]
 800516a:	6a9a      	ldr	r2, [r3, #40]	; 0x28
 800516c:	687b      	ldr	r3, [r7, #4]
 800516e:	6adb      	ldr	r3, [r3, #44]	; 0x2c
 8005170:	431a      	orrs	r2, r3
 8005172:	687b      	ldr	r3, [r7, #4]
 8005174:	6b1b      	ldr	r3, [r3, #48]	; 0x30
 8005176:	431a      	orrs	r2, r3
 8005178:	4b1c      	ldr	r3, [pc, #112]	; (80051ec <HAL_RCC_OscConfig+0x680>)
 800517a:	430a      	orrs	r2, r1
 800517c:	60da      	str	r2, [r3, #12]
                             RCC_OscInitStruct->PLL.PLLMUL,
                             RCC_OscInitStruct->PLL.PLLDIV);
        /* Enable the main PLL. */
        __HAL_RCC_PLL_ENABLE();
 800517e:	4b1b      	ldr	r3, [pc, #108]	; (80051ec <HAL_RCC_OscConfig+0x680>)
 8005180:	681a      	ldr	r2, [r3, #0]
 8005182:	4b1a      	ldr	r3, [pc, #104]	; (80051ec <HAL_RCC_OscConfig+0x680>)
 8005184:	2180      	movs	r1, #128	; 0x80
 8005186:	0449      	lsls	r1, r1, #17
 8005188:	430a      	orrs	r2, r1
 800518a:	601a      	str	r2, [r3, #0]

        /* Get Start Tick */
        tickstart = HAL_GetTick();
 800518c:	f7fe f8c6 	bl	800331c <HAL_GetTick>
 8005190:	0003      	movs	r3, r0
 8005192:	617b      	str	r3, [r7, #20]

        /* Wait till PLL is ready */
        while(__HAL_RCC_GET_FLAG(RCC_FLAG_PLLRDY)  == 0U)
 8005194:	e008      	b.n	80051a8 <HAL_RCC_OscConfig+0x63c>
        {
          if((HAL_GetTick() - tickstart ) > PLL_TIMEOUT_VALUE)
 8005196:	f7fe f8c1 	bl	800331c <HAL_GetTick>
 800519a:	0002      	movs	r2, r0
 800519c:	697b      	ldr	r3, [r7, #20]
 800519e:	1ad3      	subs	r3, r2, r3
 80051a0:	2b02      	cmp	r3, #2
 80051a2:	d901      	bls.n	80051a8 <HAL_RCC_OscConfig+0x63c>
          {
            return HAL_TIMEOUT;
 80051a4:	2303      	movs	r3, #3
 80051a6:	e057      	b.n	8005258 <HAL_RCC_OscConfig+0x6ec>
        while(__HAL_RCC_GET_FLAG(RCC_FLAG_PLLRDY)  == 0U)
 80051a8:	4b10      	ldr	r3, [pc, #64]	; (80051ec <HAL_RCC_OscConfig+0x680>)
 80051aa:	681a      	ldr	r2, [r3, #0]
 80051ac:	2380      	movs	r3, #128	; 0x80
 80051ae:	049b      	lsls	r3, r3, #18
 80051b0:	4013      	ands	r3, r2
 80051b2:	d0f0      	beq.n	8005196 <HAL_RCC_OscConfig+0x62a>
 80051b4:	e04f      	b.n	8005256 <HAL_RCC_OscConfig+0x6ea>
        }
      }
      else
      {
        /* Disable the main PLL. */
        __HAL_RCC_PLL_DISABLE();
 80051b6:	4b0d      	ldr	r3, [pc, #52]	; (80051ec <HAL_RCC_OscConfig+0x680>)
 80051b8:	681a      	ldr	r2, [r3, #0]
 80051ba:	4b0c      	ldr	r3, [pc, #48]	; (80051ec <HAL_RCC_OscConfig+0x680>)
 80051bc:	4912      	ldr	r1, [pc, #72]	; (8005208 <HAL_RCC_OscConfig+0x69c>)
 80051be:	400a      	ands	r2, r1
 80051c0:	601a      	str	r2, [r3, #0]

        /* Get Start Tick */
        tickstart = HAL_GetTick();
 80051c2:	f7fe f8ab 	bl	800331c <HAL_GetTick>
 80051c6:	0003      	movs	r3, r0
 80051c8:	617b      	str	r3, [r7, #20]

        /* Wait till PLL is disabled */
        while(__HAL_RCC_GET_FLAG(RCC_FLAG_PLLRDY)  != 0U)
 80051ca:	e008      	b.n	80051de <HAL_RCC_OscConfig+0x672>
        {
          if((HAL_GetTick() - tickstart ) > PLL_TIMEOUT_VALUE)
 80051cc:	f7fe f8a6 	bl	800331c <HAL_GetTick>
 80051d0:	0002      	movs	r2, r0
 80051d2:	697b      	ldr	r3, [r7, #20]
 80051d4:	1ad3      	subs	r3, r2, r3
 80051d6:	2b02      	cmp	r3, #2
 80051d8:	d901      	bls.n	80051de <HAL_RCC_OscConfig+0x672>
          {
            return HAL_TIMEOUT;
 80051da:	2303      	movs	r3, #3
 80051dc:	e03c      	b.n	8005258 <HAL_RCC_OscConfig+0x6ec>
        while(__HAL_RCC_GET_FLAG(RCC_FLAG_PLLRDY)  != 0U)
 80051de:	4b03      	ldr	r3, [pc, #12]	; (80051ec <HAL_RCC_OscConfig+0x680>)
 80051e0:	681a      	ldr	r2, [r3, #0]
 80051e2:	2380      	movs	r3, #128	; 0x80
 80051e4:	049b      	lsls	r3, r3, #18
 80051e6:	4013      	ands	r3, r2
 80051e8:	d1f0      	bne.n	80051cc <HAL_RCC_OscConfig+0x660>
 80051ea:	e034      	b.n	8005256 <HAL_RCC_OscConfig+0x6ea>
 80051ec:	40021000 	.word	0x40021000
 80051f0:	ffff1fff 	.word	0xffff1fff
 80051f4:	fffffeff 	.word	0xfffffeff
 80051f8:	40007000 	.word	0x40007000
 80051fc:	fffffbff 	.word	0xfffffbff
 8005200:	00001388 	.word	0x00001388
 8005204:	efffffff 	.word	0xefffffff
 8005208:	feffffff 	.word	0xfeffffff
 800520c:	ff02ffff 	.word	0xff02ffff
      }
    }
    else
    {
      /* Check if there is a request to disable the PLL used as System clock source */
      if((RCC_OscInitStruct->PLL.PLLState) == RCC_PLL_OFF)
 8005210:	687b      	ldr	r3, [r7, #4]
 8005212:	6a5b      	ldr	r3, [r3, #36]	; 0x24
 8005214:	2b01      	cmp	r3, #1
 8005216:	d101      	bne.n	800521c <HAL_RCC_OscConfig+0x6b0>
      {
        return HAL_ERROR;
 8005218:	2301      	movs	r3, #1
 800521a:	e01d      	b.n	8005258 <HAL_RCC_OscConfig+0x6ec>
      }
      else
      {
        /* Do not return HAL_ERROR if request repeats the current configuration */
        pll_config = RCC->CFGR;
 800521c:	4b10      	ldr	r3, [pc, #64]	; (8005260 <HAL_RCC_OscConfig+0x6f4>)
 800521e:	68db      	ldr	r3, [r3, #12]
 8005220:	61bb      	str	r3, [r7, #24]
        if((READ_BIT(pll_config, RCC_CFGR_PLLSRC) != RCC_OscInitStruct->PLL.PLLSource) ||
 8005222:	69ba      	ldr	r2, [r7, #24]
 8005224:	2380      	movs	r3, #128	; 0x80
 8005226:	025b      	lsls	r3, r3, #9
 8005228:	401a      	ands	r2, r3
 800522a:	687b      	ldr	r3, [r7, #4]
 800522c:	6a9b      	ldr	r3, [r3, #40]	; 0x28
 800522e:	429a      	cmp	r2, r3
 8005230:	d10f      	bne.n	8005252 <HAL_RCC_OscConfig+0x6e6>
           (READ_BIT(pll_config, RCC_CFGR_PLLMUL) != RCC_OscInitStruct->PLL.PLLMUL) ||
 8005232:	69ba      	ldr	r2, [r7, #24]
 8005234:	23f0      	movs	r3, #240	; 0xf0
 8005236:	039b      	lsls	r3, r3, #14
 8005238:	401a      	ands	r2, r3
 800523a:	687b      	ldr	r3, [r7, #4]
 800523c:	6adb      	ldr	r3, [r3, #44]	; 0x2c
        if((READ_BIT(pll_config, RCC_CFGR_PLLSRC) != RCC_OscInitStruct->PLL.PLLSource) ||
 800523e:	429a      	cmp	r2, r3
 8005240:	d107      	bne.n	8005252 <HAL_RCC_OscConfig+0x6e6>
           (READ_BIT(pll_config, RCC_CFGR_PLLDIV) != RCC_OscInitStruct->PLL.PLLDIV))
 8005242:	69ba      	ldr	r2, [r7, #24]
 8005244:	23c0      	movs	r3, #192	; 0xc0
 8005246:	041b      	lsls	r3, r3, #16
 8005248:	401a      	ands	r2, r3
 800524a:	687b      	ldr	r3, [r7, #4]
 800524c:	6b1b      	ldr	r3, [r3, #48]	; 0x30
           (READ_BIT(pll_config, RCC_CFGR_PLLMUL) != RCC_OscInitStruct->PLL.PLLMUL) ||
 800524e:	429a      	cmp	r2, r3
 8005250:	d001      	beq.n	8005256 <HAL_RCC_OscConfig+0x6ea>
        {
          return HAL_ERROR;
 8005252:	2301      	movs	r3, #1
 8005254:	e000      	b.n	8005258 <HAL_RCC_OscConfig+0x6ec>
        }
      }
    }
  }
  return HAL_OK;
 8005256:	2300      	movs	r3, #0
}
 8005258:	0018      	movs	r0, r3
 800525a:	46bd      	mov	sp, r7
 800525c:	b00a      	add	sp, #40	; 0x28
 800525e:	bdb0      	pop	{r4, r5, r7, pc}
 8005260:	40021000 	.word	0x40021000

08005264 <HAL_RCC_ClockConfig>:
  *         HPRE[3:0] bits to ensure that HCLK not exceed the maximum allowed frequency
  *         (for more details refer to section above "Initialization/de-initialization functions")
  * @retval HAL status
  */
HAL_StatusTypeDef HAL_RCC_ClockConfig(RCC_ClkInitTypeDef  *RCC_ClkInitStruct, uint32_t FLatency)
{
 8005264:	b5b0      	push	{r4, r5, r7, lr}
 8005266:	b084      	sub	sp, #16
 8005268:	af00      	add	r7, sp, #0
 800526a:	6078      	str	r0, [r7, #4]
 800526c:	6039      	str	r1, [r7, #0]
  uint32_t tickstart;
  HAL_StatusTypeDef status;

  /* Check Null pointer */
  if(RCC_ClkInitStruct == NULL)
 800526e:	687b      	ldr	r3, [r7, #4]
 8005270:	2b00      	cmp	r3, #0
 8005272:	d101      	bne.n	8005278 <HAL_RCC_ClockConfig+0x14>
  {
    return HAL_ERROR;
 8005274:	2301      	movs	r3, #1
 8005276:	e128      	b.n	80054ca <HAL_RCC_ClockConfig+0x266>
  /* To correctly read data from FLASH memory, the number of wait states (LATENCY)
  must be correctly programmed according to the frequency of the CPU clock
  (HCLK) and the supply voltage of the device. */

  /* Increasing the number of wait states because of higher CPU frequency */
  if(FLatency > __HAL_FLASH_GET_LATENCY())
 8005278:	4b96      	ldr	r3, [pc, #600]	; (80054d4 <HAL_RCC_ClockConfig+0x270>)
 800527a:	681b      	ldr	r3, [r3, #0]
 800527c:	2201      	movs	r2, #1
 800527e:	4013      	ands	r3, r2
 8005280:	683a      	ldr	r2, [r7, #0]
 8005282:	429a      	cmp	r2, r3
 8005284:	d91e      	bls.n	80052c4 <HAL_RCC_ClockConfig+0x60>
  {
    /* Program the new number of wait states to the LATENCY bits in the FLASH_ACR register */
    __HAL_FLASH_SET_LATENCY(FLatency);
 8005286:	4b93      	ldr	r3, [pc, #588]	; (80054d4 <HAL_RCC_ClockConfig+0x270>)
 8005288:	681b      	ldr	r3, [r3, #0]
 800528a:	2201      	movs	r2, #1
 800528c:	4393      	bics	r3, r2
 800528e:	0019      	movs	r1, r3
 8005290:	4b90      	ldr	r3, [pc, #576]	; (80054d4 <HAL_RCC_ClockConfig+0x270>)
 8005292:	683a      	ldr	r2, [r7, #0]
 8005294:	430a      	orrs	r2, r1
 8005296:	601a      	str	r2, [r3, #0]

    /* Check that the new number of wait states is taken into account to access the Flash
    memory by polling the FLASH_ACR register */
    tickstart = HAL_GetTick();
 8005298:	f7fe f840 	bl	800331c <HAL_GetTick>
 800529c:	0003      	movs	r3, r0
 800529e:	60fb      	str	r3, [r7, #12]

    while (__HAL_FLASH_GET_LATENCY() != FLatency)
 80052a0:	e009      	b.n	80052b6 <HAL_RCC_ClockConfig+0x52>
    {
      if ((HAL_GetTick() - tickstart) > CLOCKSWITCH_TIMEOUT_VALUE)
 80052a2:	f7fe f83b 	bl	800331c <HAL_GetTick>
 80052a6:	0002      	movs	r2, r0
 80052a8:	68fb      	ldr	r3, [r7, #12]
 80052aa:	1ad3      	subs	r3, r2, r3
 80052ac:	4a8a      	ldr	r2, [pc, #552]	; (80054d8 <HAL_RCC_ClockConfig+0x274>)
 80052ae:	4293      	cmp	r3, r2
 80052b0:	d901      	bls.n	80052b6 <HAL_RCC_ClockConfig+0x52>
      {
        return HAL_TIMEOUT;
 80052b2:	2303      	movs	r3, #3
 80052b4:	e109      	b.n	80054ca <HAL_RCC_ClockConfig+0x266>
    while (__HAL_FLASH_GET_LATENCY() != FLatency)
 80052b6:	4b87      	ldr	r3, [pc, #540]	; (80054d4 <HAL_RCC_ClockConfig+0x270>)
 80052b8:	681b      	ldr	r3, [r3, #0]
 80052ba:	2201      	movs	r2, #1
 80052bc:	4013      	ands	r3, r2
 80052be:	683a      	ldr	r2, [r7, #0]
 80052c0:	429a      	cmp	r2, r3
 80052c2:	d1ee      	bne.n	80052a2 <HAL_RCC_ClockConfig+0x3e>
      }
    }
  }

  /*-------------------------- HCLK Configuration --------------------------*/
  if(((RCC_ClkInitStruct->ClockType) & RCC_CLOCKTYPE_HCLK) == RCC_CLOCKTYPE_HCLK)
 80052c4:	687b      	ldr	r3, [r7, #4]
 80052c6:	681b      	ldr	r3, [r3, #0]
 80052c8:	2202      	movs	r2, #2
 80052ca:	4013      	ands	r3, r2
 80052cc:	d009      	beq.n	80052e2 <HAL_RCC_ClockConfig+0x7e>
  {
    assert_param(IS_RCC_HCLK(RCC_ClkInitStruct->AHBCLKDivider));
    MODIFY_REG(RCC->CFGR, RCC_CFGR_HPRE, RCC_ClkInitStruct->AHBCLKDivider);
 80052ce:	4b83      	ldr	r3, [pc, #524]	; (80054dc <HAL_RCC_ClockConfig+0x278>)
 80052d0:	68db      	ldr	r3, [r3, #12]
 80052d2:	22f0      	movs	r2, #240	; 0xf0
 80052d4:	4393      	bics	r3, r2
 80052d6:	0019      	movs	r1, r3
 80052d8:	687b      	ldr	r3, [r7, #4]
 80052da:	689a      	ldr	r2, [r3, #8]
 80052dc:	4b7f      	ldr	r3, [pc, #508]	; (80054dc <HAL_RCC_ClockConfig+0x278>)
 80052de:	430a      	orrs	r2, r1
 80052e0:	60da      	str	r2, [r3, #12]
  }

  /*------------------------- SYSCLK Configuration ---------------------------*/
  if(((RCC_ClkInitStruct->ClockType) & RCC_CLOCKTYPE_SYSCLK) == RCC_CLOCKTYPE_SYSCLK)
 80052e2:	687b      	ldr	r3, [r7, #4]
 80052e4:	681b      	ldr	r3, [r3, #0]
 80052e6:	2201      	movs	r2, #1
 80052e8:	4013      	ands	r3, r2
 80052ea:	d100      	bne.n	80052ee <HAL_RCC_ClockConfig+0x8a>
 80052ec:	e089      	b.n	8005402 <HAL_RCC_ClockConfig+0x19e>
  {
    assert_param(IS_RCC_SYSCLKSOURCE(RCC_ClkInitStruct->SYSCLKSource));

    /* HSE is selected as System Clock Source */
    if(RCC_ClkInitStruct->SYSCLKSource == RCC_SYSCLKSOURCE_HSE)
 80052ee:	687b      	ldr	r3, [r7, #4]
 80052f0:	685b      	ldr	r3, [r3, #4]
 80052f2:	2b02      	cmp	r3, #2
 80052f4:	d107      	bne.n	8005306 <HAL_RCC_ClockConfig+0xa2>
    {
      /* Check the HSE ready flag */
      if(__HAL_RCC_GET_FLAG(RCC_FLAG_HSERDY) == 0U)
 80052f6:	4b79      	ldr	r3, [pc, #484]	; (80054dc <HAL_RCC_ClockConfig+0x278>)
 80052f8:	681a      	ldr	r2, [r3, #0]
 80052fa:	2380      	movs	r3, #128	; 0x80
 80052fc:	029b      	lsls	r3, r3, #10
 80052fe:	4013      	ands	r3, r2
 8005300:	d120      	bne.n	8005344 <HAL_RCC_ClockConfig+0xe0>
      {
        return HAL_ERROR;
 8005302:	2301      	movs	r3, #1
 8005304:	e0e1      	b.n	80054ca <HAL_RCC_ClockConfig+0x266>
      }
    }
    /* PLL is selected as System Clock Source */
    else if(RCC_ClkInitStruct->SYSCLKSource == RCC_SYSCLKSOURCE_PLLCLK)
 8005306:	687b      	ldr	r3, [r7, #4]
 8005308:	685b      	ldr	r3, [r3, #4]
 800530a:	2b03      	cmp	r3, #3
 800530c:	d107      	bne.n	800531e <HAL_RCC_ClockConfig+0xba>
    {
      /* Check the PLL ready flag */
      if(__HAL_RCC_GET_FLAG(RCC_FLAG_PLLRDY) == 0U)
 800530e:	4b73      	ldr	r3, [pc, #460]	; (80054dc <HAL_RCC_ClockConfig+0x278>)
 8005310:	681a      	ldr	r2, [r3, #0]
 8005312:	2380      	movs	r3, #128	; 0x80
 8005314:	049b      	lsls	r3, r3, #18
 8005316:	4013      	ands	r3, r2
 8005318:	d114      	bne.n	8005344 <HAL_RCC_ClockConfig+0xe0>
      {
        return HAL_ERROR;
 800531a:	2301      	movs	r3, #1
 800531c:	e0d5      	b.n	80054ca <HAL_RCC_ClockConfig+0x266>
      }
    }
    /* HSI is selected as System Clock Source */
    else if(RCC_ClkInitStruct->SYSCLKSource == RCC_SYSCLKSOURCE_HSI)
 800531e:	687b      	ldr	r3, [r7, #4]
 8005320:	685b      	ldr	r3, [r3, #4]
 8005322:	2b01      	cmp	r3, #1
 8005324:	d106      	bne.n	8005334 <HAL_RCC_ClockConfig+0xd0>
    {
      /* Check the HSI ready flag */
      if(__HAL_RCC_GET_FLAG(RCC_FLAG_HSIRDY) == 0U)
 8005326:	4b6d      	ldr	r3, [pc, #436]	; (80054dc <HAL_RCC_ClockConfig+0x278>)
 8005328:	681b      	ldr	r3, [r3, #0]
 800532a:	2204      	movs	r2, #4
 800532c:	4013      	ands	r3, r2
 800532e:	d109      	bne.n	8005344 <HAL_RCC_ClockConfig+0xe0>
      {
        return HAL_ERROR;
 8005330:	2301      	movs	r3, #1
 8005332:	e0ca      	b.n	80054ca <HAL_RCC_ClockConfig+0x266>
    }
    /* MSI is selected as System Clock Source */
    else
    {
      /* Check the MSI ready flag */
      if(__HAL_RCC_GET_FLAG(RCC_FLAG_MSIRDY) == 0U)
 8005334:	4b69      	ldr	r3, [pc, #420]	; (80054dc <HAL_RCC_ClockConfig+0x278>)
 8005336:	681a      	ldr	r2, [r3, #0]
 8005338:	2380      	movs	r3, #128	; 0x80
 800533a:	009b      	lsls	r3, r3, #2
 800533c:	4013      	ands	r3, r2
 800533e:	d101      	bne.n	8005344 <HAL_RCC_ClockConfig+0xe0>
      {
        return HAL_ERROR;
 8005340:	2301      	movs	r3, #1
 8005342:	e0c2      	b.n	80054ca <HAL_RCC_ClockConfig+0x266>
      }
    }
    __HAL_RCC_SYSCLK_CONFIG(RCC_ClkInitStruct->SYSCLKSource);
 8005344:	4b65      	ldr	r3, [pc, #404]	; (80054dc <HAL_RCC_ClockConfig+0x278>)
 8005346:	68db      	ldr	r3, [r3, #12]
 8005348:	2203      	movs	r2, #3
 800534a:	4393      	bics	r3, r2
 800534c:	0019      	movs	r1, r3
 800534e:	687b      	ldr	r3, [r7, #4]
 8005350:	685a      	ldr	r2, [r3, #4]
 8005352:	4b62      	ldr	r3, [pc, #392]	; (80054dc <HAL_RCC_ClockConfig+0x278>)
 8005354:	430a      	orrs	r2, r1
 8005356:	60da      	str	r2, [r3, #12]

    /* Get Start Tick */
    tickstart = HAL_GetTick();
 8005358:	f7fd ffe0 	bl	800331c <HAL_GetTick>
 800535c:	0003      	movs	r3, r0
 800535e:	60fb      	str	r3, [r7, #12]

    if(RCC_ClkInitStruct->SYSCLKSource == RCC_SYSCLKSOURCE_HSE)
 8005360:	687b      	ldr	r3, [r7, #4]
 8005362:	685b      	ldr	r3, [r3, #4]
 8005364:	2b02      	cmp	r3, #2
 8005366:	d111      	bne.n	800538c <HAL_RCC_ClockConfig+0x128>
    {
      while (__HAL_RCC_GET_SYSCLK_SOURCE() != RCC_SYSCLKSOURCE_STATUS_HSE)
 8005368:	e009      	b.n	800537e <HAL_RCC_ClockConfig+0x11a>
      {
        if((HAL_GetTick() - tickstart ) > CLOCKSWITCH_TIMEOUT_VALUE)
 800536a:	f7fd ffd7 	bl	800331c <HAL_GetTick>
 800536e:	0002      	movs	r2, r0
 8005370:	68fb      	ldr	r3, [r7, #12]
 8005372:	1ad3      	subs	r3, r2, r3
 8005374:	4a58      	ldr	r2, [pc, #352]	; (80054d8 <HAL_RCC_ClockConfig+0x274>)
 8005376:	4293      	cmp	r3, r2
 8005378:	d901      	bls.n	800537e <HAL_RCC_ClockConfig+0x11a>
        {
          return HAL_TIMEOUT;
 800537a:	2303      	movs	r3, #3
 800537c:	e0a5      	b.n	80054ca <HAL_RCC_ClockConfig+0x266>
      while (__HAL_RCC_GET_SYSCLK_SOURCE() != RCC_SYSCLKSOURCE_STATUS_HSE)
 800537e:	4b57      	ldr	r3, [pc, #348]	; (80054dc <HAL_RCC_ClockConfig+0x278>)
 8005380:	68db      	ldr	r3, [r3, #12]
 8005382:	220c      	movs	r2, #12
 8005384:	4013      	ands	r3, r2
 8005386:	2b08      	cmp	r3, #8
 8005388:	d1ef      	bne.n	800536a <HAL_RCC_ClockConfig+0x106>
 800538a:	e03a      	b.n	8005402 <HAL_RCC_ClockConfig+0x19e>
        }
      }
    }
    else if(RCC_ClkInitStruct->SYSCLKSource == RCC_SYSCLKSOURCE_PLLCLK)
 800538c:	687b      	ldr	r3, [r7, #4]
 800538e:	685b      	ldr	r3, [r3, #4]
 8005390:	2b03      	cmp	r3, #3
 8005392:	d111      	bne.n	80053b8 <HAL_RCC_ClockConfig+0x154>
    {
      while (__HAL_RCC_GET_SYSCLK_SOURCE() != RCC_SYSCLKSOURCE_STATUS_PLLCLK)
 8005394:	e009      	b.n	80053aa <HAL_RCC_ClockConfig+0x146>
      {
        if((HAL_GetTick() - tickstart ) > CLOCKSWITCH_TIMEOUT_VALUE)
 8005396:	f7fd ffc1 	bl	800331c <HAL_GetTick>
 800539a:	0002      	movs	r2, r0
 800539c:	68fb      	ldr	r3, [r7, #12]
 800539e:	1ad3      	subs	r3, r2, r3
 80053a0:	4a4d      	ldr	r2, [pc, #308]	; (80054d8 <HAL_RCC_ClockConfig+0x274>)
 80053a2:	4293      	cmp	r3, r2
 80053a4:	d901      	bls.n	80053aa <HAL_RCC_ClockConfig+0x146>
        {
          return HAL_TIMEOUT;
 80053a6:	2303      	movs	r3, #3
 80053a8:	e08f      	b.n	80054ca <HAL_RCC_ClockConfig+0x266>
      while (__HAL_RCC_GET_SYSCLK_SOURCE() != RCC_SYSCLKSOURCE_STATUS_PLLCLK)
 80053aa:	4b4c      	ldr	r3, [pc, #304]	; (80054dc <HAL_RCC_ClockConfig+0x278>)
 80053ac:	68db      	ldr	r3, [r3, #12]
 80053ae:	220c      	movs	r2, #12
 80053b0:	4013      	ands	r3, r2
 80053b2:	2b0c      	cmp	r3, #12
 80053b4:	d1ef      	bne.n	8005396 <HAL_RCC_ClockConfig+0x132>
 80053b6:	e024      	b.n	8005402 <HAL_RCC_ClockConfig+0x19e>
        }
      }
    }
    else if(RCC_ClkInitStruct->SYSCLKSource == RCC_SYSCLKSOURCE_HSI)
 80053b8:	687b      	ldr	r3, [r7, #4]
 80053ba:	685b      	ldr	r3, [r3, #4]
 80053bc:	2b01      	cmp	r3, #1
 80053be:	d11b      	bne.n	80053f8 <HAL_RCC_ClockConfig+0x194>
    {
      while (__HAL_RCC_GET_SYSCLK_SOURCE() != RCC_SYSCLKSOURCE_STATUS_HSI)
 80053c0:	e009      	b.n	80053d6 <HAL_RCC_ClockConfig+0x172>
      {
        if((HAL_GetTick() - tickstart ) > CLOCKSWITCH_TIMEOUT_VALUE)
 80053c2:	f7fd ffab 	bl	800331c <HAL_GetTick>
 80053c6:	0002      	movs	r2, r0
 80053c8:	68fb      	ldr	r3, [r7, #12]
 80053ca:	1ad3      	subs	r3, r2, r3
 80053cc:	4a42      	ldr	r2, [pc, #264]	; (80054d8 <HAL_RCC_ClockConfig+0x274>)
 80053ce:	4293      	cmp	r3, r2
 80053d0:	d901      	bls.n	80053d6 <HAL_RCC_ClockConfig+0x172>
        {
          return HAL_TIMEOUT;
 80053d2:	2303      	movs	r3, #3
 80053d4:	e079      	b.n	80054ca <HAL_RCC_ClockConfig+0x266>
      while (__HAL_RCC_GET_SYSCLK_SOURCE() != RCC_SYSCLKSOURCE_STATUS_HSI)
 80053d6:	4b41      	ldr	r3, [pc, #260]	; (80054dc <HAL_RCC_ClockConfig+0x278>)
 80053d8:	68db      	ldr	r3, [r3, #12]
 80053da:	220c      	movs	r2, #12
 80053dc:	4013      	ands	r3, r2
 80053de:	2b04      	cmp	r3, #4
 80053e0:	d1ef      	bne.n	80053c2 <HAL_RCC_ClockConfig+0x15e>
 80053e2:	e00e      	b.n	8005402 <HAL_RCC_ClockConfig+0x19e>
    }
    else
    {
      while(__HAL_RCC_GET_SYSCLK_SOURCE() != RCC_SYSCLKSOURCE_STATUS_MSI)
      {
        if((HAL_GetTick() - tickstart ) > CLOCKSWITCH_TIMEOUT_VALUE)
 80053e4:	f7fd ff9a 	bl	800331c <HAL_GetTick>
 80053e8:	0002      	movs	r2, r0
 80053ea:	68fb      	ldr	r3, [r7, #12]
 80053ec:	1ad3      	subs	r3, r2, r3
 80053ee:	4a3a      	ldr	r2, [pc, #232]	; (80054d8 <HAL_RCC_ClockConfig+0x274>)
 80053f0:	4293      	cmp	r3, r2
 80053f2:	d901      	bls.n	80053f8 <HAL_RCC_ClockConfig+0x194>
        {
          return HAL_TIMEOUT;
 80053f4:	2303      	movs	r3, #3
 80053f6:	e068      	b.n	80054ca <HAL_RCC_ClockConfig+0x266>
      while(__HAL_RCC_GET_SYSCLK_SOURCE() != RCC_SYSCLKSOURCE_STATUS_MSI)
 80053f8:	4b38      	ldr	r3, [pc, #224]	; (80054dc <HAL_RCC_ClockConfig+0x278>)
 80053fa:	68db      	ldr	r3, [r3, #12]
 80053fc:	220c      	movs	r2, #12
 80053fe:	4013      	ands	r3, r2
 8005400:	d1f0      	bne.n	80053e4 <HAL_RCC_ClockConfig+0x180>
        }
      }
    }
  }
  /* Decreasing the number of wait states because of lower CPU frequency */
  if(FLatency < __HAL_FLASH_GET_LATENCY())
 8005402:	4b34      	ldr	r3, [pc, #208]	; (80054d4 <HAL_RCC_ClockConfig+0x270>)
 8005404:	681b      	ldr	r3, [r3, #0]
 8005406:	2201      	movs	r2, #1
 8005408:	4013      	ands	r3, r2
 800540a:	683a      	ldr	r2, [r7, #0]
 800540c:	429a      	cmp	r2, r3
 800540e:	d21e      	bcs.n	800544e <HAL_RCC_ClockConfig+0x1ea>
  {
    /* Program the new number of wait states to the LATENCY bits in the FLASH_ACR register */
    __HAL_FLASH_SET_LATENCY(FLatency);
 8005410:	4b30      	ldr	r3, [pc, #192]	; (80054d4 <HAL_RCC_ClockConfig+0x270>)
 8005412:	681b      	ldr	r3, [r3, #0]
 8005414:	2201      	movs	r2, #1
 8005416:	4393      	bics	r3, r2
 8005418:	0019      	movs	r1, r3
 800541a:	4b2e      	ldr	r3, [pc, #184]	; (80054d4 <HAL_RCC_ClockConfig+0x270>)
 800541c:	683a      	ldr	r2, [r7, #0]
 800541e:	430a      	orrs	r2, r1
 8005420:	601a      	str	r2, [r3, #0]

    /* Check that the new number of wait states is taken into account to access the Flash
    memory by polling the FLASH_ACR register */
    tickstart = HAL_GetTick();
 8005422:	f7fd ff7b 	bl	800331c <HAL_GetTick>
 8005426:	0003      	movs	r3, r0
 8005428:	60fb      	str	r3, [r7, #12]

    while (__HAL_FLASH_GET_LATENCY() != FLatency)
 800542a:	e009      	b.n	8005440 <HAL_RCC_ClockConfig+0x1dc>
    {
      if ((HAL_GetTick() - tickstart) > CLOCKSWITCH_TIMEOUT_VALUE)
 800542c:	f7fd ff76 	bl	800331c <HAL_GetTick>
 8005430:	0002      	movs	r2, r0
 8005432:	68fb      	ldr	r3, [r7, #12]
 8005434:	1ad3      	subs	r3, r2, r3
 8005436:	4a28      	ldr	r2, [pc, #160]	; (80054d8 <HAL_RCC_ClockConfig+0x274>)
 8005438:	4293      	cmp	r3, r2
 800543a:	d901      	bls.n	8005440 <HAL_RCC_ClockConfig+0x1dc>
      {
        return HAL_TIMEOUT;
 800543c:	2303      	movs	r3, #3
 800543e:	e044      	b.n	80054ca <HAL_RCC_ClockConfig+0x266>
    while (__HAL_FLASH_GET_LATENCY() != FLatency)
 8005440:	4b24      	ldr	r3, [pc, #144]	; (80054d4 <HAL_RCC_ClockConfig+0x270>)
 8005442:	681b      	ldr	r3, [r3, #0]
 8005444:	2201      	movs	r2, #1
 8005446:	4013      	ands	r3, r2
 8005448:	683a      	ldr	r2, [r7, #0]
 800544a:	429a      	cmp	r2, r3
 800544c:	d1ee      	bne.n	800542c <HAL_RCC_ClockConfig+0x1c8>
      }
    }
  }

  /*-------------------------- PCLK1 Configuration ---------------------------*/
  if(((RCC_ClkInitStruct->ClockType) & RCC_CLOCKTYPE_PCLK1) == RCC_CLOCKTYPE_PCLK1)
 800544e:	687b      	ldr	r3, [r7, #4]
 8005450:	681b      	ldr	r3, [r3, #0]
 8005452:	2204      	movs	r2, #4
 8005454:	4013      	ands	r3, r2
 8005456:	d009      	beq.n	800546c <HAL_RCC_ClockConfig+0x208>
  {
    assert_param(IS_RCC_PCLK(RCC_ClkInitStruct->APB1CLKDivider));
    MODIFY_REG(RCC->CFGR, RCC_CFGR_PPRE1, RCC_ClkInitStruct->APB1CLKDivider);
 8005458:	4b20      	ldr	r3, [pc, #128]	; (80054dc <HAL_RCC_ClockConfig+0x278>)
 800545a:	68db      	ldr	r3, [r3, #12]
 800545c:	4a20      	ldr	r2, [pc, #128]	; (80054e0 <HAL_RCC_ClockConfig+0x27c>)
 800545e:	4013      	ands	r3, r2
 8005460:	0019      	movs	r1, r3
 8005462:	687b      	ldr	r3, [r7, #4]
 8005464:	68da      	ldr	r2, [r3, #12]
 8005466:	4b1d      	ldr	r3, [pc, #116]	; (80054dc <HAL_RCC_ClockConfig+0x278>)
 8005468:	430a      	orrs	r2, r1
 800546a:	60da      	str	r2, [r3, #12]
  }

  /*-------------------------- PCLK2 Configuration ---------------------------*/
  if(((RCC_ClkInitStruct->ClockType) & RCC_CLOCKTYPE_PCLK2) == RCC_CLOCKTYPE_PCLK2)
 800546c:	687b      	ldr	r3, [r7, #4]
 800546e:	681b      	ldr	r3, [r3, #0]
 8005470:	2208      	movs	r2, #8
 8005472:	4013      	ands	r3, r2
 8005474:	d00a      	beq.n	800548c <HAL_RCC_ClockConfig+0x228>
  {
    assert_param(IS_RCC_PCLK(RCC_ClkInitStruct->APB2CLKDivider));
    MODIFY_REG(RCC->CFGR, RCC_CFGR_PPRE2, ((RCC_ClkInitStruct->APB2CLKDivider) << 3));
 8005476:	4b19      	ldr	r3, [pc, #100]	; (80054dc <HAL_RCC_ClockConfig+0x278>)
 8005478:	68db      	ldr	r3, [r3, #12]
 800547a:	4a1a      	ldr	r2, [pc, #104]	; (80054e4 <HAL_RCC_ClockConfig+0x280>)
 800547c:	4013      	ands	r3, r2
 800547e:	0019      	movs	r1, r3
 8005480:	687b      	ldr	r3, [r7, #4]
 8005482:	691b      	ldr	r3, [r3, #16]
 8005484:	00da      	lsls	r2, r3, #3
 8005486:	4b15      	ldr	r3, [pc, #84]	; (80054dc <HAL_RCC_ClockConfig+0x278>)
 8005488:	430a      	orrs	r2, r1
 800548a:	60da      	str	r2, [r3, #12]
  }

  /* Update the SystemCoreClock global variable */
  SystemCoreClock = HAL_RCC_GetSysClockFreq() >> AHBPrescTable[(RCC->CFGR & RCC_CFGR_HPRE)>> RCC_CFGR_HPRE_Pos];
 800548c:	f000 f832 	bl	80054f4 <HAL_RCC_GetSysClockFreq>
 8005490:	0001      	movs	r1, r0
 8005492:	4b12      	ldr	r3, [pc, #72]	; (80054dc <HAL_RCC_ClockConfig+0x278>)
 8005494:	68db      	ldr	r3, [r3, #12]
 8005496:	091b      	lsrs	r3, r3, #4
 8005498:	220f      	movs	r2, #15
 800549a:	4013      	ands	r3, r2
 800549c:	4a12      	ldr	r2, [pc, #72]	; (80054e8 <HAL_RCC_ClockConfig+0x284>)
 800549e:	5cd3      	ldrb	r3, [r2, r3]
 80054a0:	000a      	movs	r2, r1
 80054a2:	40da      	lsrs	r2, r3
 80054a4:	4b11      	ldr	r3, [pc, #68]	; (80054ec <HAL_RCC_ClockConfig+0x288>)
 80054a6:	601a      	str	r2, [r3, #0]

  /* Configure the source of time base considering new system clocks settings*/
  status = HAL_InitTick(uwTickPrio);
 80054a8:	4b11      	ldr	r3, [pc, #68]	; (80054f0 <HAL_RCC_ClockConfig+0x28c>)
 80054aa:	681b      	ldr	r3, [r3, #0]
 80054ac:	250b      	movs	r5, #11
 80054ae:	197c      	adds	r4, r7, r5
 80054b0:	0018      	movs	r0, r3
 80054b2:	f7fd feed 	bl	8003290 <HAL_InitTick>
 80054b6:	0003      	movs	r3, r0
 80054b8:	7023      	strb	r3, [r4, #0]
  if(status != HAL_OK)
 80054ba:	197b      	adds	r3, r7, r5
 80054bc:	781b      	ldrb	r3, [r3, #0]
 80054be:	2b00      	cmp	r3, #0
 80054c0:	d002      	beq.n	80054c8 <HAL_RCC_ClockConfig+0x264>
  {
    return status;
 80054c2:	197b      	adds	r3, r7, r5
 80054c4:	781b      	ldrb	r3, [r3, #0]
 80054c6:	e000      	b.n	80054ca <HAL_RCC_ClockConfig+0x266>
  }

  return HAL_OK;
 80054c8:	2300      	movs	r3, #0
}
 80054ca:	0018      	movs	r0, r3
 80054cc:	46bd      	mov	sp, r7
 80054ce:	b004      	add	sp, #16
 80054d0:	bdb0      	pop	{r4, r5, r7, pc}
 80054d2:	46c0      	nop			; (mov r8, r8)
 80054d4:	40022000 	.word	0x40022000
 80054d8:	00001388 	.word	0x00001388
 80054dc:	40021000 	.word	0x40021000
 80054e0:	fffff8ff 	.word	0xfffff8ff
 80054e4:	ffffc7ff 	.word	0xffffc7ff
 80054e8:	080072c4 	.word	0x080072c4
 80054ec:	20000010 	.word	0x20000010
 80054f0:	2000002c 	.word	0x2000002c

080054f4 <HAL_RCC_GetSysClockFreq>:
  *         right SYSCLK value. Otherwise, any configuration based on this function will be incorrect.
  *
  * @retval SYSCLK frequency
  */
uint32_t HAL_RCC_GetSysClockFreq(void)
{
 80054f4:	b5b0      	push	{r4, r5, r7, lr}
 80054f6:	b08e      	sub	sp, #56	; 0x38
 80054f8:	af00      	add	r7, sp, #0
  uint32_t tmpreg, pllm, plld, pllvco, msiclkrange;    /* no init needed */
  uint32_t sysclockfreq;

  tmpreg = RCC->CFGR;
 80054fa:	4b4c      	ldr	r3, [pc, #304]	; (800562c <HAL_RCC_GetSysClockFreq+0x138>)
 80054fc:	68db      	ldr	r3, [r3, #12]
 80054fe:	62fb      	str	r3, [r7, #44]	; 0x2c

  /* Get SYSCLK source -------------------------------------------------------*/
  switch (tmpreg & RCC_CFGR_SWS)
 8005500:	6afa      	ldr	r2, [r7, #44]	; 0x2c
 8005502:	230c      	movs	r3, #12
 8005504:	4013      	ands	r3, r2
 8005506:	2b0c      	cmp	r3, #12
 8005508:	d014      	beq.n	8005534 <HAL_RCC_GetSysClockFreq+0x40>
 800550a:	d900      	bls.n	800550e <HAL_RCC_GetSysClockFreq+0x1a>
 800550c:	e07b      	b.n	8005606 <HAL_RCC_GetSysClockFreq+0x112>
 800550e:	2b04      	cmp	r3, #4
 8005510:	d002      	beq.n	8005518 <HAL_RCC_GetSysClockFreq+0x24>
 8005512:	2b08      	cmp	r3, #8
 8005514:	d00b      	beq.n	800552e <HAL_RCC_GetSysClockFreq+0x3a>
 8005516:	e076      	b.n	8005606 <HAL_RCC_GetSysClockFreq+0x112>
  {
    case RCC_SYSCLKSOURCE_STATUS_HSI:  /* HSI used as system clock source */
    {
      if ((RCC->CR & RCC_CR_HSIDIVF) != 0U)
 8005518:	4b44      	ldr	r3, [pc, #272]	; (800562c <HAL_RCC_GetSysClockFreq+0x138>)
 800551a:	681b      	ldr	r3, [r3, #0]
 800551c:	2210      	movs	r2, #16
 800551e:	4013      	ands	r3, r2
 8005520:	d002      	beq.n	8005528 <HAL_RCC_GetSysClockFreq+0x34>
      {
        sysclockfreq =  (HSI_VALUE >> 2);
 8005522:	4b43      	ldr	r3, [pc, #268]	; (8005630 <HAL_RCC_GetSysClockFreq+0x13c>)
 8005524:	633b      	str	r3, [r7, #48]	; 0x30
      }
      else
      {
        sysclockfreq =  HSI_VALUE;
      }
      break;
 8005526:	e07c      	b.n	8005622 <HAL_RCC_GetSysClockFreq+0x12e>
        sysclockfreq =  HSI_VALUE;
 8005528:	4b42      	ldr	r3, [pc, #264]	; (8005634 <HAL_RCC_GetSysClockFreq+0x140>)
 800552a:	633b      	str	r3, [r7, #48]	; 0x30
      break;
 800552c:	e079      	b.n	8005622 <HAL_RCC_GetSysClockFreq+0x12e>
    }
    case RCC_SYSCLKSOURCE_STATUS_HSE:  /* HSE used as system clock */
    {
      sysclockfreq = HSE_VALUE;
 800552e:	4b42      	ldr	r3, [pc, #264]	; (8005638 <HAL_RCC_GetSysClockFreq+0x144>)
 8005530:	633b      	str	r3, [r7, #48]	; 0x30
      break;
 8005532:	e076      	b.n	8005622 <HAL_RCC_GetSysClockFreq+0x12e>
    }
    case RCC_SYSCLKSOURCE_STATUS_PLLCLK:  /* PLL used as system clock */
    {
      pllm = PLLMulTable[(uint32_t)(tmpreg & RCC_CFGR_PLLMUL) >> RCC_CFGR_PLLMUL_Pos];
 8005534:	6afb      	ldr	r3, [r7, #44]	; 0x2c
 8005536:	0c9a      	lsrs	r2, r3, #18
 8005538:	230f      	movs	r3, #15
 800553a:	401a      	ands	r2, r3
 800553c:	4b3f      	ldr	r3, [pc, #252]	; (800563c <HAL_RCC_GetSysClockFreq+0x148>)
 800553e:	5c9b      	ldrb	r3, [r3, r2]
 8005540:	62bb      	str	r3, [r7, #40]	; 0x28
      plld = ((uint32_t)(tmpreg & RCC_CFGR_PLLDIV) >> RCC_CFGR_PLLDIV_Pos) + 1U;
 8005542:	6afb      	ldr	r3, [r7, #44]	; 0x2c
 8005544:	0d9a      	lsrs	r2, r3, #22
 8005546:	2303      	movs	r3, #3
 8005548:	4013      	ands	r3, r2
 800554a:	3301      	adds	r3, #1
 800554c:	627b      	str	r3, [r7, #36]	; 0x24
      if (__HAL_RCC_GET_PLL_OSCSOURCE() != RCC_PLLSOURCE_HSI)
 800554e:	4b37      	ldr	r3, [pc, #220]	; (800562c <HAL_RCC_GetSysClockFreq+0x138>)
 8005550:	68da      	ldr	r2, [r3, #12]
 8005552:	2380      	movs	r3, #128	; 0x80
 8005554:	025b      	lsls	r3, r3, #9
 8005556:	4013      	ands	r3, r2
 8005558:	d01a      	beq.n	8005590 <HAL_RCC_GetSysClockFreq+0x9c>
      {
        /* HSE used as PLL clock source */
        pllvco = (uint32_t)(((uint64_t)HSE_VALUE * (uint64_t)pllm) / (uint64_t)plld);
 800555a:	6abb      	ldr	r3, [r7, #40]	; 0x28
 800555c:	61bb      	str	r3, [r7, #24]
 800555e:	2300      	movs	r3, #0
 8005560:	61fb      	str	r3, [r7, #28]
 8005562:	4a35      	ldr	r2, [pc, #212]	; (8005638 <HAL_RCC_GetSysClockFreq+0x144>)
 8005564:	2300      	movs	r3, #0
 8005566:	69b8      	ldr	r0, [r7, #24]
 8005568:	69f9      	ldr	r1, [r7, #28]
 800556a:	f7fa fe79 	bl	8000260 <__aeabi_lmul>
 800556e:	0002      	movs	r2, r0
 8005570:	000b      	movs	r3, r1
 8005572:	0010      	movs	r0, r2
 8005574:	0019      	movs	r1, r3
 8005576:	6a7b      	ldr	r3, [r7, #36]	; 0x24
 8005578:	613b      	str	r3, [r7, #16]
 800557a:	2300      	movs	r3, #0
 800557c:	617b      	str	r3, [r7, #20]
 800557e:	693a      	ldr	r2, [r7, #16]
 8005580:	697b      	ldr	r3, [r7, #20]
 8005582:	f7fa fe4d 	bl	8000220 <__aeabi_uldivmod>
 8005586:	0002      	movs	r2, r0
 8005588:	000b      	movs	r3, r1
 800558a:	0013      	movs	r3, r2
 800558c:	637b      	str	r3, [r7, #52]	; 0x34
 800558e:	e037      	b.n	8005600 <HAL_RCC_GetSysClockFreq+0x10c>
      }
      else
      {
        if ((RCC->CR & RCC_CR_HSIDIVF) != 0U)
 8005590:	4b26      	ldr	r3, [pc, #152]	; (800562c <HAL_RCC_GetSysClockFreq+0x138>)
 8005592:	681b      	ldr	r3, [r3, #0]
 8005594:	2210      	movs	r2, #16
 8005596:	4013      	ands	r3, r2
 8005598:	d01a      	beq.n	80055d0 <HAL_RCC_GetSysClockFreq+0xdc>
        {
          pllvco = (uint32_t)((((uint64_t)(HSI_VALUE >> 2)) * (uint64_t)pllm) / (uint64_t)plld);
 800559a:	6abb      	ldr	r3, [r7, #40]	; 0x28
 800559c:	60bb      	str	r3, [r7, #8]
 800559e:	2300      	movs	r3, #0
 80055a0:	60fb      	str	r3, [r7, #12]
 80055a2:	4a23      	ldr	r2, [pc, #140]	; (8005630 <HAL_RCC_GetSysClockFreq+0x13c>)
 80055a4:	2300      	movs	r3, #0
 80055a6:	68b8      	ldr	r0, [r7, #8]
 80055a8:	68f9      	ldr	r1, [r7, #12]
 80055aa:	f7fa fe59 	bl	8000260 <__aeabi_lmul>
 80055ae:	0002      	movs	r2, r0
 80055b0:	000b      	movs	r3, r1
 80055b2:	0010      	movs	r0, r2
 80055b4:	0019      	movs	r1, r3
 80055b6:	6a7b      	ldr	r3, [r7, #36]	; 0x24
 80055b8:	603b      	str	r3, [r7, #0]
 80055ba:	2300      	movs	r3, #0
 80055bc:	607b      	str	r3, [r7, #4]
 80055be:	683a      	ldr	r2, [r7, #0]
 80055c0:	687b      	ldr	r3, [r7, #4]
 80055c2:	f7fa fe2d 	bl	8000220 <__aeabi_uldivmod>
 80055c6:	0002      	movs	r2, r0
 80055c8:	000b      	movs	r3, r1
 80055ca:	0013      	movs	r3, r2
 80055cc:	637b      	str	r3, [r7, #52]	; 0x34
 80055ce:	e017      	b.n	8005600 <HAL_RCC_GetSysClockFreq+0x10c>
        }
        else
        {
         pllvco = (uint32_t)(((uint64_t)HSI_VALUE * (uint64_t)pllm) / (uint64_t)plld);
 80055d0:	6abb      	ldr	r3, [r7, #40]	; 0x28
 80055d2:	0018      	movs	r0, r3
 80055d4:	2300      	movs	r3, #0
 80055d6:	0019      	movs	r1, r3
 80055d8:	4a16      	ldr	r2, [pc, #88]	; (8005634 <HAL_RCC_GetSysClockFreq+0x140>)
 80055da:	2300      	movs	r3, #0
 80055dc:	f7fa fe40 	bl	8000260 <__aeabi_lmul>
 80055e0:	0002      	movs	r2, r0
 80055e2:	000b      	movs	r3, r1
 80055e4:	0010      	movs	r0, r2
 80055e6:	0019      	movs	r1, r3
 80055e8:	6a7b      	ldr	r3, [r7, #36]	; 0x24
 80055ea:	001c      	movs	r4, r3
 80055ec:	2300      	movs	r3, #0
 80055ee:	001d      	movs	r5, r3
 80055f0:	0022      	movs	r2, r4
 80055f2:	002b      	movs	r3, r5
 80055f4:	f7fa fe14 	bl	8000220 <__aeabi_uldivmod>
 80055f8:	0002      	movs	r2, r0
 80055fa:	000b      	movs	r3, r1
 80055fc:	0013      	movs	r3, r2
 80055fe:	637b      	str	r3, [r7, #52]	; 0x34
        }
      }
      sysclockfreq = pllvco;
 8005600:	6b7b      	ldr	r3, [r7, #52]	; 0x34
 8005602:	633b      	str	r3, [r7, #48]	; 0x30
      break;
 8005604:	e00d      	b.n	8005622 <HAL_RCC_GetSysClockFreq+0x12e>
    }
    case RCC_SYSCLKSOURCE_STATUS_MSI:  /* MSI used as system clock source */
    default: /* MSI used as system clock */
    {
      msiclkrange = (RCC->ICSCR & RCC_ICSCR_MSIRANGE ) >> RCC_ICSCR_MSIRANGE_Pos;
 8005606:	4b09      	ldr	r3, [pc, #36]	; (800562c <HAL_RCC_GetSysClockFreq+0x138>)
 8005608:	685b      	ldr	r3, [r3, #4]
 800560a:	0b5b      	lsrs	r3, r3, #13
 800560c:	2207      	movs	r2, #7
 800560e:	4013      	ands	r3, r2
 8005610:	623b      	str	r3, [r7, #32]
      sysclockfreq = (32768U * (1UL << (msiclkrange + 1U)));
 8005612:	6a3b      	ldr	r3, [r7, #32]
 8005614:	3301      	adds	r3, #1
 8005616:	2280      	movs	r2, #128	; 0x80
 8005618:	0212      	lsls	r2, r2, #8
 800561a:	409a      	lsls	r2, r3
 800561c:	0013      	movs	r3, r2
 800561e:	633b      	str	r3, [r7, #48]	; 0x30
      break;
 8005620:	46c0      	nop			; (mov r8, r8)
    }
  }
  return sysclockfreq;
 8005622:	6b3b      	ldr	r3, [r7, #48]	; 0x30
}
 8005624:	0018      	movs	r0, r3
 8005626:	46bd      	mov	sp, r7
 8005628:	b00e      	add	sp, #56	; 0x38
 800562a:	bdb0      	pop	{r4, r5, r7, pc}
 800562c:	40021000 	.word	0x40021000
 8005630:	003d0900 	.word	0x003d0900
 8005634:	00f42400 	.word	0x00f42400
 8005638:	007a1200 	.word	0x007a1200
 800563c:	080072d4 	.word	0x080072d4

08005640 <HAL_RCCEx_PeriphCLKConfig>:
  * @retval HAL status
  * @note   If HAL_ERROR returned, first switch-OFF HSE clock oscillator with @ref HAL_RCC_OscConfig()
  *         to possibly update HSE divider.
  */
HAL_StatusTypeDef HAL_RCCEx_PeriphCLKConfig(RCC_PeriphCLKInitTypeDef  *PeriphClkInit)
{
 8005640:	b580      	push	{r7, lr}
 8005642:	b086      	sub	sp, #24
 8005644:	af00      	add	r7, sp, #0
 8005646:	6078      	str	r0, [r7, #4]
  uint32_t tickstart;
  uint32_t temp_reg;
  FlagStatus       pwrclkchanged = RESET;
 8005648:	2017      	movs	r0, #23
 800564a:	183b      	adds	r3, r7, r0
 800564c:	2200      	movs	r2, #0
 800564e:	701a      	strb	r2, [r3, #0]

  /* Check the parameters */
  assert_param(IS_RCC_PERIPHCLOCK(PeriphClkInit->PeriphClockSelection));

  /*------------------------------- RTC/LCD Configuration ------------------------*/
  if ((((PeriphClkInit->PeriphClockSelection) & RCC_PERIPHCLK_RTC) == RCC_PERIPHCLK_RTC)
 8005650:	687b      	ldr	r3, [r7, #4]
 8005652:	681b      	ldr	r3, [r3, #0]
 8005654:	2220      	movs	r2, #32
 8005656:	4013      	ands	r3, r2
 8005658:	d100      	bne.n	800565c <HAL_RCCEx_PeriphCLKConfig+0x1c>
 800565a:	e0c7      	b.n	80057ec <HAL_RCCEx_PeriphCLKConfig+0x1ac>
#endif /* LCD */

    /* As soon as function is called to change RTC clock source, activation of the
       power domain is done. */
    /* Requires to enable write access to Backup Domain of necessary */
    if(__HAL_RCC_PWR_IS_CLK_DISABLED())
 800565c:	4b84      	ldr	r3, [pc, #528]	; (8005870 <HAL_RCCEx_PeriphCLKConfig+0x230>)
 800565e:	6b9a      	ldr	r2, [r3, #56]	; 0x38
 8005660:	2380      	movs	r3, #128	; 0x80
 8005662:	055b      	lsls	r3, r3, #21
 8005664:	4013      	ands	r3, r2
 8005666:	d109      	bne.n	800567c <HAL_RCCEx_PeriphCLKConfig+0x3c>
    {
      __HAL_RCC_PWR_CLK_ENABLE();
 8005668:	4b81      	ldr	r3, [pc, #516]	; (8005870 <HAL_RCCEx_PeriphCLKConfig+0x230>)
 800566a:	6b9a      	ldr	r2, [r3, #56]	; 0x38
 800566c:	4b80      	ldr	r3, [pc, #512]	; (8005870 <HAL_RCCEx_PeriphCLKConfig+0x230>)
 800566e:	2180      	movs	r1, #128	; 0x80
 8005670:	0549      	lsls	r1, r1, #21
 8005672:	430a      	orrs	r2, r1
 8005674:	639a      	str	r2, [r3, #56]	; 0x38
      pwrclkchanged = SET;
 8005676:	183b      	adds	r3, r7, r0
 8005678:	2201      	movs	r2, #1
 800567a:	701a      	strb	r2, [r3, #0]
    }

    if(HAL_IS_BIT_CLR(PWR->CR, PWR_CR_DBP))
 800567c:	4b7d      	ldr	r3, [pc, #500]	; (8005874 <HAL_RCCEx_PeriphCLKConfig+0x234>)
 800567e:	681a      	ldr	r2, [r3, #0]
 8005680:	2380      	movs	r3, #128	; 0x80
 8005682:	005b      	lsls	r3, r3, #1
 8005684:	4013      	ands	r3, r2
 8005686:	d11a      	bne.n	80056be <HAL_RCCEx_PeriphCLKConfig+0x7e>
    {
      /* Enable write access to Backup domain */
      SET_BIT(PWR->CR, PWR_CR_DBP);
 8005688:	4b7a      	ldr	r3, [pc, #488]	; (8005874 <HAL_RCCEx_PeriphCLKConfig+0x234>)
 800568a:	681a      	ldr	r2, [r3, #0]
 800568c:	4b79      	ldr	r3, [pc, #484]	; (8005874 <HAL_RCCEx_PeriphCLKConfig+0x234>)
 800568e:	2180      	movs	r1, #128	; 0x80
 8005690:	0049      	lsls	r1, r1, #1
 8005692:	430a      	orrs	r2, r1
 8005694:	601a      	str	r2, [r3, #0]

      /* Wait for Backup domain Write protection disable */
      tickstart = HAL_GetTick();
 8005696:	f7fd fe41 	bl	800331c <HAL_GetTick>
 800569a:	0003      	movs	r3, r0
 800569c:	613b      	str	r3, [r7, #16]

      while(HAL_IS_BIT_CLR(PWR->CR, PWR_CR_DBP))
 800569e:	e008      	b.n	80056b2 <HAL_RCCEx_PeriphCLKConfig+0x72>
      {
        if((HAL_GetTick() - tickstart) > RCC_DBP_TIMEOUT_VALUE)
 80056a0:	f7fd fe3c 	bl	800331c <HAL_GetTick>
 80056a4:	0002      	movs	r2, r0
 80056a6:	693b      	ldr	r3, [r7, #16]
 80056a8:	1ad3      	subs	r3, r2, r3
 80056aa:	2b64      	cmp	r3, #100	; 0x64
 80056ac:	d901      	bls.n	80056b2 <HAL_RCCEx_PeriphCLKConfig+0x72>
        {
          return HAL_TIMEOUT;
 80056ae:	2303      	movs	r3, #3
 80056b0:	e0d9      	b.n	8005866 <HAL_RCCEx_PeriphCLKConfig+0x226>
      while(HAL_IS_BIT_CLR(PWR->CR, PWR_CR_DBP))
 80056b2:	4b70      	ldr	r3, [pc, #448]	; (8005874 <HAL_RCCEx_PeriphCLKConfig+0x234>)
 80056b4:	681a      	ldr	r2, [r3, #0]
 80056b6:	2380      	movs	r3, #128	; 0x80
 80056b8:	005b      	lsls	r3, r3, #1
 80056ba:	4013      	ands	r3, r2
 80056bc:	d0f0      	beq.n	80056a0 <HAL_RCCEx_PeriphCLKConfig+0x60>
        }
      }
    }

    /* Check if user wants to change HSE RTC prescaler whereas HSE is enabled */
    temp_reg = (RCC->CR & RCC_CR_RTCPRE);
 80056be:	4b6c      	ldr	r3, [pc, #432]	; (8005870 <HAL_RCCEx_PeriphCLKConfig+0x230>)
 80056c0:	681a      	ldr	r2, [r3, #0]
 80056c2:	23c0      	movs	r3, #192	; 0xc0
 80056c4:	039b      	lsls	r3, r3, #14
 80056c6:	4013      	ands	r3, r2
 80056c8:	60fb      	str	r3, [r7, #12]
    if ((temp_reg != (PeriphClkInit->RTCClockSelection & RCC_CR_RTCPRE))
 80056ca:	687b      	ldr	r3, [r7, #4]
 80056cc:	685a      	ldr	r2, [r3, #4]
 80056ce:	23c0      	movs	r3, #192	; 0xc0
 80056d0:	039b      	lsls	r3, r3, #14
 80056d2:	4013      	ands	r3, r2
 80056d4:	68fa      	ldr	r2, [r7, #12]
 80056d6:	429a      	cmp	r2, r3
 80056d8:	d013      	beq.n	8005702 <HAL_RCCEx_PeriphCLKConfig+0xc2>
#if defined (LCD)
     || (temp_reg != (PeriphClkInit->LCDClockSelection & RCC_CR_RTCPRE))
#endif /* LCD */
       )
    { /* Check HSE State */
      if ((PeriphClkInit->RTCClockSelection & RCC_CSR_RTCSEL) == RCC_CSR_RTCSEL_HSE)
 80056da:	687b      	ldr	r3, [r7, #4]
 80056dc:	685a      	ldr	r2, [r3, #4]
 80056de:	23c0      	movs	r3, #192	; 0xc0
 80056e0:	029b      	lsls	r3, r3, #10
 80056e2:	401a      	ands	r2, r3
 80056e4:	23c0      	movs	r3, #192	; 0xc0
 80056e6:	029b      	lsls	r3, r3, #10
 80056e8:	429a      	cmp	r2, r3
 80056ea:	d10a      	bne.n	8005702 <HAL_RCCEx_PeriphCLKConfig+0xc2>
      {
        if (HAL_IS_BIT_SET(RCC->CR, RCC_CR_HSERDY))
 80056ec:	4b60      	ldr	r3, [pc, #384]	; (8005870 <HAL_RCCEx_PeriphCLKConfig+0x230>)
 80056ee:	681a      	ldr	r2, [r3, #0]
 80056f0:	2380      	movs	r3, #128	; 0x80
 80056f2:	029b      	lsls	r3, r3, #10
 80056f4:	401a      	ands	r2, r3
 80056f6:	2380      	movs	r3, #128	; 0x80
 80056f8:	029b      	lsls	r3, r3, #10
 80056fa:	429a      	cmp	r2, r3
 80056fc:	d101      	bne.n	8005702 <HAL_RCCEx_PeriphCLKConfig+0xc2>
        {
          /* To update HSE divider, first switch-OFF HSE clock oscillator*/
          return HAL_ERROR;
 80056fe:	2301      	movs	r3, #1
 8005700:	e0b1      	b.n	8005866 <HAL_RCCEx_PeriphCLKConfig+0x226>
        }
      }
    }

    /* Reset the Backup domain only if the RTC Clock source selection is modified from reset value */
    temp_reg = (RCC->CSR & RCC_CSR_RTCSEL);
 8005702:	4b5b      	ldr	r3, [pc, #364]	; (8005870 <HAL_RCCEx_PeriphCLKConfig+0x230>)
 8005704:	6d1a      	ldr	r2, [r3, #80]	; 0x50
 8005706:	23c0      	movs	r3, #192	; 0xc0
 8005708:	029b      	lsls	r3, r3, #10
 800570a:	4013      	ands	r3, r2
 800570c:	60fb      	str	r3, [r7, #12]

    if((temp_reg != 0x00000000U) && (((temp_reg != (PeriphClkInit->RTCClockSelection & RCC_CSR_RTCSEL)) \
 800570e:	68fb      	ldr	r3, [r7, #12]
 8005710:	2b00      	cmp	r3, #0
 8005712:	d03b      	beq.n	800578c <HAL_RCCEx_PeriphCLKConfig+0x14c>
 8005714:	687b      	ldr	r3, [r7, #4]
 8005716:	685a      	ldr	r2, [r3, #4]
 8005718:	23c0      	movs	r3, #192	; 0xc0
 800571a:	029b      	lsls	r3, r3, #10
 800571c:	4013      	ands	r3, r2
 800571e:	68fa      	ldr	r2, [r7, #12]
 8005720:	429a      	cmp	r2, r3
 8005722:	d033      	beq.n	800578c <HAL_RCCEx_PeriphCLKConfig+0x14c>
      && (((PeriphClkInit->PeriphClockSelection) & RCC_PERIPHCLK_RTC) == RCC_PERIPHCLK_RTC))
 8005724:	687b      	ldr	r3, [r7, #4]
 8005726:	681b      	ldr	r3, [r3, #0]
 8005728:	2220      	movs	r2, #32
 800572a:	4013      	ands	r3, r2
 800572c:	d02e      	beq.n	800578c <HAL_RCCEx_PeriphCLKConfig+0x14c>
       && (((PeriphClkInit->PeriphClockSelection) & RCC_PERIPHCLK_LCD) == RCC_PERIPHCLK_LCD))
#endif /* LCD */
     ))
    {
      /* Store the content of CSR register before the reset of Backup Domain */
      temp_reg = (RCC->CSR & ~(RCC_CSR_RTCSEL));
 800572e:	4b50      	ldr	r3, [pc, #320]	; (8005870 <HAL_RCCEx_PeriphCLKConfig+0x230>)
 8005730:	6d1b      	ldr	r3, [r3, #80]	; 0x50
 8005732:	4a51      	ldr	r2, [pc, #324]	; (8005878 <HAL_RCCEx_PeriphCLKConfig+0x238>)
 8005734:	4013      	ands	r3, r2
 8005736:	60fb      	str	r3, [r7, #12]

      /* RTC Clock selection can be changed only if the Backup Domain is reset */
      __HAL_RCC_BACKUPRESET_FORCE();
 8005738:	4b4d      	ldr	r3, [pc, #308]	; (8005870 <HAL_RCCEx_PeriphCLKConfig+0x230>)
 800573a:	6d1a      	ldr	r2, [r3, #80]	; 0x50
 800573c:	4b4c      	ldr	r3, [pc, #304]	; (8005870 <HAL_RCCEx_PeriphCLKConfig+0x230>)
 800573e:	2180      	movs	r1, #128	; 0x80
 8005740:	0309      	lsls	r1, r1, #12
 8005742:	430a      	orrs	r2, r1
 8005744:	651a      	str	r2, [r3, #80]	; 0x50
      __HAL_RCC_BACKUPRESET_RELEASE();
 8005746:	4b4a      	ldr	r3, [pc, #296]	; (8005870 <HAL_RCCEx_PeriphCLKConfig+0x230>)
 8005748:	6d1a      	ldr	r2, [r3, #80]	; 0x50
 800574a:	4b49      	ldr	r3, [pc, #292]	; (8005870 <HAL_RCCEx_PeriphCLKConfig+0x230>)
 800574c:	494b      	ldr	r1, [pc, #300]	; (800587c <HAL_RCCEx_PeriphCLKConfig+0x23c>)
 800574e:	400a      	ands	r2, r1
 8005750:	651a      	str	r2, [r3, #80]	; 0x50

      /* Restore the Content of CSR register */
      RCC->CSR = temp_reg;
 8005752:	4b47      	ldr	r3, [pc, #284]	; (8005870 <HAL_RCCEx_PeriphCLKConfig+0x230>)
 8005754:	68fa      	ldr	r2, [r7, #12]
 8005756:	651a      	str	r2, [r3, #80]	; 0x50

       /* Wait for LSERDY if LSE was enabled */
      if (HAL_IS_BIT_SET(temp_reg, RCC_CSR_LSEON))
 8005758:	68fa      	ldr	r2, [r7, #12]
 800575a:	2380      	movs	r3, #128	; 0x80
 800575c:	005b      	lsls	r3, r3, #1
 800575e:	4013      	ands	r3, r2
 8005760:	d014      	beq.n	800578c <HAL_RCCEx_PeriphCLKConfig+0x14c>
      {
        /* Get Start Tick */
        tickstart = HAL_GetTick();
 8005762:	f7fd fddb 	bl	800331c <HAL_GetTick>
 8005766:	0003      	movs	r3, r0
 8005768:	613b      	str	r3, [r7, #16]

        /* Wait till LSE is ready */
        while(__HAL_RCC_GET_FLAG(RCC_FLAG_LSERDY) == 0U)
 800576a:	e009      	b.n	8005780 <HAL_RCCEx_PeriphCLKConfig+0x140>
        {
          if((HAL_GetTick() - tickstart ) > RCC_LSE_TIMEOUT_VALUE)
 800576c:	f7fd fdd6 	bl	800331c <HAL_GetTick>
 8005770:	0002      	movs	r2, r0
 8005772:	693b      	ldr	r3, [r7, #16]
 8005774:	1ad3      	subs	r3, r2, r3
 8005776:	4a42      	ldr	r2, [pc, #264]	; (8005880 <HAL_RCCEx_PeriphCLKConfig+0x240>)
 8005778:	4293      	cmp	r3, r2
 800577a:	d901      	bls.n	8005780 <HAL_RCCEx_PeriphCLKConfig+0x140>
          {
            return HAL_TIMEOUT;
 800577c:	2303      	movs	r3, #3
 800577e:	e072      	b.n	8005866 <HAL_RCCEx_PeriphCLKConfig+0x226>
        while(__HAL_RCC_GET_FLAG(RCC_FLAG_LSERDY) == 0U)
 8005780:	4b3b      	ldr	r3, [pc, #236]	; (8005870 <HAL_RCCEx_PeriphCLKConfig+0x230>)
 8005782:	6d1a      	ldr	r2, [r3, #80]	; 0x50
 8005784:	2380      	movs	r3, #128	; 0x80
 8005786:	009b      	lsls	r3, r3, #2
 8005788:	4013      	ands	r3, r2
 800578a:	d0ef      	beq.n	800576c <HAL_RCCEx_PeriphCLKConfig+0x12c>
    {
      __HAL_RCC_LCD_CONFIG(PeriphClkInit->LCDClockSelection);
    } 
#endif /* LCD */

    if(((PeriphClkInit->PeriphClockSelection) & RCC_PERIPHCLK_RTC) == RCC_PERIPHCLK_RTC)
 800578c:	687b      	ldr	r3, [r7, #4]
 800578e:	681b      	ldr	r3, [r3, #0]
 8005790:	2220      	movs	r2, #32
 8005792:	4013      	ands	r3, r2
 8005794:	d01f      	beq.n	80057d6 <HAL_RCCEx_PeriphCLKConfig+0x196>
    {
      __HAL_RCC_RTC_CONFIG(PeriphClkInit->RTCClockSelection);
 8005796:	687b      	ldr	r3, [r7, #4]
 8005798:	685a      	ldr	r2, [r3, #4]
 800579a:	23c0      	movs	r3, #192	; 0xc0
 800579c:	029b      	lsls	r3, r3, #10
 800579e:	401a      	ands	r2, r3
 80057a0:	23c0      	movs	r3, #192	; 0xc0
 80057a2:	029b      	lsls	r3, r3, #10
 80057a4:	429a      	cmp	r2, r3
 80057a6:	d10c      	bne.n	80057c2 <HAL_RCCEx_PeriphCLKConfig+0x182>
 80057a8:	4b31      	ldr	r3, [pc, #196]	; (8005870 <HAL_RCCEx_PeriphCLKConfig+0x230>)
 80057aa:	681b      	ldr	r3, [r3, #0]
 80057ac:	4a35      	ldr	r2, [pc, #212]	; (8005884 <HAL_RCCEx_PeriphCLKConfig+0x244>)
 80057ae:	4013      	ands	r3, r2
 80057b0:	0019      	movs	r1, r3
 80057b2:	687b      	ldr	r3, [r7, #4]
 80057b4:	685a      	ldr	r2, [r3, #4]
 80057b6:	23c0      	movs	r3, #192	; 0xc0
 80057b8:	039b      	lsls	r3, r3, #14
 80057ba:	401a      	ands	r2, r3
 80057bc:	4b2c      	ldr	r3, [pc, #176]	; (8005870 <HAL_RCCEx_PeriphCLKConfig+0x230>)
 80057be:	430a      	orrs	r2, r1
 80057c0:	601a      	str	r2, [r3, #0]
 80057c2:	4b2b      	ldr	r3, [pc, #172]	; (8005870 <HAL_RCCEx_PeriphCLKConfig+0x230>)
 80057c4:	6d19      	ldr	r1, [r3, #80]	; 0x50
 80057c6:	687b      	ldr	r3, [r7, #4]
 80057c8:	685a      	ldr	r2, [r3, #4]
 80057ca:	23c0      	movs	r3, #192	; 0xc0
 80057cc:	029b      	lsls	r3, r3, #10
 80057ce:	401a      	ands	r2, r3
 80057d0:	4b27      	ldr	r3, [pc, #156]	; (8005870 <HAL_RCCEx_PeriphCLKConfig+0x230>)
 80057d2:	430a      	orrs	r2, r1
 80057d4:	651a      	str	r2, [r3, #80]	; 0x50
    }

    /* Require to disable power clock if necessary */
    if(pwrclkchanged == SET)
 80057d6:	2317      	movs	r3, #23
 80057d8:	18fb      	adds	r3, r7, r3
 80057da:	781b      	ldrb	r3, [r3, #0]
 80057dc:	2b01      	cmp	r3, #1
 80057de:	d105      	bne.n	80057ec <HAL_RCCEx_PeriphCLKConfig+0x1ac>
    {
      __HAL_RCC_PWR_CLK_DISABLE();
 80057e0:	4b23      	ldr	r3, [pc, #140]	; (8005870 <HAL_RCCEx_PeriphCLKConfig+0x230>)
 80057e2:	6b9a      	ldr	r2, [r3, #56]	; 0x38
 80057e4:	4b22      	ldr	r3, [pc, #136]	; (8005870 <HAL_RCCEx_PeriphCLKConfig+0x230>)
 80057e6:	4928      	ldr	r1, [pc, #160]	; (8005888 <HAL_RCCEx_PeriphCLKConfig+0x248>)
 80057e8:	400a      	ands	r2, r1
 80057ea:	639a      	str	r2, [r3, #56]	; 0x38
    __HAL_RCC_USART1_CONFIG(PeriphClkInit->Usart1ClockSelection);
  }
#endif /* RCC_CCIPR_USART1SEL */

  /*----------------------------- USART2 Configuration --------------------------*/
  if(((PeriphClkInit->PeriphClockSelection) & RCC_PERIPHCLK_USART2) == RCC_PERIPHCLK_USART2)
 80057ec:	687b      	ldr	r3, [r7, #4]
 80057ee:	681b      	ldr	r3, [r3, #0]
 80057f0:	2202      	movs	r2, #2
 80057f2:	4013      	ands	r3, r2
 80057f4:	d009      	beq.n	800580a <HAL_RCCEx_PeriphCLKConfig+0x1ca>
  {
    /* Check the parameters */
    assert_param(IS_RCC_USART2CLKSOURCE(PeriphClkInit->Usart2ClockSelection));

    /* Configure the USART2 clock source */
    __HAL_RCC_USART2_CONFIG(PeriphClkInit->Usart2ClockSelection);
 80057f6:	4b1e      	ldr	r3, [pc, #120]	; (8005870 <HAL_RCCEx_PeriphCLKConfig+0x230>)
 80057f8:	6cdb      	ldr	r3, [r3, #76]	; 0x4c
 80057fa:	220c      	movs	r2, #12
 80057fc:	4393      	bics	r3, r2
 80057fe:	0019      	movs	r1, r3
 8005800:	687b      	ldr	r3, [r7, #4]
 8005802:	689a      	ldr	r2, [r3, #8]
 8005804:	4b1a      	ldr	r3, [pc, #104]	; (8005870 <HAL_RCCEx_PeriphCLKConfig+0x230>)
 8005806:	430a      	orrs	r2, r1
 8005808:	64da      	str	r2, [r3, #76]	; 0x4c
  }

  /*------------------------------ LPUART1 Configuration ------------------------*/
  if(((PeriphClkInit->PeriphClockSelection) & RCC_PERIPHCLK_LPUART1) == RCC_PERIPHCLK_LPUART1)
 800580a:	687b      	ldr	r3, [r7, #4]
 800580c:	681b      	ldr	r3, [r3, #0]
 800580e:	2204      	movs	r2, #4
 8005810:	4013      	ands	r3, r2
 8005812:	d009      	beq.n	8005828 <HAL_RCCEx_PeriphCLKConfig+0x1e8>
  {
    /* Check the parameters */
    assert_param(IS_RCC_LPUART1CLKSOURCE(PeriphClkInit->Lpuart1ClockSelection));

    /* Configure the LPUAR1 clock source */
    __HAL_RCC_LPUART1_CONFIG(PeriphClkInit->Lpuart1ClockSelection);
 8005814:	4b16      	ldr	r3, [pc, #88]	; (8005870 <HAL_RCCEx_PeriphCLKConfig+0x230>)
 8005816:	6cdb      	ldr	r3, [r3, #76]	; 0x4c
 8005818:	4a1c      	ldr	r2, [pc, #112]	; (800588c <HAL_RCCEx_PeriphCLKConfig+0x24c>)
 800581a:	4013      	ands	r3, r2
 800581c:	0019      	movs	r1, r3
 800581e:	687b      	ldr	r3, [r7, #4]
 8005820:	68da      	ldr	r2, [r3, #12]
 8005822:	4b13      	ldr	r3, [pc, #76]	; (8005870 <HAL_RCCEx_PeriphCLKConfig+0x230>)
 8005824:	430a      	orrs	r2, r1
 8005826:	64da      	str	r2, [r3, #76]	; 0x4c
  }

  /*------------------------------ I2C1 Configuration ------------------------*/
  if(((PeriphClkInit->PeriphClockSelection) & RCC_PERIPHCLK_I2C1) == RCC_PERIPHCLK_I2C1)
 8005828:	687b      	ldr	r3, [r7, #4]
 800582a:	681b      	ldr	r3, [r3, #0]
 800582c:	2208      	movs	r2, #8
 800582e:	4013      	ands	r3, r2
 8005830:	d009      	beq.n	8005846 <HAL_RCCEx_PeriphCLKConfig+0x206>
  {
    /* Check the parameters */
    assert_param(IS_RCC_I2C1CLKSOURCE(PeriphClkInit->I2c1ClockSelection));

    /* Configure the I2C1 clock source */
    __HAL_RCC_I2C1_CONFIG(PeriphClkInit->I2c1ClockSelection);
 8005832:	4b0f      	ldr	r3, [pc, #60]	; (8005870 <HAL_RCCEx_PeriphCLKConfig+0x230>)
 8005834:	6cdb      	ldr	r3, [r3, #76]	; 0x4c
 8005836:	4a16      	ldr	r2, [pc, #88]	; (8005890 <HAL_RCCEx_PeriphCLKConfig+0x250>)
 8005838:	4013      	ands	r3, r2
 800583a:	0019      	movs	r1, r3
 800583c:	687b      	ldr	r3, [r7, #4]
 800583e:	691a      	ldr	r2, [r3, #16]
 8005840:	4b0b      	ldr	r3, [pc, #44]	; (8005870 <HAL_RCCEx_PeriphCLKConfig+0x230>)
 8005842:	430a      	orrs	r2, r1
 8005844:	64da      	str	r2, [r3, #76]	; 0x4c
    __HAL_RCC_USB_CONFIG(PeriphClkInit->UsbClockSelection);
  }
#endif /* USB */

  /*---------------------------- LPTIM1 configuration ------------------------*/
  if(((PeriphClkInit->PeriphClockSelection) & RCC_PERIPHCLK_LPTIM1) == (RCC_PERIPHCLK_LPTIM1))
 8005846:	687b      	ldr	r3, [r7, #4]
 8005848:	681b      	ldr	r3, [r3, #0]
 800584a:	2280      	movs	r2, #128	; 0x80
 800584c:	4013      	ands	r3, r2
 800584e:	d009      	beq.n	8005864 <HAL_RCCEx_PeriphCLKConfig+0x224>
  {
    assert_param(IS_RCC_LPTIMCLK(PeriphClkInit->LptimClockSelection));
    __HAL_RCC_LPTIM1_CONFIG(PeriphClkInit->LptimClockSelection);
 8005850:	4b07      	ldr	r3, [pc, #28]	; (8005870 <HAL_RCCEx_PeriphCLKConfig+0x230>)
 8005852:	6cdb      	ldr	r3, [r3, #76]	; 0x4c
 8005854:	4a0f      	ldr	r2, [pc, #60]	; (8005894 <HAL_RCCEx_PeriphCLKConfig+0x254>)
 8005856:	4013      	ands	r3, r2
 8005858:	0019      	movs	r1, r3
 800585a:	687b      	ldr	r3, [r7, #4]
 800585c:	695a      	ldr	r2, [r3, #20]
 800585e:	4b04      	ldr	r3, [pc, #16]	; (8005870 <HAL_RCCEx_PeriphCLKConfig+0x230>)
 8005860:	430a      	orrs	r2, r1
 8005862:	64da      	str	r2, [r3, #76]	; 0x4c
  }

  return HAL_OK;
 8005864:	2300      	movs	r3, #0
}
 8005866:	0018      	movs	r0, r3
 8005868:	46bd      	mov	sp, r7
 800586a:	b006      	add	sp, #24
 800586c:	bd80      	pop	{r7, pc}
 800586e:	46c0      	nop			; (mov r8, r8)
 8005870:	40021000 	.word	0x40021000
 8005874:	40007000 	.word	0x40007000
 8005878:	fffcffff 	.word	0xfffcffff
 800587c:	fff7ffff 	.word	0xfff7ffff
 8005880:	00001388 	.word	0x00001388
 8005884:	ffcfffff 	.word	0xffcfffff
 8005888:	efffffff 	.word	0xefffffff
 800588c:	fffff3ff 	.word	0xfffff3ff
 8005890:	ffffcfff 	.word	0xffffcfff
 8005894:	fff3ffff 	.word	0xfff3ffff

08005898 <HAL_SPI_Init>:
  * @param  hspi pointer to a SPI_HandleTypeDef structure that contains
  *               the configuration information for SPI module.
  * @retval HAL status
  */
HAL_StatusTypeDef HAL_SPI_Init(SPI_HandleTypeDef *hspi)
{
 8005898:	b580      	push	{r7, lr}
 800589a:	b082      	sub	sp, #8
 800589c:	af00      	add	r7, sp, #0
 800589e:	6078      	str	r0, [r7, #4]
  /* Check the SPI handle allocation */
  if (hspi == NULL)
 80058a0:	687b      	ldr	r3, [r7, #4]
 80058a2:	2b00      	cmp	r3, #0
 80058a4:	d101      	bne.n	80058aa <HAL_SPI_Init+0x12>
  {
    return HAL_ERROR;
 80058a6:	2301      	movs	r3, #1
 80058a8:	e07b      	b.n	80059a2 <HAL_SPI_Init+0x10a>
  assert_param(IS_SPI_DATASIZE(hspi->Init.DataSize));
  assert_param(IS_SPI_NSS(hspi->Init.NSS));
  assert_param(IS_SPI_BAUDRATE_PRESCALER(hspi->Init.BaudRatePrescaler));
  assert_param(IS_SPI_FIRST_BIT(hspi->Init.FirstBit));
  assert_param(IS_SPI_TIMODE(hspi->Init.TIMode));
  if (hspi->Init.TIMode == SPI_TIMODE_DISABLE)
 80058aa:	687b      	ldr	r3, [r7, #4]
 80058ac:	6a5b      	ldr	r3, [r3, #36]	; 0x24
 80058ae:	2b00      	cmp	r3, #0
 80058b0:	d109      	bne.n	80058c6 <HAL_SPI_Init+0x2e>
  {
    assert_param(IS_SPI_CPOL(hspi->Init.CLKPolarity));
    assert_param(IS_SPI_CPHA(hspi->Init.CLKPhase));

    if (hspi->Init.Mode == SPI_MODE_MASTER)
 80058b2:	687b      	ldr	r3, [r7, #4]
 80058b4:	685a      	ldr	r2, [r3, #4]
 80058b6:	2382      	movs	r3, #130	; 0x82
 80058b8:	005b      	lsls	r3, r3, #1
 80058ba:	429a      	cmp	r2, r3
 80058bc:	d009      	beq.n	80058d2 <HAL_SPI_Init+0x3a>
      assert_param(IS_SPI_BAUDRATE_PRESCALER(hspi->Init.BaudRatePrescaler));
    }
    else
    {
      /* Baudrate prescaler not use in Motoraola Slave mode. force to default value */
      hspi->Init.BaudRatePrescaler = SPI_BAUDRATEPRESCALER_2;
 80058be:	687b      	ldr	r3, [r7, #4]
 80058c0:	2200      	movs	r2, #0
 80058c2:	61da      	str	r2, [r3, #28]
 80058c4:	e005      	b.n	80058d2 <HAL_SPI_Init+0x3a>
  else
  {
    assert_param(IS_SPI_BAUDRATE_PRESCALER(hspi->Init.BaudRatePrescaler));

    /* Force polarity and phase to TI protocaol requirements */
    hspi->Init.CLKPolarity = SPI_POLARITY_LOW;
 80058c6:	687b      	ldr	r3, [r7, #4]
 80058c8:	2200      	movs	r2, #0
 80058ca:	611a      	str	r2, [r3, #16]
    hspi->Init.CLKPhase    = SPI_PHASE_1EDGE;
 80058cc:	687b      	ldr	r3, [r7, #4]
 80058ce:	2200      	movs	r2, #0
 80058d0:	615a      	str	r2, [r3, #20]
  if (hspi->Init.CRCCalculation == SPI_CRCCALCULATION_ENABLE)
  {
    assert_param(IS_SPI_CRC_POLYNOMIAL(hspi->Init.CRCPolynomial));
  }
#else
  hspi->Init.CRCCalculation = SPI_CRCCALCULATION_DISABLE;
 80058d2:	687b      	ldr	r3, [r7, #4]
 80058d4:	2200      	movs	r2, #0
 80058d6:	629a      	str	r2, [r3, #40]	; 0x28
#endif /* USE_SPI_CRC */

  if (hspi->State == HAL_SPI_STATE_RESET)
 80058d8:	687b      	ldr	r3, [r7, #4]
 80058da:	2251      	movs	r2, #81	; 0x51
 80058dc:	5c9b      	ldrb	r3, [r3, r2]
 80058de:	b2db      	uxtb	r3, r3
 80058e0:	2b00      	cmp	r3, #0
 80058e2:	d107      	bne.n	80058f4 <HAL_SPI_Init+0x5c>
  {
    /* Allocate lock resource and initialize it */
    hspi->Lock = HAL_UNLOCKED;
 80058e4:	687b      	ldr	r3, [r7, #4]
 80058e6:	2250      	movs	r2, #80	; 0x50
 80058e8:	2100      	movs	r1, #0
 80058ea:	5499      	strb	r1, [r3, r2]

    /* Init the low level hardware : GPIO, CLOCK, NVIC... */
    hspi->MspInitCallback(hspi);
#else
    /* Init the low level hardware : GPIO, CLOCK, NVIC... */
    HAL_SPI_MspInit(hspi);
 80058ec:	687b      	ldr	r3, [r7, #4]
 80058ee:	0018      	movs	r0, r3
 80058f0:	f7fc ff62 	bl	80027b8 <HAL_SPI_MspInit>
#endif /* USE_HAL_SPI_REGISTER_CALLBACKS */
  }

  hspi->State = HAL_SPI_STATE_BUSY;
 80058f4:	687b      	ldr	r3, [r7, #4]
 80058f6:	2251      	movs	r2, #81	; 0x51
 80058f8:	2102      	movs	r1, #2
 80058fa:	5499      	strb	r1, [r3, r2]

  /* Disable the selected SPI peripheral */
  __HAL_SPI_DISABLE(hspi);
 80058fc:	687b      	ldr	r3, [r7, #4]
 80058fe:	681b      	ldr	r3, [r3, #0]
 8005900:	681a      	ldr	r2, [r3, #0]
 8005902:	687b      	ldr	r3, [r7, #4]
 8005904:	681b      	ldr	r3, [r3, #0]
 8005906:	2140      	movs	r1, #64	; 0x40
 8005908:	438a      	bics	r2, r1
 800590a:	601a      	str	r2, [r3, #0]

  /*----------------------- SPIx CR1 & CR2 Configuration ---------------------*/
  /* Configure : SPI Mode, Communication Mode, Data size, Clock polarity and phase, NSS management,
  Communication speed, First bit and CRC calculation state */
  WRITE_REG(hspi->Instance->CR1, ((hspi->Init.Mode & (SPI_CR1_MSTR | SPI_CR1_SSI)) |
 800590c:	687b      	ldr	r3, [r7, #4]
 800590e:	685a      	ldr	r2, [r3, #4]
 8005910:	2382      	movs	r3, #130	; 0x82
 8005912:	005b      	lsls	r3, r3, #1
 8005914:	401a      	ands	r2, r3
 8005916:	687b      	ldr	r3, [r7, #4]
 8005918:	6899      	ldr	r1, [r3, #8]
 800591a:	2384      	movs	r3, #132	; 0x84
 800591c:	021b      	lsls	r3, r3, #8
 800591e:	400b      	ands	r3, r1
 8005920:	431a      	orrs	r2, r3
 8005922:	687b      	ldr	r3, [r7, #4]
 8005924:	68d9      	ldr	r1, [r3, #12]
 8005926:	2380      	movs	r3, #128	; 0x80
 8005928:	011b      	lsls	r3, r3, #4
 800592a:	400b      	ands	r3, r1
 800592c:	431a      	orrs	r2, r3
 800592e:	687b      	ldr	r3, [r7, #4]
 8005930:	691b      	ldr	r3, [r3, #16]
 8005932:	2102      	movs	r1, #2
 8005934:	400b      	ands	r3, r1
 8005936:	431a      	orrs	r2, r3
 8005938:	687b      	ldr	r3, [r7, #4]
 800593a:	695b      	ldr	r3, [r3, #20]
 800593c:	2101      	movs	r1, #1
 800593e:	400b      	ands	r3, r1
 8005940:	431a      	orrs	r2, r3
 8005942:	687b      	ldr	r3, [r7, #4]
 8005944:	6999      	ldr	r1, [r3, #24]
 8005946:	2380      	movs	r3, #128	; 0x80
 8005948:	009b      	lsls	r3, r3, #2
 800594a:	400b      	ands	r3, r1
 800594c:	431a      	orrs	r2, r3
 800594e:	687b      	ldr	r3, [r7, #4]
 8005950:	69db      	ldr	r3, [r3, #28]
 8005952:	2138      	movs	r1, #56	; 0x38
 8005954:	400b      	ands	r3, r1
 8005956:	431a      	orrs	r2, r3
 8005958:	687b      	ldr	r3, [r7, #4]
 800595a:	6a1b      	ldr	r3, [r3, #32]
 800595c:	2180      	movs	r1, #128	; 0x80
 800595e:	400b      	ands	r3, r1
 8005960:	431a      	orrs	r2, r3
 8005962:	0011      	movs	r1, r2
 8005964:	687b      	ldr	r3, [r7, #4]
 8005966:	6a9a      	ldr	r2, [r3, #40]	; 0x28
 8005968:	2380      	movs	r3, #128	; 0x80
 800596a:	019b      	lsls	r3, r3, #6
 800596c:	401a      	ands	r2, r3
 800596e:	687b      	ldr	r3, [r7, #4]
 8005970:	681b      	ldr	r3, [r3, #0]
 8005972:	430a      	orrs	r2, r1
 8005974:	601a      	str	r2, [r3, #0]
                                  (hspi->Init.BaudRatePrescaler & SPI_CR1_BR_Msk) |
                                  (hspi->Init.FirstBit  & SPI_CR1_LSBFIRST) |
                                  (hspi->Init.CRCCalculation & SPI_CR1_CRCEN)));

  /* Configure : NSS management, TI Mode */
  WRITE_REG(hspi->Instance->CR2, (((hspi->Init.NSS >> 16U) & SPI_CR2_SSOE) | (hspi->Init.TIMode & SPI_CR2_FRF)));
 8005976:	687b      	ldr	r3, [r7, #4]
 8005978:	699b      	ldr	r3, [r3, #24]
 800597a:	0c1b      	lsrs	r3, r3, #16
 800597c:	2204      	movs	r2, #4
 800597e:	4013      	ands	r3, r2
 8005980:	0019      	movs	r1, r3
 8005982:	687b      	ldr	r3, [r7, #4]
 8005984:	6a5b      	ldr	r3, [r3, #36]	; 0x24
 8005986:	2210      	movs	r2, #16
 8005988:	401a      	ands	r2, r3
 800598a:	687b      	ldr	r3, [r7, #4]
 800598c:	681b      	ldr	r3, [r3, #0]
 800598e:	430a      	orrs	r2, r1
 8005990:	605a      	str	r2, [r3, #4]
#if defined(SPI_I2SCFGR_I2SMOD)
  /* Activate the SPI mode (Make sure that I2SMOD bit in I2SCFGR register is reset) */
  CLEAR_BIT(hspi->Instance->I2SCFGR, SPI_I2SCFGR_I2SMOD);
#endif /* SPI_I2SCFGR_I2SMOD */

  hspi->ErrorCode = HAL_SPI_ERROR_NONE;
 8005992:	687b      	ldr	r3, [r7, #4]
 8005994:	2200      	movs	r2, #0
 8005996:	655a      	str	r2, [r3, #84]	; 0x54
  hspi->State     = HAL_SPI_STATE_READY;
 8005998:	687b      	ldr	r3, [r7, #4]
 800599a:	2251      	movs	r2, #81	; 0x51
 800599c:	2101      	movs	r1, #1
 800599e:	5499      	strb	r1, [r3, r2]

  return HAL_OK;
 80059a0:	2300      	movs	r3, #0
}
 80059a2:	0018      	movs	r0, r3
 80059a4:	46bd      	mov	sp, r7
 80059a6:	b002      	add	sp, #8
 80059a8:	bd80      	pop	{r7, pc}

080059aa <HAL_SPI_Transmit>:
  * @param  Size amount of data to be sent
  * @param  Timeout Timeout duration
  * @retval HAL status
  */
HAL_StatusTypeDef HAL_SPI_Transmit(SPI_HandleTypeDef *hspi, uint8_t *pData, uint16_t Size, uint32_t Timeout)
{
 80059aa:	b580      	push	{r7, lr}
 80059ac:	b088      	sub	sp, #32
 80059ae:	af00      	add	r7, sp, #0
 80059b0:	60f8      	str	r0, [r7, #12]
 80059b2:	60b9      	str	r1, [r7, #8]
 80059b4:	603b      	str	r3, [r7, #0]
 80059b6:	1dbb      	adds	r3, r7, #6
 80059b8:	801a      	strh	r2, [r3, #0]
  uint32_t tickstart;
  HAL_StatusTypeDef errorcode = HAL_OK;
 80059ba:	231f      	movs	r3, #31
 80059bc:	18fb      	adds	r3, r7, r3
 80059be:	2200      	movs	r2, #0
 80059c0:	701a      	strb	r2, [r3, #0]

  /* Check Direction parameter */
  assert_param(IS_SPI_DIRECTION_2LINES_OR_1LINE(hspi->Init.Direction));

  /* Process Locked */
  __HAL_LOCK(hspi);
 80059c2:	68fb      	ldr	r3, [r7, #12]
 80059c4:	2250      	movs	r2, #80	; 0x50
 80059c6:	5c9b      	ldrb	r3, [r3, r2]
 80059c8:	2b01      	cmp	r3, #1
 80059ca:	d101      	bne.n	80059d0 <HAL_SPI_Transmit+0x26>
 80059cc:	2302      	movs	r3, #2
 80059ce:	e145      	b.n	8005c5c <HAL_SPI_Transmit+0x2b2>
 80059d0:	68fb      	ldr	r3, [r7, #12]
 80059d2:	2250      	movs	r2, #80	; 0x50
 80059d4:	2101      	movs	r1, #1
 80059d6:	5499      	strb	r1, [r3, r2]

  /* Init tickstart for timeout management*/
  tickstart = HAL_GetTick();
 80059d8:	f7fd fca0 	bl	800331c <HAL_GetTick>
 80059dc:	0003      	movs	r3, r0
 80059de:	61bb      	str	r3, [r7, #24]
  initial_TxXferCount = Size;
 80059e0:	2316      	movs	r3, #22
 80059e2:	18fb      	adds	r3, r7, r3
 80059e4:	1dba      	adds	r2, r7, #6
 80059e6:	8812      	ldrh	r2, [r2, #0]
 80059e8:	801a      	strh	r2, [r3, #0]

  if (hspi->State != HAL_SPI_STATE_READY)
 80059ea:	68fb      	ldr	r3, [r7, #12]
 80059ec:	2251      	movs	r2, #81	; 0x51
 80059ee:	5c9b      	ldrb	r3, [r3, r2]
 80059f0:	b2db      	uxtb	r3, r3
 80059f2:	2b01      	cmp	r3, #1
 80059f4:	d004      	beq.n	8005a00 <HAL_SPI_Transmit+0x56>
  {
    errorcode = HAL_BUSY;
 80059f6:	231f      	movs	r3, #31
 80059f8:	18fb      	adds	r3, r7, r3
 80059fa:	2202      	movs	r2, #2
 80059fc:	701a      	strb	r2, [r3, #0]
    goto error;
 80059fe:	e126      	b.n	8005c4e <HAL_SPI_Transmit+0x2a4>
  }

  if ((pData == NULL) || (Size == 0U))
 8005a00:	68bb      	ldr	r3, [r7, #8]
 8005a02:	2b00      	cmp	r3, #0
 8005a04:	d003      	beq.n	8005a0e <HAL_SPI_Transmit+0x64>
 8005a06:	1dbb      	adds	r3, r7, #6
 8005a08:	881b      	ldrh	r3, [r3, #0]
 8005a0a:	2b00      	cmp	r3, #0
 8005a0c:	d104      	bne.n	8005a18 <HAL_SPI_Transmit+0x6e>
  {
    errorcode = HAL_ERROR;
 8005a0e:	231f      	movs	r3, #31
 8005a10:	18fb      	adds	r3, r7, r3
 8005a12:	2201      	movs	r2, #1
 8005a14:	701a      	strb	r2, [r3, #0]
    goto error;
 8005a16:	e11a      	b.n	8005c4e <HAL_SPI_Transmit+0x2a4>
  }

  /* Set the transaction information */
  hspi->State       = HAL_SPI_STATE_BUSY_TX;
 8005a18:	68fb      	ldr	r3, [r7, #12]
 8005a1a:	2251      	movs	r2, #81	; 0x51
 8005a1c:	2103      	movs	r1, #3
 8005a1e:	5499      	strb	r1, [r3, r2]
  hspi->ErrorCode   = HAL_SPI_ERROR_NONE;
 8005a20:	68fb      	ldr	r3, [r7, #12]
 8005a22:	2200      	movs	r2, #0
 8005a24:	655a      	str	r2, [r3, #84]	; 0x54
  hspi->pTxBuffPtr  = (uint8_t *)pData;
 8005a26:	68fb      	ldr	r3, [r7, #12]
 8005a28:	68ba      	ldr	r2, [r7, #8]
 8005a2a:	631a      	str	r2, [r3, #48]	; 0x30
  hspi->TxXferSize  = Size;
 8005a2c:	68fb      	ldr	r3, [r7, #12]
 8005a2e:	1dba      	adds	r2, r7, #6
 8005a30:	8812      	ldrh	r2, [r2, #0]
 8005a32:	869a      	strh	r2, [r3, #52]	; 0x34
  hspi->TxXferCount = Size;
 8005a34:	68fb      	ldr	r3, [r7, #12]
 8005a36:	1dba      	adds	r2, r7, #6
 8005a38:	8812      	ldrh	r2, [r2, #0]
 8005a3a:	86da      	strh	r2, [r3, #54]	; 0x36

  /*Init field not used in handle to zero */
  hspi->pRxBuffPtr  = (uint8_t *)NULL;
 8005a3c:	68fb      	ldr	r3, [r7, #12]
 8005a3e:	2200      	movs	r2, #0
 8005a40:	639a      	str	r2, [r3, #56]	; 0x38
  hspi->RxXferSize  = 0U;
 8005a42:	68fb      	ldr	r3, [r7, #12]
 8005a44:	2200      	movs	r2, #0
 8005a46:	879a      	strh	r2, [r3, #60]	; 0x3c
  hspi->RxXferCount = 0U;
 8005a48:	68fb      	ldr	r3, [r7, #12]
 8005a4a:	2200      	movs	r2, #0
 8005a4c:	87da      	strh	r2, [r3, #62]	; 0x3e
  hspi->TxISR       = NULL;
 8005a4e:	68fb      	ldr	r3, [r7, #12]
 8005a50:	2200      	movs	r2, #0
 8005a52:	645a      	str	r2, [r3, #68]	; 0x44
  hspi->RxISR       = NULL;
 8005a54:	68fb      	ldr	r3, [r7, #12]
 8005a56:	2200      	movs	r2, #0
 8005a58:	641a      	str	r2, [r3, #64]	; 0x40

  /* Configure communication direction : 1Line */
  if (hspi->Init.Direction == SPI_DIRECTION_1LINE)
 8005a5a:	68fb      	ldr	r3, [r7, #12]
 8005a5c:	689a      	ldr	r2, [r3, #8]
 8005a5e:	2380      	movs	r3, #128	; 0x80
 8005a60:	021b      	lsls	r3, r3, #8
 8005a62:	429a      	cmp	r2, r3
 8005a64:	d110      	bne.n	8005a88 <HAL_SPI_Transmit+0xde>
  {
    /* Disable SPI Peripheral before set 1Line direction (BIDIOE bit) */
    __HAL_SPI_DISABLE(hspi);
 8005a66:	68fb      	ldr	r3, [r7, #12]
 8005a68:	681b      	ldr	r3, [r3, #0]
 8005a6a:	681a      	ldr	r2, [r3, #0]
 8005a6c:	68fb      	ldr	r3, [r7, #12]
 8005a6e:	681b      	ldr	r3, [r3, #0]
 8005a70:	2140      	movs	r1, #64	; 0x40
 8005a72:	438a      	bics	r2, r1
 8005a74:	601a      	str	r2, [r3, #0]
    SPI_1LINE_TX(hspi);
 8005a76:	68fb      	ldr	r3, [r7, #12]
 8005a78:	681b      	ldr	r3, [r3, #0]
 8005a7a:	681a      	ldr	r2, [r3, #0]
 8005a7c:	68fb      	ldr	r3, [r7, #12]
 8005a7e:	681b      	ldr	r3, [r3, #0]
 8005a80:	2180      	movs	r1, #128	; 0x80
 8005a82:	01c9      	lsls	r1, r1, #7
 8005a84:	430a      	orrs	r2, r1
 8005a86:	601a      	str	r2, [r3, #0]
    SPI_RESET_CRC(hspi);
  }
#endif /* USE_SPI_CRC */

  /* Check if the SPI is already enabled */
  if ((hspi->Instance->CR1 & SPI_CR1_SPE) != SPI_CR1_SPE)
 8005a88:	68fb      	ldr	r3, [r7, #12]
 8005a8a:	681b      	ldr	r3, [r3, #0]
 8005a8c:	681b      	ldr	r3, [r3, #0]
 8005a8e:	2240      	movs	r2, #64	; 0x40
 8005a90:	4013      	ands	r3, r2
 8005a92:	2b40      	cmp	r3, #64	; 0x40
 8005a94:	d007      	beq.n	8005aa6 <HAL_SPI_Transmit+0xfc>
  {
    /* Enable SPI peripheral */
    __HAL_SPI_ENABLE(hspi);
 8005a96:	68fb      	ldr	r3, [r7, #12]
 8005a98:	681b      	ldr	r3, [r3, #0]
 8005a9a:	681a      	ldr	r2, [r3, #0]
 8005a9c:	68fb      	ldr	r3, [r7, #12]
 8005a9e:	681b      	ldr	r3, [r3, #0]
 8005aa0:	2140      	movs	r1, #64	; 0x40
 8005aa2:	430a      	orrs	r2, r1
 8005aa4:	601a      	str	r2, [r3, #0]
  }

  /* Transmit data in 16 Bit mode */
  if (hspi->Init.DataSize == SPI_DATASIZE_16BIT)
 8005aa6:	68fb      	ldr	r3, [r7, #12]
 8005aa8:	68da      	ldr	r2, [r3, #12]
 8005aaa:	2380      	movs	r3, #128	; 0x80
 8005aac:	011b      	lsls	r3, r3, #4
 8005aae:	429a      	cmp	r2, r3
 8005ab0:	d152      	bne.n	8005b58 <HAL_SPI_Transmit+0x1ae>
  {
    if ((hspi->Init.Mode == SPI_MODE_SLAVE) || (initial_TxXferCount == 0x01U))
 8005ab2:	68fb      	ldr	r3, [r7, #12]
 8005ab4:	685b      	ldr	r3, [r3, #4]
 8005ab6:	2b00      	cmp	r3, #0
 8005ab8:	d004      	beq.n	8005ac4 <HAL_SPI_Transmit+0x11a>
 8005aba:	2316      	movs	r3, #22
 8005abc:	18fb      	adds	r3, r7, r3
 8005abe:	881b      	ldrh	r3, [r3, #0]
 8005ac0:	2b01      	cmp	r3, #1
 8005ac2:	d143      	bne.n	8005b4c <HAL_SPI_Transmit+0x1a2>
    {
      hspi->Instance->DR = *((uint16_t *)hspi->pTxBuffPtr);
 8005ac4:	68fb      	ldr	r3, [r7, #12]
 8005ac6:	6b1b      	ldr	r3, [r3, #48]	; 0x30
 8005ac8:	881a      	ldrh	r2, [r3, #0]
 8005aca:	68fb      	ldr	r3, [r7, #12]
 8005acc:	681b      	ldr	r3, [r3, #0]
 8005ace:	60da      	str	r2, [r3, #12]
      hspi->pTxBuffPtr += sizeof(uint16_t);
 8005ad0:	68fb      	ldr	r3, [r7, #12]
 8005ad2:	6b1b      	ldr	r3, [r3, #48]	; 0x30
 8005ad4:	1c9a      	adds	r2, r3, #2
 8005ad6:	68fb      	ldr	r3, [r7, #12]
 8005ad8:	631a      	str	r2, [r3, #48]	; 0x30
      hspi->TxXferCount--;
 8005ada:	68fb      	ldr	r3, [r7, #12]
 8005adc:	8edb      	ldrh	r3, [r3, #54]	; 0x36
 8005ade:	b29b      	uxth	r3, r3
 8005ae0:	3b01      	subs	r3, #1
 8005ae2:	b29a      	uxth	r2, r3
 8005ae4:	68fb      	ldr	r3, [r7, #12]
 8005ae6:	86da      	strh	r2, [r3, #54]	; 0x36
    }
    /* Transmit data in 16 Bit mode */
    while (hspi->TxXferCount > 0U)
 8005ae8:	e030      	b.n	8005b4c <HAL_SPI_Transmit+0x1a2>
    {
      /* Wait until TXE flag is set to send data */
      if (__HAL_SPI_GET_FLAG(hspi, SPI_FLAG_TXE))
 8005aea:	68fb      	ldr	r3, [r7, #12]
 8005aec:	681b      	ldr	r3, [r3, #0]
 8005aee:	689b      	ldr	r3, [r3, #8]
 8005af0:	2202      	movs	r2, #2
 8005af2:	4013      	ands	r3, r2
 8005af4:	2b02      	cmp	r3, #2
 8005af6:	d112      	bne.n	8005b1e <HAL_SPI_Transmit+0x174>
      {
        hspi->Instance->DR = *((uint16_t *)hspi->pTxBuffPtr);
 8005af8:	68fb      	ldr	r3, [r7, #12]
 8005afa:	6b1b      	ldr	r3, [r3, #48]	; 0x30
 8005afc:	881a      	ldrh	r2, [r3, #0]
 8005afe:	68fb      	ldr	r3, [r7, #12]
 8005b00:	681b      	ldr	r3, [r3, #0]
 8005b02:	60da      	str	r2, [r3, #12]
        hspi->pTxBuffPtr += sizeof(uint16_t);
 8005b04:	68fb      	ldr	r3, [r7, #12]
 8005b06:	6b1b      	ldr	r3, [r3, #48]	; 0x30
 8005b08:	1c9a      	adds	r2, r3, #2
 8005b0a:	68fb      	ldr	r3, [r7, #12]
 8005b0c:	631a      	str	r2, [r3, #48]	; 0x30
        hspi->TxXferCount--;
 8005b0e:	68fb      	ldr	r3, [r7, #12]
 8005b10:	8edb      	ldrh	r3, [r3, #54]	; 0x36
 8005b12:	b29b      	uxth	r3, r3
 8005b14:	3b01      	subs	r3, #1
 8005b16:	b29a      	uxth	r2, r3
 8005b18:	68fb      	ldr	r3, [r7, #12]
 8005b1a:	86da      	strh	r2, [r3, #54]	; 0x36
 8005b1c:	e016      	b.n	8005b4c <HAL_SPI_Transmit+0x1a2>
      }
      else
      {
        /* Timeout management */
        if ((((HAL_GetTick() - tickstart) >=  Timeout) && (Timeout != HAL_MAX_DELAY)) || (Timeout == 0U))
 8005b1e:	f7fd fbfd 	bl	800331c <HAL_GetTick>
 8005b22:	0002      	movs	r2, r0
 8005b24:	69bb      	ldr	r3, [r7, #24]
 8005b26:	1ad3      	subs	r3, r2, r3
 8005b28:	683a      	ldr	r2, [r7, #0]
 8005b2a:	429a      	cmp	r2, r3
 8005b2c:	d802      	bhi.n	8005b34 <HAL_SPI_Transmit+0x18a>
 8005b2e:	683b      	ldr	r3, [r7, #0]
 8005b30:	3301      	adds	r3, #1
 8005b32:	d102      	bne.n	8005b3a <HAL_SPI_Transmit+0x190>
 8005b34:	683b      	ldr	r3, [r7, #0]
 8005b36:	2b00      	cmp	r3, #0
 8005b38:	d108      	bne.n	8005b4c <HAL_SPI_Transmit+0x1a2>
        {
          errorcode = HAL_TIMEOUT;
 8005b3a:	231f      	movs	r3, #31
 8005b3c:	18fb      	adds	r3, r7, r3
 8005b3e:	2203      	movs	r2, #3
 8005b40:	701a      	strb	r2, [r3, #0]
          hspi->State = HAL_SPI_STATE_READY;
 8005b42:	68fb      	ldr	r3, [r7, #12]
 8005b44:	2251      	movs	r2, #81	; 0x51
 8005b46:	2101      	movs	r1, #1
 8005b48:	5499      	strb	r1, [r3, r2]
          goto error;
 8005b4a:	e080      	b.n	8005c4e <HAL_SPI_Transmit+0x2a4>
    while (hspi->TxXferCount > 0U)
 8005b4c:	68fb      	ldr	r3, [r7, #12]
 8005b4e:	8edb      	ldrh	r3, [r3, #54]	; 0x36
 8005b50:	b29b      	uxth	r3, r3
 8005b52:	2b00      	cmp	r3, #0
 8005b54:	d1c9      	bne.n	8005aea <HAL_SPI_Transmit+0x140>
 8005b56:	e053      	b.n	8005c00 <HAL_SPI_Transmit+0x256>
    }
  }
  /* Transmit data in 8 Bit mode */
  else
  {
    if ((hspi->Init.Mode == SPI_MODE_SLAVE) || (initial_TxXferCount == 0x01U))
 8005b58:	68fb      	ldr	r3, [r7, #12]
 8005b5a:	685b      	ldr	r3, [r3, #4]
 8005b5c:	2b00      	cmp	r3, #0
 8005b5e:	d004      	beq.n	8005b6a <HAL_SPI_Transmit+0x1c0>
 8005b60:	2316      	movs	r3, #22
 8005b62:	18fb      	adds	r3, r7, r3
 8005b64:	881b      	ldrh	r3, [r3, #0]
 8005b66:	2b01      	cmp	r3, #1
 8005b68:	d145      	bne.n	8005bf6 <HAL_SPI_Transmit+0x24c>
    {
      *((__IO uint8_t *)&hspi->Instance->DR) = (*hspi->pTxBuffPtr);
 8005b6a:	68fb      	ldr	r3, [r7, #12]
 8005b6c:	6b1a      	ldr	r2, [r3, #48]	; 0x30
 8005b6e:	68fb      	ldr	r3, [r7, #12]
 8005b70:	681b      	ldr	r3, [r3, #0]
 8005b72:	330c      	adds	r3, #12
 8005b74:	7812      	ldrb	r2, [r2, #0]
 8005b76:	701a      	strb	r2, [r3, #0]
      hspi->pTxBuffPtr += sizeof(uint8_t);
 8005b78:	68fb      	ldr	r3, [r7, #12]
 8005b7a:	6b1b      	ldr	r3, [r3, #48]	; 0x30
 8005b7c:	1c5a      	adds	r2, r3, #1
 8005b7e:	68fb      	ldr	r3, [r7, #12]
 8005b80:	631a      	str	r2, [r3, #48]	; 0x30
      hspi->TxXferCount--;
 8005b82:	68fb      	ldr	r3, [r7, #12]
 8005b84:	8edb      	ldrh	r3, [r3, #54]	; 0x36
 8005b86:	b29b      	uxth	r3, r3
 8005b88:	3b01      	subs	r3, #1
 8005b8a:	b29a      	uxth	r2, r3
 8005b8c:	68fb      	ldr	r3, [r7, #12]
 8005b8e:	86da      	strh	r2, [r3, #54]	; 0x36
    }
    while (hspi->TxXferCount > 0U)
 8005b90:	e031      	b.n	8005bf6 <HAL_SPI_Transmit+0x24c>
    {
      /* Wait until TXE flag is set to send data */
      if (__HAL_SPI_GET_FLAG(hspi, SPI_FLAG_TXE))
 8005b92:	68fb      	ldr	r3, [r7, #12]
 8005b94:	681b      	ldr	r3, [r3, #0]
 8005b96:	689b      	ldr	r3, [r3, #8]
 8005b98:	2202      	movs	r2, #2
 8005b9a:	4013      	ands	r3, r2
 8005b9c:	2b02      	cmp	r3, #2
 8005b9e:	d113      	bne.n	8005bc8 <HAL_SPI_Transmit+0x21e>
      {
        *((__IO uint8_t *)&hspi->Instance->DR) = (*hspi->pTxBuffPtr);
 8005ba0:	68fb      	ldr	r3, [r7, #12]
 8005ba2:	6b1a      	ldr	r2, [r3, #48]	; 0x30
 8005ba4:	68fb      	ldr	r3, [r7, #12]
 8005ba6:	681b      	ldr	r3, [r3, #0]
 8005ba8:	330c      	adds	r3, #12
 8005baa:	7812      	ldrb	r2, [r2, #0]
 8005bac:	701a      	strb	r2, [r3, #0]
        hspi->pTxBuffPtr += sizeof(uint8_t);
 8005bae:	68fb      	ldr	r3, [r7, #12]
 8005bb0:	6b1b      	ldr	r3, [r3, #48]	; 0x30
 8005bb2:	1c5a      	adds	r2, r3, #1
 8005bb4:	68fb      	ldr	r3, [r7, #12]
 8005bb6:	631a      	str	r2, [r3, #48]	; 0x30
        hspi->TxXferCount--;
 8005bb8:	68fb      	ldr	r3, [r7, #12]
 8005bba:	8edb      	ldrh	r3, [r3, #54]	; 0x36
 8005bbc:	b29b      	uxth	r3, r3
 8005bbe:	3b01      	subs	r3, #1
 8005bc0:	b29a      	uxth	r2, r3
 8005bc2:	68fb      	ldr	r3, [r7, #12]
 8005bc4:	86da      	strh	r2, [r3, #54]	; 0x36
 8005bc6:	e016      	b.n	8005bf6 <HAL_SPI_Transmit+0x24c>
      }
      else
      {
        /* Timeout management */
        if ((((HAL_GetTick() - tickstart) >=  Timeout) && (Timeout != HAL_MAX_DELAY)) || (Timeout == 0U))
 8005bc8:	f7fd fba8 	bl	800331c <HAL_GetTick>
 8005bcc:	0002      	movs	r2, r0
 8005bce:	69bb      	ldr	r3, [r7, #24]
 8005bd0:	1ad3      	subs	r3, r2, r3
 8005bd2:	683a      	ldr	r2, [r7, #0]
 8005bd4:	429a      	cmp	r2, r3
 8005bd6:	d802      	bhi.n	8005bde <HAL_SPI_Transmit+0x234>
 8005bd8:	683b      	ldr	r3, [r7, #0]
 8005bda:	3301      	adds	r3, #1
 8005bdc:	d102      	bne.n	8005be4 <HAL_SPI_Transmit+0x23a>
 8005bde:	683b      	ldr	r3, [r7, #0]
 8005be0:	2b00      	cmp	r3, #0
 8005be2:	d108      	bne.n	8005bf6 <HAL_SPI_Transmit+0x24c>
        {
          errorcode = HAL_TIMEOUT;
 8005be4:	231f      	movs	r3, #31
 8005be6:	18fb      	adds	r3, r7, r3
 8005be8:	2203      	movs	r2, #3
 8005bea:	701a      	strb	r2, [r3, #0]
          hspi->State = HAL_SPI_STATE_READY;
 8005bec:	68fb      	ldr	r3, [r7, #12]
 8005bee:	2251      	movs	r2, #81	; 0x51
 8005bf0:	2101      	movs	r1, #1
 8005bf2:	5499      	strb	r1, [r3, r2]
          goto error;
 8005bf4:	e02b      	b.n	8005c4e <HAL_SPI_Transmit+0x2a4>
    while (hspi->TxXferCount > 0U)
 8005bf6:	68fb      	ldr	r3, [r7, #12]
 8005bf8:	8edb      	ldrh	r3, [r3, #54]	; 0x36
 8005bfa:	b29b      	uxth	r3, r3
 8005bfc:	2b00      	cmp	r3, #0
 8005bfe:	d1c8      	bne.n	8005b92 <HAL_SPI_Transmit+0x1e8>
    SET_BIT(hspi->Instance->CR1, SPI_CR1_CRCNEXT);
  }
#endif /* USE_SPI_CRC */

  /* Check the end of the transaction */
  if (SPI_EndRxTxTransaction(hspi, Timeout, tickstart) != HAL_OK)
 8005c00:	69ba      	ldr	r2, [r7, #24]
 8005c02:	6839      	ldr	r1, [r7, #0]
 8005c04:	68fb      	ldr	r3, [r7, #12]
 8005c06:	0018      	movs	r0, r3
 8005c08:	f000 f8ba 	bl	8005d80 <SPI_EndRxTxTransaction>
 8005c0c:	1e03      	subs	r3, r0, #0
 8005c0e:	d002      	beq.n	8005c16 <HAL_SPI_Transmit+0x26c>
  {
    hspi->ErrorCode = HAL_SPI_ERROR_FLAG;
 8005c10:	68fb      	ldr	r3, [r7, #12]
 8005c12:	2220      	movs	r2, #32
 8005c14:	655a      	str	r2, [r3, #84]	; 0x54
  }

  /* Clear overrun flag in 2 Lines communication mode because received is not read */
  if (hspi->Init.Direction == SPI_DIRECTION_2LINES)
 8005c16:	68fb      	ldr	r3, [r7, #12]
 8005c18:	689b      	ldr	r3, [r3, #8]
 8005c1a:	2b00      	cmp	r3, #0
 8005c1c:	d10a      	bne.n	8005c34 <HAL_SPI_Transmit+0x28a>
  {
    __HAL_SPI_CLEAR_OVRFLAG(hspi);
 8005c1e:	2300      	movs	r3, #0
 8005c20:	613b      	str	r3, [r7, #16]
 8005c22:	68fb      	ldr	r3, [r7, #12]
 8005c24:	681b      	ldr	r3, [r3, #0]
 8005c26:	68db      	ldr	r3, [r3, #12]
 8005c28:	613b      	str	r3, [r7, #16]
 8005c2a:	68fb      	ldr	r3, [r7, #12]
 8005c2c:	681b      	ldr	r3, [r3, #0]
 8005c2e:	689b      	ldr	r3, [r3, #8]
 8005c30:	613b      	str	r3, [r7, #16]
 8005c32:	693b      	ldr	r3, [r7, #16]
  }

  if (hspi->ErrorCode != HAL_SPI_ERROR_NONE)
 8005c34:	68fb      	ldr	r3, [r7, #12]
 8005c36:	6d5b      	ldr	r3, [r3, #84]	; 0x54
 8005c38:	2b00      	cmp	r3, #0
 8005c3a:	d004      	beq.n	8005c46 <HAL_SPI_Transmit+0x29c>
  {
    errorcode = HAL_ERROR;
 8005c3c:	231f      	movs	r3, #31
 8005c3e:	18fb      	adds	r3, r7, r3
 8005c40:	2201      	movs	r2, #1
 8005c42:	701a      	strb	r2, [r3, #0]
 8005c44:	e003      	b.n	8005c4e <HAL_SPI_Transmit+0x2a4>
  }
  else
  {
    hspi->State = HAL_SPI_STATE_READY;
 8005c46:	68fb      	ldr	r3, [r7, #12]
 8005c48:	2251      	movs	r2, #81	; 0x51
 8005c4a:	2101      	movs	r1, #1
 8005c4c:	5499      	strb	r1, [r3, r2]
  }

error:
  /* Process Unlocked */
  __HAL_UNLOCK(hspi);
 8005c4e:	68fb      	ldr	r3, [r7, #12]
 8005c50:	2250      	movs	r2, #80	; 0x50
 8005c52:	2100      	movs	r1, #0
 8005c54:	5499      	strb	r1, [r3, r2]
  return errorcode;
 8005c56:	231f      	movs	r3, #31
 8005c58:	18fb      	adds	r3, r7, r3
 8005c5a:	781b      	ldrb	r3, [r3, #0]
}
 8005c5c:	0018      	movs	r0, r3
 8005c5e:	46bd      	mov	sp, r7
 8005c60:	b008      	add	sp, #32
 8005c62:	bd80      	pop	{r7, pc}

08005c64 <SPI_WaitFlagStateUntilTimeout>:
  * @param  Tickstart tick start value
  * @retval HAL status
  */
static HAL_StatusTypeDef SPI_WaitFlagStateUntilTimeout(SPI_HandleTypeDef *hspi, uint32_t Flag, FlagStatus State,
                                                       uint32_t Timeout, uint32_t Tickstart)
{
 8005c64:	b580      	push	{r7, lr}
 8005c66:	b088      	sub	sp, #32
 8005c68:	af00      	add	r7, sp, #0
 8005c6a:	60f8      	str	r0, [r7, #12]
 8005c6c:	60b9      	str	r1, [r7, #8]
 8005c6e:	603b      	str	r3, [r7, #0]
 8005c70:	1dfb      	adds	r3, r7, #7
 8005c72:	701a      	strb	r2, [r3, #0]
  __IO uint32_t count;
  uint32_t tmp_timeout;
  uint32_t tmp_tickstart;

  /* Adjust Timeout value  in case of end of transfer */
  tmp_timeout   = Timeout - (HAL_GetTick() - Tickstart);
 8005c74:	f7fd fb52 	bl	800331c <HAL_GetTick>
 8005c78:	0002      	movs	r2, r0
 8005c7a:	6abb      	ldr	r3, [r7, #40]	; 0x28
 8005c7c:	1a9b      	subs	r3, r3, r2
 8005c7e:	683a      	ldr	r2, [r7, #0]
 8005c80:	18d3      	adds	r3, r2, r3
 8005c82:	61fb      	str	r3, [r7, #28]
  tmp_tickstart = HAL_GetTick();
 8005c84:	f7fd fb4a 	bl	800331c <HAL_GetTick>
 8005c88:	0003      	movs	r3, r0
 8005c8a:	61bb      	str	r3, [r7, #24]

  /* Calculate Timeout based on a software loop to avoid blocking issue if Systick is disabled */
  count = tmp_timeout * ((SystemCoreClock * 32U) >> 20U);
 8005c8c:	4b3a      	ldr	r3, [pc, #232]	; (8005d78 <SPI_WaitFlagStateUntilTimeout+0x114>)
 8005c8e:	681b      	ldr	r3, [r3, #0]
 8005c90:	015b      	lsls	r3, r3, #5
 8005c92:	0d1b      	lsrs	r3, r3, #20
 8005c94:	69fa      	ldr	r2, [r7, #28]
 8005c96:	4353      	muls	r3, r2
 8005c98:	617b      	str	r3, [r7, #20]

  while ((__HAL_SPI_GET_FLAG(hspi, Flag) ? SET : RESET) != State)
 8005c9a:	e058      	b.n	8005d4e <SPI_WaitFlagStateUntilTimeout+0xea>
  {
    if (Timeout != HAL_MAX_DELAY)
 8005c9c:	683b      	ldr	r3, [r7, #0]
 8005c9e:	3301      	adds	r3, #1
 8005ca0:	d055      	beq.n	8005d4e <SPI_WaitFlagStateUntilTimeout+0xea>
    {
      if (((HAL_GetTick() - tmp_tickstart) >= tmp_timeout) || (tmp_timeout == 0U))
 8005ca2:	f7fd fb3b 	bl	800331c <HAL_GetTick>
 8005ca6:	0002      	movs	r2, r0
 8005ca8:	69bb      	ldr	r3, [r7, #24]
 8005caa:	1ad3      	subs	r3, r2, r3
 8005cac:	69fa      	ldr	r2, [r7, #28]
 8005cae:	429a      	cmp	r2, r3
 8005cb0:	d902      	bls.n	8005cb8 <SPI_WaitFlagStateUntilTimeout+0x54>
 8005cb2:	69fb      	ldr	r3, [r7, #28]
 8005cb4:	2b00      	cmp	r3, #0
 8005cb6:	d142      	bne.n	8005d3e <SPI_WaitFlagStateUntilTimeout+0xda>
        /* Disable the SPI and reset the CRC: the CRC value should be cleared
           on both master and slave sides in order to resynchronize the master
           and slave for their respective CRC calculation */

        /* Disable TXE, RXNE and ERR interrupts for the interrupt process */
        __HAL_SPI_DISABLE_IT(hspi, (SPI_IT_TXE | SPI_IT_RXNE | SPI_IT_ERR));
 8005cb8:	68fb      	ldr	r3, [r7, #12]
 8005cba:	681b      	ldr	r3, [r3, #0]
 8005cbc:	685a      	ldr	r2, [r3, #4]
 8005cbe:	68fb      	ldr	r3, [r7, #12]
 8005cc0:	681b      	ldr	r3, [r3, #0]
 8005cc2:	21e0      	movs	r1, #224	; 0xe0
 8005cc4:	438a      	bics	r2, r1
 8005cc6:	605a      	str	r2, [r3, #4]

        if ((hspi->Init.Mode == SPI_MODE_MASTER) && ((hspi->Init.Direction == SPI_DIRECTION_1LINE)
 8005cc8:	68fb      	ldr	r3, [r7, #12]
 8005cca:	685a      	ldr	r2, [r3, #4]
 8005ccc:	2382      	movs	r3, #130	; 0x82
 8005cce:	005b      	lsls	r3, r3, #1
 8005cd0:	429a      	cmp	r2, r3
 8005cd2:	d113      	bne.n	8005cfc <SPI_WaitFlagStateUntilTimeout+0x98>
 8005cd4:	68fb      	ldr	r3, [r7, #12]
 8005cd6:	689a      	ldr	r2, [r3, #8]
 8005cd8:	2380      	movs	r3, #128	; 0x80
 8005cda:	021b      	lsls	r3, r3, #8
 8005cdc:	429a      	cmp	r2, r3
 8005cde:	d005      	beq.n	8005cec <SPI_WaitFlagStateUntilTimeout+0x88>
                                                     || (hspi->Init.Direction == SPI_DIRECTION_2LINES_RXONLY)))
 8005ce0:	68fb      	ldr	r3, [r7, #12]
 8005ce2:	689a      	ldr	r2, [r3, #8]
 8005ce4:	2380      	movs	r3, #128	; 0x80
 8005ce6:	00db      	lsls	r3, r3, #3
 8005ce8:	429a      	cmp	r2, r3
 8005cea:	d107      	bne.n	8005cfc <SPI_WaitFlagStateUntilTimeout+0x98>
        {
          /* Disable SPI peripheral */
          __HAL_SPI_DISABLE(hspi);
 8005cec:	68fb      	ldr	r3, [r7, #12]
 8005cee:	681b      	ldr	r3, [r3, #0]
 8005cf0:	681a      	ldr	r2, [r3, #0]
 8005cf2:	68fb      	ldr	r3, [r7, #12]
 8005cf4:	681b      	ldr	r3, [r3, #0]
 8005cf6:	2140      	movs	r1, #64	; 0x40
 8005cf8:	438a      	bics	r2, r1
 8005cfa:	601a      	str	r2, [r3, #0]
        }

        /* Reset CRC Calculation */
        if (hspi->Init.CRCCalculation == SPI_CRCCALCULATION_ENABLE)
 8005cfc:	68fb      	ldr	r3, [r7, #12]
 8005cfe:	6a9a      	ldr	r2, [r3, #40]	; 0x28
 8005d00:	2380      	movs	r3, #128	; 0x80
 8005d02:	019b      	lsls	r3, r3, #6
 8005d04:	429a      	cmp	r2, r3
 8005d06:	d110      	bne.n	8005d2a <SPI_WaitFlagStateUntilTimeout+0xc6>
        {
          SPI_RESET_CRC(hspi);
 8005d08:	68fb      	ldr	r3, [r7, #12]
 8005d0a:	681b      	ldr	r3, [r3, #0]
 8005d0c:	681a      	ldr	r2, [r3, #0]
 8005d0e:	68fb      	ldr	r3, [r7, #12]
 8005d10:	681b      	ldr	r3, [r3, #0]
 8005d12:	491a      	ldr	r1, [pc, #104]	; (8005d7c <SPI_WaitFlagStateUntilTimeout+0x118>)
 8005d14:	400a      	ands	r2, r1
 8005d16:	601a      	str	r2, [r3, #0]
 8005d18:	68fb      	ldr	r3, [r7, #12]
 8005d1a:	681b      	ldr	r3, [r3, #0]
 8005d1c:	681a      	ldr	r2, [r3, #0]
 8005d1e:	68fb      	ldr	r3, [r7, #12]
 8005d20:	681b      	ldr	r3, [r3, #0]
 8005d22:	2180      	movs	r1, #128	; 0x80
 8005d24:	0189      	lsls	r1, r1, #6
 8005d26:	430a      	orrs	r2, r1
 8005d28:	601a      	str	r2, [r3, #0]
        }

        hspi->State = HAL_SPI_STATE_READY;
 8005d2a:	68fb      	ldr	r3, [r7, #12]
 8005d2c:	2251      	movs	r2, #81	; 0x51
 8005d2e:	2101      	movs	r1, #1
 8005d30:	5499      	strb	r1, [r3, r2]

        /* Process Unlocked */
        __HAL_UNLOCK(hspi);
 8005d32:	68fb      	ldr	r3, [r7, #12]
 8005d34:	2250      	movs	r2, #80	; 0x50
 8005d36:	2100      	movs	r1, #0
 8005d38:	5499      	strb	r1, [r3, r2]

        return HAL_TIMEOUT;
 8005d3a:	2303      	movs	r3, #3
 8005d3c:	e017      	b.n	8005d6e <SPI_WaitFlagStateUntilTimeout+0x10a>
      }
      /* If Systick is disabled or not incremented, deactivate timeout to go in disable loop procedure */
      if (count == 0U)
 8005d3e:	697b      	ldr	r3, [r7, #20]
 8005d40:	2b00      	cmp	r3, #0
 8005d42:	d101      	bne.n	8005d48 <SPI_WaitFlagStateUntilTimeout+0xe4>
      {
        tmp_timeout = 0U;
 8005d44:	2300      	movs	r3, #0
 8005d46:	61fb      	str	r3, [r7, #28]
      }
      count--;
 8005d48:	697b      	ldr	r3, [r7, #20]
 8005d4a:	3b01      	subs	r3, #1
 8005d4c:	617b      	str	r3, [r7, #20]
  while ((__HAL_SPI_GET_FLAG(hspi, Flag) ? SET : RESET) != State)
 8005d4e:	68fb      	ldr	r3, [r7, #12]
 8005d50:	681b      	ldr	r3, [r3, #0]
 8005d52:	689b      	ldr	r3, [r3, #8]
 8005d54:	68ba      	ldr	r2, [r7, #8]
 8005d56:	4013      	ands	r3, r2
 8005d58:	68ba      	ldr	r2, [r7, #8]
 8005d5a:	1ad3      	subs	r3, r2, r3
 8005d5c:	425a      	negs	r2, r3
 8005d5e:	4153      	adcs	r3, r2
 8005d60:	b2db      	uxtb	r3, r3
 8005d62:	001a      	movs	r2, r3
 8005d64:	1dfb      	adds	r3, r7, #7
 8005d66:	781b      	ldrb	r3, [r3, #0]
 8005d68:	429a      	cmp	r2, r3
 8005d6a:	d197      	bne.n	8005c9c <SPI_WaitFlagStateUntilTimeout+0x38>
    }
  }

  return HAL_OK;
 8005d6c:	2300      	movs	r3, #0
}
 8005d6e:	0018      	movs	r0, r3
 8005d70:	46bd      	mov	sp, r7
 8005d72:	b008      	add	sp, #32
 8005d74:	bd80      	pop	{r7, pc}
 8005d76:	46c0      	nop			; (mov r8, r8)
 8005d78:	20000010 	.word	0x20000010
 8005d7c:	ffffdfff 	.word	0xffffdfff

08005d80 <SPI_EndRxTxTransaction>:
  * @param  Timeout Timeout duration
  * @param  Tickstart tick start value
  * @retval HAL status
  */
static HAL_StatusTypeDef SPI_EndRxTxTransaction(SPI_HandleTypeDef *hspi, uint32_t Timeout, uint32_t Tickstart)
{
 8005d80:	b580      	push	{r7, lr}
 8005d82:	b088      	sub	sp, #32
 8005d84:	af02      	add	r7, sp, #8
 8005d86:	60f8      	str	r0, [r7, #12]
 8005d88:	60b9      	str	r1, [r7, #8]
 8005d8a:	607a      	str	r2, [r7, #4]
  /* Timeout in s */
  __IO uint32_t count = SPI_BSY_FLAG_WORKAROUND_TIMEOUT * (SystemCoreClock / 24U / 1000000U);
 8005d8c:	4b1d      	ldr	r3, [pc, #116]	; (8005e04 <SPI_EndRxTxTransaction+0x84>)
 8005d8e:	681b      	ldr	r3, [r3, #0]
 8005d90:	491d      	ldr	r1, [pc, #116]	; (8005e08 <SPI_EndRxTxTransaction+0x88>)
 8005d92:	0018      	movs	r0, r3
 8005d94:	f7fa f9b8 	bl	8000108 <__udivsi3>
 8005d98:	0003      	movs	r3, r0
 8005d9a:	001a      	movs	r2, r3
 8005d9c:	0013      	movs	r3, r2
 8005d9e:	015b      	lsls	r3, r3, #5
 8005da0:	1a9b      	subs	r3, r3, r2
 8005da2:	009b      	lsls	r3, r3, #2
 8005da4:	189b      	adds	r3, r3, r2
 8005da6:	00db      	lsls	r3, r3, #3
 8005da8:	617b      	str	r3, [r7, #20]
  /* Erratasheet: BSY bit may stay high at the end of a data transfer in Slave mode */
  if (hspi->Init.Mode == SPI_MODE_MASTER)
 8005daa:	68fb      	ldr	r3, [r7, #12]
 8005dac:	685a      	ldr	r2, [r3, #4]
 8005dae:	2382      	movs	r3, #130	; 0x82
 8005db0:	005b      	lsls	r3, r3, #1
 8005db2:	429a      	cmp	r2, r3
 8005db4:	d112      	bne.n	8005ddc <SPI_EndRxTxTransaction+0x5c>
  {
    /* Control the BSY flag */
    if (SPI_WaitFlagStateUntilTimeout(hspi, SPI_FLAG_BSY, RESET, Timeout, Tickstart) != HAL_OK)
 8005db6:	68ba      	ldr	r2, [r7, #8]
 8005db8:	68f8      	ldr	r0, [r7, #12]
 8005dba:	687b      	ldr	r3, [r7, #4]
 8005dbc:	9300      	str	r3, [sp, #0]
 8005dbe:	0013      	movs	r3, r2
 8005dc0:	2200      	movs	r2, #0
 8005dc2:	2180      	movs	r1, #128	; 0x80
 8005dc4:	f7ff ff4e 	bl	8005c64 <SPI_WaitFlagStateUntilTimeout>
 8005dc8:	1e03      	subs	r3, r0, #0
 8005dca:	d016      	beq.n	8005dfa <SPI_EndRxTxTransaction+0x7a>
    {
      SET_BIT(hspi->ErrorCode, HAL_SPI_ERROR_FLAG);
 8005dcc:	68fb      	ldr	r3, [r7, #12]
 8005dce:	6d5b      	ldr	r3, [r3, #84]	; 0x54
 8005dd0:	2220      	movs	r2, #32
 8005dd2:	431a      	orrs	r2, r3
 8005dd4:	68fb      	ldr	r3, [r7, #12]
 8005dd6:	655a      	str	r2, [r3, #84]	; 0x54
      return HAL_TIMEOUT;
 8005dd8:	2303      	movs	r3, #3
 8005dda:	e00f      	b.n	8005dfc <SPI_EndRxTxTransaction+0x7c>
    * User have to calculate the timeout value to fit with the time of 1 byte transfer.
    * This time is directly link with the SPI clock from Master device.
    */
    do
    {
      if (count == 0U)
 8005ddc:	697b      	ldr	r3, [r7, #20]
 8005dde:	2b00      	cmp	r3, #0
 8005de0:	d00a      	beq.n	8005df8 <SPI_EndRxTxTransaction+0x78>
      {
        break;
      }
      count--;
 8005de2:	697b      	ldr	r3, [r7, #20]
 8005de4:	3b01      	subs	r3, #1
 8005de6:	617b      	str	r3, [r7, #20]
    } while (__HAL_SPI_GET_FLAG(hspi, SPI_FLAG_BSY) != RESET);
 8005de8:	68fb      	ldr	r3, [r7, #12]
 8005dea:	681b      	ldr	r3, [r3, #0]
 8005dec:	689b      	ldr	r3, [r3, #8]
 8005dee:	2280      	movs	r2, #128	; 0x80
 8005df0:	4013      	ands	r3, r2
 8005df2:	2b80      	cmp	r3, #128	; 0x80
 8005df4:	d0f2      	beq.n	8005ddc <SPI_EndRxTxTransaction+0x5c>
 8005df6:	e000      	b.n	8005dfa <SPI_EndRxTxTransaction+0x7a>
        break;
 8005df8:	46c0      	nop			; (mov r8, r8)
  }

  return HAL_OK;
 8005dfa:	2300      	movs	r3, #0
}
 8005dfc:	0018      	movs	r0, r3
 8005dfe:	46bd      	mov	sp, r7
 8005e00:	b006      	add	sp, #24
 8005e02:	bd80      	pop	{r7, pc}
 8005e04:	20000010 	.word	0x20000010
 8005e08:	016e3600 	.word	0x016e3600

08005e0c <HAL_TIM_Base_Init>:
  *         Ex: call @ref HAL_TIM_Base_DeInit() before HAL_TIM_Base_Init()
  * @param  htim TIM Base handle
  * @retval HAL status
  */
HAL_StatusTypeDef HAL_TIM_Base_Init(TIM_HandleTypeDef *htim)
{
 8005e0c:	b580      	push	{r7, lr}
 8005e0e:	b082      	sub	sp, #8
 8005e10:	af00      	add	r7, sp, #0
 8005e12:	6078      	str	r0, [r7, #4]
  /* Check the TIM handle allocation */
  if (htim == NULL)
 8005e14:	687b      	ldr	r3, [r7, #4]
 8005e16:	2b00      	cmp	r3, #0
 8005e18:	d101      	bne.n	8005e1e <HAL_TIM_Base_Init+0x12>
  {
    return HAL_ERROR;
 8005e1a:	2301      	movs	r3, #1
 8005e1c:	e032      	b.n	8005e84 <HAL_TIM_Base_Init+0x78>
  assert_param(IS_TIM_CLOCKDIVISION_DIV(htim->Init.ClockDivision));
  assert_param(IS_TIM_PERIOD(htim->Init.Period));
  assert_param(IS_TIM_PRESCALER(htim->Init.Prescaler));
  assert_param(IS_TIM_AUTORELOAD_PRELOAD(htim->Init.AutoReloadPreload));

  if (htim->State == HAL_TIM_STATE_RESET)
 8005e1e:	687b      	ldr	r3, [r7, #4]
 8005e20:	2239      	movs	r2, #57	; 0x39
 8005e22:	5c9b      	ldrb	r3, [r3, r2]
 8005e24:	b2db      	uxtb	r3, r3
 8005e26:	2b00      	cmp	r3, #0
 8005e28:	d107      	bne.n	8005e3a <HAL_TIM_Base_Init+0x2e>
  {
    /* Allocate lock resource and initialize it */
    htim->Lock = HAL_UNLOCKED;
 8005e2a:	687b      	ldr	r3, [r7, #4]
 8005e2c:	2238      	movs	r2, #56	; 0x38
 8005e2e:	2100      	movs	r1, #0
 8005e30:	5499      	strb	r1, [r3, r2]
    }
    /* Init the low level hardware : GPIO, CLOCK, NVIC */
    htim->Base_MspInitCallback(htim);
#else
    /* Init the low level hardware : GPIO, CLOCK, NVIC */
    HAL_TIM_Base_MspInit(htim);
 8005e32:	687b      	ldr	r3, [r7, #4]
 8005e34:	0018      	movs	r0, r3
 8005e36:	f7fc fe51 	bl	8002adc <HAL_TIM_Base_MspInit>
#endif /* USE_HAL_TIM_REGISTER_CALLBACKS */
  }

  /* Set the TIM state */
  htim->State = HAL_TIM_STATE_BUSY;
 8005e3a:	687b      	ldr	r3, [r7, #4]
 8005e3c:	2239      	movs	r2, #57	; 0x39
 8005e3e:	2102      	movs	r1, #2
 8005e40:	5499      	strb	r1, [r3, r2]

  /* Set the Time Base configuration */
  TIM_Base_SetConfig(htim->Instance, &htim->Init);
 8005e42:	687b      	ldr	r3, [r7, #4]
 8005e44:	681a      	ldr	r2, [r3, #0]
 8005e46:	687b      	ldr	r3, [r7, #4]
 8005e48:	3304      	adds	r3, #4
 8005e4a:	0019      	movs	r1, r3
 8005e4c:	0010      	movs	r0, r2
 8005e4e:	f000 ff87 	bl	8006d60 <TIM_Base_SetConfig>

  /* Initialize the DMA burst operation state */
  htim->DMABurstState = HAL_DMA_BURST_STATE_READY;
 8005e52:	687b      	ldr	r3, [r7, #4]
 8005e54:	223e      	movs	r2, #62	; 0x3e
 8005e56:	2101      	movs	r1, #1
 8005e58:	5499      	strb	r1, [r3, r2]

  /* Initialize the TIM channels state */
  TIM_CHANNEL_STATE_SET_ALL(htim, HAL_TIM_CHANNEL_STATE_READY);
 8005e5a:	687b      	ldr	r3, [r7, #4]
 8005e5c:	223a      	movs	r2, #58	; 0x3a
 8005e5e:	2101      	movs	r1, #1
 8005e60:	5499      	strb	r1, [r3, r2]
 8005e62:	687b      	ldr	r3, [r7, #4]
 8005e64:	223b      	movs	r2, #59	; 0x3b
 8005e66:	2101      	movs	r1, #1
 8005e68:	5499      	strb	r1, [r3, r2]
 8005e6a:	687b      	ldr	r3, [r7, #4]
 8005e6c:	223c      	movs	r2, #60	; 0x3c
 8005e6e:	2101      	movs	r1, #1
 8005e70:	5499      	strb	r1, [r3, r2]
 8005e72:	687b      	ldr	r3, [r7, #4]
 8005e74:	223d      	movs	r2, #61	; 0x3d
 8005e76:	2101      	movs	r1, #1
 8005e78:	5499      	strb	r1, [r3, r2]

  /* Initialize the TIM state*/
  htim->State = HAL_TIM_STATE_READY;
 8005e7a:	687b      	ldr	r3, [r7, #4]
 8005e7c:	2239      	movs	r2, #57	; 0x39
 8005e7e:	2101      	movs	r1, #1
 8005e80:	5499      	strb	r1, [r3, r2]

  return HAL_OK;
 8005e82:	2300      	movs	r3, #0
}
 8005e84:	0018      	movs	r0, r3
 8005e86:	46bd      	mov	sp, r7
 8005e88:	b002      	add	sp, #8
 8005e8a:	bd80      	pop	{r7, pc}

08005e8c <HAL_TIM_OC_Init>:
  *         Ex: call @ref HAL_TIM_OC_DeInit() before HAL_TIM_OC_Init()
  * @param  htim TIM Output Compare handle
  * @retval HAL status
  */
HAL_StatusTypeDef HAL_TIM_OC_Init(TIM_HandleTypeDef *htim)
{
 8005e8c:	b580      	push	{r7, lr}
 8005e8e:	b082      	sub	sp, #8
 8005e90:	af00      	add	r7, sp, #0
 8005e92:	6078      	str	r0, [r7, #4]
  /* Check the TIM handle allocation */
  if (htim == NULL)
 8005e94:	687b      	ldr	r3, [r7, #4]
 8005e96:	2b00      	cmp	r3, #0
 8005e98:	d101      	bne.n	8005e9e <HAL_TIM_OC_Init+0x12>
  {
    return HAL_ERROR;
 8005e9a:	2301      	movs	r3, #1
 8005e9c:	e032      	b.n	8005f04 <HAL_TIM_OC_Init+0x78>
  assert_param(IS_TIM_CLOCKDIVISION_DIV(htim->Init.ClockDivision));
  assert_param(IS_TIM_PERIOD(htim->Init.Period));
  assert_param(IS_TIM_PRESCALER(htim->Init.Prescaler));
  assert_param(IS_TIM_AUTORELOAD_PRELOAD(htim->Init.AutoReloadPreload));

  if (htim->State == HAL_TIM_STATE_RESET)
 8005e9e:	687b      	ldr	r3, [r7, #4]
 8005ea0:	2239      	movs	r2, #57	; 0x39
 8005ea2:	5c9b      	ldrb	r3, [r3, r2]
 8005ea4:	b2db      	uxtb	r3, r3
 8005ea6:	2b00      	cmp	r3, #0
 8005ea8:	d107      	bne.n	8005eba <HAL_TIM_OC_Init+0x2e>
  {
    /* Allocate lock resource and initialize it */
    htim->Lock = HAL_UNLOCKED;
 8005eaa:	687b      	ldr	r3, [r7, #4]
 8005eac:	2238      	movs	r2, #56	; 0x38
 8005eae:	2100      	movs	r1, #0
 8005eb0:	5499      	strb	r1, [r3, r2]
    }
    /* Init the low level hardware : GPIO, CLOCK, NVIC */
    htim->OC_MspInitCallback(htim);
#else
    /* Init the low level hardware : GPIO, CLOCK, NVIC and DMA */
    HAL_TIM_OC_MspInit(htim);
 8005eb2:	687b      	ldr	r3, [r7, #4]
 8005eb4:	0018      	movs	r0, r3
 8005eb6:	f000 f829 	bl	8005f0c <HAL_TIM_OC_MspInit>
#endif /* USE_HAL_TIM_REGISTER_CALLBACKS */
  }

  /* Set the TIM state */
  htim->State = HAL_TIM_STATE_BUSY;
 8005eba:	687b      	ldr	r3, [r7, #4]
 8005ebc:	2239      	movs	r2, #57	; 0x39
 8005ebe:	2102      	movs	r1, #2
 8005ec0:	5499      	strb	r1, [r3, r2]

  /* Init the base time for the Output Compare */
  TIM_Base_SetConfig(htim->Instance,  &htim->Init);
 8005ec2:	687b      	ldr	r3, [r7, #4]
 8005ec4:	681a      	ldr	r2, [r3, #0]
 8005ec6:	687b      	ldr	r3, [r7, #4]
 8005ec8:	3304      	adds	r3, #4
 8005eca:	0019      	movs	r1, r3
 8005ecc:	0010      	movs	r0, r2
 8005ece:	f000 ff47 	bl	8006d60 <TIM_Base_SetConfig>

  /* Initialize the DMA burst operation state */
  htim->DMABurstState = HAL_DMA_BURST_STATE_READY;
 8005ed2:	687b      	ldr	r3, [r7, #4]
 8005ed4:	223e      	movs	r2, #62	; 0x3e
 8005ed6:	2101      	movs	r1, #1
 8005ed8:	5499      	strb	r1, [r3, r2]

  /* Initialize the TIM channels state */
  TIM_CHANNEL_STATE_SET_ALL(htim, HAL_TIM_CHANNEL_STATE_READY);
 8005eda:	687b      	ldr	r3, [r7, #4]
 8005edc:	223a      	movs	r2, #58	; 0x3a
 8005ede:	2101      	movs	r1, #1
 8005ee0:	5499      	strb	r1, [r3, r2]
 8005ee2:	687b      	ldr	r3, [r7, #4]
 8005ee4:	223b      	movs	r2, #59	; 0x3b
 8005ee6:	2101      	movs	r1, #1
 8005ee8:	5499      	strb	r1, [r3, r2]
 8005eea:	687b      	ldr	r3, [r7, #4]
 8005eec:	223c      	movs	r2, #60	; 0x3c
 8005eee:	2101      	movs	r1, #1
 8005ef0:	5499      	strb	r1, [r3, r2]
 8005ef2:	687b      	ldr	r3, [r7, #4]
 8005ef4:	223d      	movs	r2, #61	; 0x3d
 8005ef6:	2101      	movs	r1, #1
 8005ef8:	5499      	strb	r1, [r3, r2]

  /* Initialize the TIM state*/
  htim->State = HAL_TIM_STATE_READY;
 8005efa:	687b      	ldr	r3, [r7, #4]
 8005efc:	2239      	movs	r2, #57	; 0x39
 8005efe:	2101      	movs	r1, #1
 8005f00:	5499      	strb	r1, [r3, r2]

  return HAL_OK;
 8005f02:	2300      	movs	r3, #0
}
 8005f04:	0018      	movs	r0, r3
 8005f06:	46bd      	mov	sp, r7
 8005f08:	b002      	add	sp, #8
 8005f0a:	bd80      	pop	{r7, pc}

08005f0c <HAL_TIM_OC_MspInit>:
  * @brief  Initializes the TIM Output Compare MSP.
  * @param  htim TIM Output Compare handle
  * @retval None
  */
__weak void HAL_TIM_OC_MspInit(TIM_HandleTypeDef *htim)
{
 8005f0c:	b580      	push	{r7, lr}
 8005f0e:	b082      	sub	sp, #8
 8005f10:	af00      	add	r7, sp, #0
 8005f12:	6078      	str	r0, [r7, #4]
  UNUSED(htim);

  /* NOTE : This function should not be modified, when the callback is needed,
            the HAL_TIM_OC_MspInit could be implemented in the user file
   */
}
 8005f14:	46c0      	nop			; (mov r8, r8)
 8005f16:	46bd      	mov	sp, r7
 8005f18:	b002      	add	sp, #8
 8005f1a:	bd80      	pop	{r7, pc}

08005f1c <HAL_TIM_OC_Start_IT>:
  *            @arg TIM_CHANNEL_3: TIM Channel 3 selected
  *            @arg TIM_CHANNEL_4: TIM Channel 4 selected
  * @retval HAL status
  */
HAL_StatusTypeDef HAL_TIM_OC_Start_IT(TIM_HandleTypeDef *htim, uint32_t Channel)
{
 8005f1c:	b580      	push	{r7, lr}
 8005f1e:	b084      	sub	sp, #16
 8005f20:	af00      	add	r7, sp, #0
 8005f22:	6078      	str	r0, [r7, #4]
 8005f24:	6039      	str	r1, [r7, #0]
  HAL_StatusTypeDef status = HAL_OK;
 8005f26:	230f      	movs	r3, #15
 8005f28:	18fb      	adds	r3, r7, r3
 8005f2a:	2200      	movs	r2, #0
 8005f2c:	701a      	strb	r2, [r3, #0]

  /* Check the parameters */
  assert_param(IS_TIM_CCX_INSTANCE(htim->Instance, Channel));

  /* Check the TIM channel state */
  if (TIM_CHANNEL_STATE_GET(htim, Channel) != HAL_TIM_CHANNEL_STATE_READY)
 8005f2e:	683b      	ldr	r3, [r7, #0]
 8005f30:	2b00      	cmp	r3, #0
 8005f32:	d108      	bne.n	8005f46 <HAL_TIM_OC_Start_IT+0x2a>
 8005f34:	687b      	ldr	r3, [r7, #4]
 8005f36:	223a      	movs	r2, #58	; 0x3a
 8005f38:	5c9b      	ldrb	r3, [r3, r2]
 8005f3a:	b2db      	uxtb	r3, r3
 8005f3c:	3b01      	subs	r3, #1
 8005f3e:	1e5a      	subs	r2, r3, #1
 8005f40:	4193      	sbcs	r3, r2
 8005f42:	b2db      	uxtb	r3, r3
 8005f44:	e01f      	b.n	8005f86 <HAL_TIM_OC_Start_IT+0x6a>
 8005f46:	683b      	ldr	r3, [r7, #0]
 8005f48:	2b04      	cmp	r3, #4
 8005f4a:	d108      	bne.n	8005f5e <HAL_TIM_OC_Start_IT+0x42>
 8005f4c:	687b      	ldr	r3, [r7, #4]
 8005f4e:	223b      	movs	r2, #59	; 0x3b
 8005f50:	5c9b      	ldrb	r3, [r3, r2]
 8005f52:	b2db      	uxtb	r3, r3
 8005f54:	3b01      	subs	r3, #1
 8005f56:	1e5a      	subs	r2, r3, #1
 8005f58:	4193      	sbcs	r3, r2
 8005f5a:	b2db      	uxtb	r3, r3
 8005f5c:	e013      	b.n	8005f86 <HAL_TIM_OC_Start_IT+0x6a>
 8005f5e:	683b      	ldr	r3, [r7, #0]
 8005f60:	2b08      	cmp	r3, #8
 8005f62:	d108      	bne.n	8005f76 <HAL_TIM_OC_Start_IT+0x5a>
 8005f64:	687b      	ldr	r3, [r7, #4]
 8005f66:	223c      	movs	r2, #60	; 0x3c
 8005f68:	5c9b      	ldrb	r3, [r3, r2]
 8005f6a:	b2db      	uxtb	r3, r3
 8005f6c:	3b01      	subs	r3, #1
 8005f6e:	1e5a      	subs	r2, r3, #1
 8005f70:	4193      	sbcs	r3, r2
 8005f72:	b2db      	uxtb	r3, r3
 8005f74:	e007      	b.n	8005f86 <HAL_TIM_OC_Start_IT+0x6a>
 8005f76:	687b      	ldr	r3, [r7, #4]
 8005f78:	223d      	movs	r2, #61	; 0x3d
 8005f7a:	5c9b      	ldrb	r3, [r3, r2]
 8005f7c:	b2db      	uxtb	r3, r3
 8005f7e:	3b01      	subs	r3, #1
 8005f80:	1e5a      	subs	r2, r3, #1
 8005f82:	4193      	sbcs	r3, r2
 8005f84:	b2db      	uxtb	r3, r3
 8005f86:	2b00      	cmp	r3, #0
 8005f88:	d001      	beq.n	8005f8e <HAL_TIM_OC_Start_IT+0x72>
  {
    return HAL_ERROR;
 8005f8a:	2301      	movs	r3, #1
 8005f8c:	e090      	b.n	80060b0 <HAL_TIM_OC_Start_IT+0x194>
  }

  /* Set the TIM channel state */
  TIM_CHANNEL_STATE_SET(htim, Channel, HAL_TIM_CHANNEL_STATE_BUSY);
 8005f8e:	683b      	ldr	r3, [r7, #0]
 8005f90:	2b00      	cmp	r3, #0
 8005f92:	d104      	bne.n	8005f9e <HAL_TIM_OC_Start_IT+0x82>
 8005f94:	687b      	ldr	r3, [r7, #4]
 8005f96:	223a      	movs	r2, #58	; 0x3a
 8005f98:	2102      	movs	r1, #2
 8005f9a:	5499      	strb	r1, [r3, r2]
 8005f9c:	e013      	b.n	8005fc6 <HAL_TIM_OC_Start_IT+0xaa>
 8005f9e:	683b      	ldr	r3, [r7, #0]
 8005fa0:	2b04      	cmp	r3, #4
 8005fa2:	d104      	bne.n	8005fae <HAL_TIM_OC_Start_IT+0x92>
 8005fa4:	687b      	ldr	r3, [r7, #4]
 8005fa6:	223b      	movs	r2, #59	; 0x3b
 8005fa8:	2102      	movs	r1, #2
 8005faa:	5499      	strb	r1, [r3, r2]
 8005fac:	e00b      	b.n	8005fc6 <HAL_TIM_OC_Start_IT+0xaa>
 8005fae:	683b      	ldr	r3, [r7, #0]
 8005fb0:	2b08      	cmp	r3, #8
 8005fb2:	d104      	bne.n	8005fbe <HAL_TIM_OC_Start_IT+0xa2>
 8005fb4:	687b      	ldr	r3, [r7, #4]
 8005fb6:	223c      	movs	r2, #60	; 0x3c
 8005fb8:	2102      	movs	r1, #2
 8005fba:	5499      	strb	r1, [r3, r2]
 8005fbc:	e003      	b.n	8005fc6 <HAL_TIM_OC_Start_IT+0xaa>
 8005fbe:	687b      	ldr	r3, [r7, #4]
 8005fc0:	223d      	movs	r2, #61	; 0x3d
 8005fc2:	2102      	movs	r1, #2
 8005fc4:	5499      	strb	r1, [r3, r2]

  switch (Channel)
 8005fc6:	683b      	ldr	r3, [r7, #0]
 8005fc8:	2b0c      	cmp	r3, #12
 8005fca:	d02a      	beq.n	8006022 <HAL_TIM_OC_Start_IT+0x106>
 8005fcc:	683b      	ldr	r3, [r7, #0]
 8005fce:	2b0c      	cmp	r3, #12
 8005fd0:	d830      	bhi.n	8006034 <HAL_TIM_OC_Start_IT+0x118>
 8005fd2:	683b      	ldr	r3, [r7, #0]
 8005fd4:	2b08      	cmp	r3, #8
 8005fd6:	d01b      	beq.n	8006010 <HAL_TIM_OC_Start_IT+0xf4>
 8005fd8:	683b      	ldr	r3, [r7, #0]
 8005fda:	2b08      	cmp	r3, #8
 8005fdc:	d82a      	bhi.n	8006034 <HAL_TIM_OC_Start_IT+0x118>
 8005fde:	683b      	ldr	r3, [r7, #0]
 8005fe0:	2b00      	cmp	r3, #0
 8005fe2:	d003      	beq.n	8005fec <HAL_TIM_OC_Start_IT+0xd0>
 8005fe4:	683b      	ldr	r3, [r7, #0]
 8005fe6:	2b04      	cmp	r3, #4
 8005fe8:	d009      	beq.n	8005ffe <HAL_TIM_OC_Start_IT+0xe2>
 8005fea:	e023      	b.n	8006034 <HAL_TIM_OC_Start_IT+0x118>
  {
    case TIM_CHANNEL_1:
    {
      /* Enable the TIM Capture/Compare 1 interrupt */
      __HAL_TIM_ENABLE_IT(htim, TIM_IT_CC1);
 8005fec:	687b      	ldr	r3, [r7, #4]
 8005fee:	681b      	ldr	r3, [r3, #0]
 8005ff0:	68da      	ldr	r2, [r3, #12]
 8005ff2:	687b      	ldr	r3, [r7, #4]
 8005ff4:	681b      	ldr	r3, [r3, #0]
 8005ff6:	2102      	movs	r1, #2
 8005ff8:	430a      	orrs	r2, r1
 8005ffa:	60da      	str	r2, [r3, #12]
      break;
 8005ffc:	e01f      	b.n	800603e <HAL_TIM_OC_Start_IT+0x122>
    }

    case TIM_CHANNEL_2:
    {
      /* Enable the TIM Capture/Compare 2 interrupt */
      __HAL_TIM_ENABLE_IT(htim, TIM_IT_CC2);
 8005ffe:	687b      	ldr	r3, [r7, #4]
 8006000:	681b      	ldr	r3, [r3, #0]
 8006002:	68da      	ldr	r2, [r3, #12]
 8006004:	687b      	ldr	r3, [r7, #4]
 8006006:	681b      	ldr	r3, [r3, #0]
 8006008:	2104      	movs	r1, #4
 800600a:	430a      	orrs	r2, r1
 800600c:	60da      	str	r2, [r3, #12]
      break;
 800600e:	e016      	b.n	800603e <HAL_TIM_OC_Start_IT+0x122>
    }

    case TIM_CHANNEL_3:
    {
      /* Enable the TIM Capture/Compare 3 interrupt */
      __HAL_TIM_ENABLE_IT(htim, TIM_IT_CC3);
 8006010:	687b      	ldr	r3, [r7, #4]
 8006012:	681b      	ldr	r3, [r3, #0]
 8006014:	68da      	ldr	r2, [r3, #12]
 8006016:	687b      	ldr	r3, [r7, #4]
 8006018:	681b      	ldr	r3, [r3, #0]
 800601a:	2108      	movs	r1, #8
 800601c:	430a      	orrs	r2, r1
 800601e:	60da      	str	r2, [r3, #12]
      break;
 8006020:	e00d      	b.n	800603e <HAL_TIM_OC_Start_IT+0x122>
    }

    case TIM_CHANNEL_4:
    {
      /* Enable the TIM Capture/Compare 4 interrupt */
      __HAL_TIM_ENABLE_IT(htim, TIM_IT_CC4);
 8006022:	687b      	ldr	r3, [r7, #4]
 8006024:	681b      	ldr	r3, [r3, #0]
 8006026:	68da      	ldr	r2, [r3, #12]
 8006028:	687b      	ldr	r3, [r7, #4]
 800602a:	681b      	ldr	r3, [r3, #0]
 800602c:	2110      	movs	r1, #16
 800602e:	430a      	orrs	r2, r1
 8006030:	60da      	str	r2, [r3, #12]
      break;
 8006032:	e004      	b.n	800603e <HAL_TIM_OC_Start_IT+0x122>
    }

    default:
      status = HAL_ERROR;
 8006034:	230f      	movs	r3, #15
 8006036:	18fb      	adds	r3, r7, r3
 8006038:	2201      	movs	r2, #1
 800603a:	701a      	strb	r2, [r3, #0]
      break;
 800603c:	46c0      	nop			; (mov r8, r8)
  }

  if (status == HAL_OK)
 800603e:	230f      	movs	r3, #15
 8006040:	18fb      	adds	r3, r7, r3
 8006042:	781b      	ldrb	r3, [r3, #0]
 8006044:	2b00      	cmp	r3, #0
 8006046:	d130      	bne.n	80060aa <HAL_TIM_OC_Start_IT+0x18e>
  {
    /* Enable the Output compare channel */
    TIM_CCxChannelCmd(htim->Instance, Channel, TIM_CCx_ENABLE);
 8006048:	687b      	ldr	r3, [r7, #4]
 800604a:	681b      	ldr	r3, [r3, #0]
 800604c:	6839      	ldr	r1, [r7, #0]
 800604e:	2201      	movs	r2, #1
 8006050:	0018      	movs	r0, r3
 8006052:	f001 f877 	bl	8007144 <TIM_CCxChannelCmd>

    /* Enable the Peripheral, except in trigger mode where enable is automatically done with trigger */
    if (IS_TIM_SLAVE_INSTANCE(htim->Instance))
 8006056:	687b      	ldr	r3, [r7, #4]
 8006058:	681a      	ldr	r2, [r3, #0]
 800605a:	2380      	movs	r3, #128	; 0x80
 800605c:	05db      	lsls	r3, r3, #23
 800605e:	429a      	cmp	r2, r3
 8006060:	d009      	beq.n	8006076 <HAL_TIM_OC_Start_IT+0x15a>
 8006062:	687b      	ldr	r3, [r7, #4]
 8006064:	681b      	ldr	r3, [r3, #0]
 8006066:	4a14      	ldr	r2, [pc, #80]	; (80060b8 <HAL_TIM_OC_Start_IT+0x19c>)
 8006068:	4293      	cmp	r3, r2
 800606a:	d004      	beq.n	8006076 <HAL_TIM_OC_Start_IT+0x15a>
 800606c:	687b      	ldr	r3, [r7, #4]
 800606e:	681b      	ldr	r3, [r3, #0]
 8006070:	4a12      	ldr	r2, [pc, #72]	; (80060bc <HAL_TIM_OC_Start_IT+0x1a0>)
 8006072:	4293      	cmp	r3, r2
 8006074:	d111      	bne.n	800609a <HAL_TIM_OC_Start_IT+0x17e>
    {
      tmpsmcr = htim->Instance->SMCR & TIM_SMCR_SMS;
 8006076:	687b      	ldr	r3, [r7, #4]
 8006078:	681b      	ldr	r3, [r3, #0]
 800607a:	689b      	ldr	r3, [r3, #8]
 800607c:	2207      	movs	r2, #7
 800607e:	4013      	ands	r3, r2
 8006080:	60bb      	str	r3, [r7, #8]
      if (!IS_TIM_SLAVEMODE_TRIGGER_ENABLED(tmpsmcr))
 8006082:	68bb      	ldr	r3, [r7, #8]
 8006084:	2b06      	cmp	r3, #6
 8006086:	d010      	beq.n	80060aa <HAL_TIM_OC_Start_IT+0x18e>
      {
        __HAL_TIM_ENABLE(htim);
 8006088:	687b      	ldr	r3, [r7, #4]
 800608a:	681b      	ldr	r3, [r3, #0]
 800608c:	681a      	ldr	r2, [r3, #0]
 800608e:	687b      	ldr	r3, [r7, #4]
 8006090:	681b      	ldr	r3, [r3, #0]
 8006092:	2101      	movs	r1, #1
 8006094:	430a      	orrs	r2, r1
 8006096:	601a      	str	r2, [r3, #0]
      if (!IS_TIM_SLAVEMODE_TRIGGER_ENABLED(tmpsmcr))
 8006098:	e007      	b.n	80060aa <HAL_TIM_OC_Start_IT+0x18e>
      }
    }
    else
    {
      __HAL_TIM_ENABLE(htim);
 800609a:	687b      	ldr	r3, [r7, #4]
 800609c:	681b      	ldr	r3, [r3, #0]
 800609e:	681a      	ldr	r2, [r3, #0]
 80060a0:	687b      	ldr	r3, [r7, #4]
 80060a2:	681b      	ldr	r3, [r3, #0]
 80060a4:	2101      	movs	r1, #1
 80060a6:	430a      	orrs	r2, r1
 80060a8:	601a      	str	r2, [r3, #0]
    }
  }

  /* Return function status */
  return status;
 80060aa:	230f      	movs	r3, #15
 80060ac:	18fb      	adds	r3, r7, r3
 80060ae:	781b      	ldrb	r3, [r3, #0]
}
 80060b0:	0018      	movs	r0, r3
 80060b2:	46bd      	mov	sp, r7
 80060b4:	b004      	add	sp, #16
 80060b6:	bd80      	pop	{r7, pc}
 80060b8:	40010800 	.word	0x40010800
 80060bc:	40011400 	.word	0x40011400

080060c0 <HAL_TIM_PWM_Init>:
  *         Ex: call @ref HAL_TIM_PWM_DeInit() before HAL_TIM_PWM_Init()
  * @param  htim TIM PWM handle
  * @retval HAL status
  */
HAL_StatusTypeDef HAL_TIM_PWM_Init(TIM_HandleTypeDef *htim)
{
 80060c0:	b580      	push	{r7, lr}
 80060c2:	b082      	sub	sp, #8
 80060c4:	af00      	add	r7, sp, #0
 80060c6:	6078      	str	r0, [r7, #4]
  /* Check the TIM handle allocation */
  if (htim == NULL)
 80060c8:	687b      	ldr	r3, [r7, #4]
 80060ca:	2b00      	cmp	r3, #0
 80060cc:	d101      	bne.n	80060d2 <HAL_TIM_PWM_Init+0x12>
  {
    return HAL_ERROR;
 80060ce:	2301      	movs	r3, #1
 80060d0:	e032      	b.n	8006138 <HAL_TIM_PWM_Init+0x78>
  assert_param(IS_TIM_CLOCKDIVISION_DIV(htim->Init.ClockDivision));
  assert_param(IS_TIM_PERIOD(htim->Init.Period));
  assert_param(IS_TIM_PRESCALER(htim->Init.Prescaler));
  assert_param(IS_TIM_AUTORELOAD_PRELOAD(htim->Init.AutoReloadPreload));

  if (htim->State == HAL_TIM_STATE_RESET)
 80060d2:	687b      	ldr	r3, [r7, #4]
 80060d4:	2239      	movs	r2, #57	; 0x39
 80060d6:	5c9b      	ldrb	r3, [r3, r2]
 80060d8:	b2db      	uxtb	r3, r3
 80060da:	2b00      	cmp	r3, #0
 80060dc:	d107      	bne.n	80060ee <HAL_TIM_PWM_Init+0x2e>
  {
    /* Allocate lock resource and initialize it */
    htim->Lock = HAL_UNLOCKED;
 80060de:	687b      	ldr	r3, [r7, #4]
 80060e0:	2238      	movs	r2, #56	; 0x38
 80060e2:	2100      	movs	r1, #0
 80060e4:	5499      	strb	r1, [r3, r2]
    }
    /* Init the low level hardware : GPIO, CLOCK, NVIC */
    htim->PWM_MspInitCallback(htim);
#else
    /* Init the low level hardware : GPIO, CLOCK, NVIC and DMA */
    HAL_TIM_PWM_MspInit(htim);
 80060e6:	687b      	ldr	r3, [r7, #4]
 80060e8:	0018      	movs	r0, r3
 80060ea:	f000 f829 	bl	8006140 <HAL_TIM_PWM_MspInit>
#endif /* USE_HAL_TIM_REGISTER_CALLBACKS */
  }

  /* Set the TIM state */
  htim->State = HAL_TIM_STATE_BUSY;
 80060ee:	687b      	ldr	r3, [r7, #4]
 80060f0:	2239      	movs	r2, #57	; 0x39
 80060f2:	2102      	movs	r1, #2
 80060f4:	5499      	strb	r1, [r3, r2]

  /* Init the base time for the PWM */
  TIM_Base_SetConfig(htim->Instance, &htim->Init);
 80060f6:	687b      	ldr	r3, [r7, #4]
 80060f8:	681a      	ldr	r2, [r3, #0]
 80060fa:	687b      	ldr	r3, [r7, #4]
 80060fc:	3304      	adds	r3, #4
 80060fe:	0019      	movs	r1, r3
 8006100:	0010      	movs	r0, r2
 8006102:	f000 fe2d 	bl	8006d60 <TIM_Base_SetConfig>

  /* Initialize the DMA burst operation state */
  htim->DMABurstState = HAL_DMA_BURST_STATE_READY;
 8006106:	687b      	ldr	r3, [r7, #4]
 8006108:	223e      	movs	r2, #62	; 0x3e
 800610a:	2101      	movs	r1, #1
 800610c:	5499      	strb	r1, [r3, r2]

  /* Initialize the TIM channels state */
  TIM_CHANNEL_STATE_SET_ALL(htim, HAL_TIM_CHANNEL_STATE_READY);
 800610e:	687b      	ldr	r3, [r7, #4]
 8006110:	223a      	movs	r2, #58	; 0x3a
 8006112:	2101      	movs	r1, #1
 8006114:	5499      	strb	r1, [r3, r2]
 8006116:	687b      	ldr	r3, [r7, #4]
 8006118:	223b      	movs	r2, #59	; 0x3b
 800611a:	2101      	movs	r1, #1
 800611c:	5499      	strb	r1, [r3, r2]
 800611e:	687b      	ldr	r3, [r7, #4]
 8006120:	223c      	movs	r2, #60	; 0x3c
 8006122:	2101      	movs	r1, #1
 8006124:	5499      	strb	r1, [r3, r2]
 8006126:	687b      	ldr	r3, [r7, #4]
 8006128:	223d      	movs	r2, #61	; 0x3d
 800612a:	2101      	movs	r1, #1
 800612c:	5499      	strb	r1, [r3, r2]

  /* Initialize the TIM state*/
  htim->State = HAL_TIM_STATE_READY;
 800612e:	687b      	ldr	r3, [r7, #4]
 8006130:	2239      	movs	r2, #57	; 0x39
 8006132:	2101      	movs	r1, #1
 8006134:	5499      	strb	r1, [r3, r2]

  return HAL_OK;
 8006136:	2300      	movs	r3, #0
}
 8006138:	0018      	movs	r0, r3
 800613a:	46bd      	mov	sp, r7
 800613c:	b002      	add	sp, #8
 800613e:	bd80      	pop	{r7, pc}

08006140 <HAL_TIM_PWM_MspInit>:
  * @brief  Initializes the TIM PWM MSP.
  * @param  htim TIM PWM handle
  * @retval None
  */
__weak void HAL_TIM_PWM_MspInit(TIM_HandleTypeDef *htim)
{
 8006140:	b580      	push	{r7, lr}
 8006142:	b082      	sub	sp, #8
 8006144:	af00      	add	r7, sp, #0
 8006146:	6078      	str	r0, [r7, #4]
  UNUSED(htim);

  /* NOTE : This function should not be modified, when the callback is needed,
            the HAL_TIM_PWM_MspInit could be implemented in the user file
   */
}
 8006148:	46c0      	nop			; (mov r8, r8)
 800614a:	46bd      	mov	sp, r7
 800614c:	b002      	add	sp, #8
 800614e:	bd80      	pop	{r7, pc}

08006150 <HAL_TIM_PWM_Start_DMA>:
  * @param  Length The length of data to be transferred from memory to TIM peripheral
  * @retval HAL status
  */
HAL_StatusTypeDef HAL_TIM_PWM_Start_DMA(TIM_HandleTypeDef *htim, uint32_t Channel, const uint32_t *pData,
                                        uint16_t Length)
{
 8006150:	b580      	push	{r7, lr}
 8006152:	b086      	sub	sp, #24
 8006154:	af00      	add	r7, sp, #0
 8006156:	60f8      	str	r0, [r7, #12]
 8006158:	60b9      	str	r1, [r7, #8]
 800615a:	607a      	str	r2, [r7, #4]
 800615c:	001a      	movs	r2, r3
 800615e:	1cbb      	adds	r3, r7, #2
 8006160:	801a      	strh	r2, [r3, #0]
  HAL_StatusTypeDef status = HAL_OK;
 8006162:	2317      	movs	r3, #23
 8006164:	18fb      	adds	r3, r7, r3
 8006166:	2200      	movs	r2, #0
 8006168:	701a      	strb	r2, [r3, #0]

  /* Check the parameters */
  assert_param(IS_TIM_CCX_INSTANCE(htim->Instance, Channel));

  /* Set the TIM channel state */
  if (TIM_CHANNEL_STATE_GET(htim, Channel) == HAL_TIM_CHANNEL_STATE_BUSY)
 800616a:	68bb      	ldr	r3, [r7, #8]
 800616c:	2b00      	cmp	r3, #0
 800616e:	d108      	bne.n	8006182 <HAL_TIM_PWM_Start_DMA+0x32>
 8006170:	68fb      	ldr	r3, [r7, #12]
 8006172:	223a      	movs	r2, #58	; 0x3a
 8006174:	5c9b      	ldrb	r3, [r3, r2]
 8006176:	b2db      	uxtb	r3, r3
 8006178:	3b02      	subs	r3, #2
 800617a:	425a      	negs	r2, r3
 800617c:	4153      	adcs	r3, r2
 800617e:	b2db      	uxtb	r3, r3
 8006180:	e01f      	b.n	80061c2 <HAL_TIM_PWM_Start_DMA+0x72>
 8006182:	68bb      	ldr	r3, [r7, #8]
 8006184:	2b04      	cmp	r3, #4
 8006186:	d108      	bne.n	800619a <HAL_TIM_PWM_Start_DMA+0x4a>
 8006188:	68fb      	ldr	r3, [r7, #12]
 800618a:	223b      	movs	r2, #59	; 0x3b
 800618c:	5c9b      	ldrb	r3, [r3, r2]
 800618e:	b2db      	uxtb	r3, r3
 8006190:	3b02      	subs	r3, #2
 8006192:	425a      	negs	r2, r3
 8006194:	4153      	adcs	r3, r2
 8006196:	b2db      	uxtb	r3, r3
 8006198:	e013      	b.n	80061c2 <HAL_TIM_PWM_Start_DMA+0x72>
 800619a:	68bb      	ldr	r3, [r7, #8]
 800619c:	2b08      	cmp	r3, #8
 800619e:	d108      	bne.n	80061b2 <HAL_TIM_PWM_Start_DMA+0x62>
 80061a0:	68fb      	ldr	r3, [r7, #12]
 80061a2:	223c      	movs	r2, #60	; 0x3c
 80061a4:	5c9b      	ldrb	r3, [r3, r2]
 80061a6:	b2db      	uxtb	r3, r3
 80061a8:	3b02      	subs	r3, #2
 80061aa:	425a      	negs	r2, r3
 80061ac:	4153      	adcs	r3, r2
 80061ae:	b2db      	uxtb	r3, r3
 80061b0:	e007      	b.n	80061c2 <HAL_TIM_PWM_Start_DMA+0x72>
 80061b2:	68fb      	ldr	r3, [r7, #12]
 80061b4:	223d      	movs	r2, #61	; 0x3d
 80061b6:	5c9b      	ldrb	r3, [r3, r2]
 80061b8:	b2db      	uxtb	r3, r3
 80061ba:	3b02      	subs	r3, #2
 80061bc:	425a      	negs	r2, r3
 80061be:	4153      	adcs	r3, r2
 80061c0:	b2db      	uxtb	r3, r3
 80061c2:	2b00      	cmp	r3, #0
 80061c4:	d001      	beq.n	80061ca <HAL_TIM_PWM_Start_DMA+0x7a>
  {
    return HAL_BUSY;
 80061c6:	2302      	movs	r3, #2
 80061c8:	e13d      	b.n	8006446 <HAL_TIM_PWM_Start_DMA+0x2f6>
  }
  else if (TIM_CHANNEL_STATE_GET(htim, Channel) == HAL_TIM_CHANNEL_STATE_READY)
 80061ca:	68bb      	ldr	r3, [r7, #8]
 80061cc:	2b00      	cmp	r3, #0
 80061ce:	d108      	bne.n	80061e2 <HAL_TIM_PWM_Start_DMA+0x92>
 80061d0:	68fb      	ldr	r3, [r7, #12]
 80061d2:	223a      	movs	r2, #58	; 0x3a
 80061d4:	5c9b      	ldrb	r3, [r3, r2]
 80061d6:	b2db      	uxtb	r3, r3
 80061d8:	3b01      	subs	r3, #1
 80061da:	425a      	negs	r2, r3
 80061dc:	4153      	adcs	r3, r2
 80061de:	b2db      	uxtb	r3, r3
 80061e0:	e01f      	b.n	8006222 <HAL_TIM_PWM_Start_DMA+0xd2>
 80061e2:	68bb      	ldr	r3, [r7, #8]
 80061e4:	2b04      	cmp	r3, #4
 80061e6:	d108      	bne.n	80061fa <HAL_TIM_PWM_Start_DMA+0xaa>
 80061e8:	68fb      	ldr	r3, [r7, #12]
 80061ea:	223b      	movs	r2, #59	; 0x3b
 80061ec:	5c9b      	ldrb	r3, [r3, r2]
 80061ee:	b2db      	uxtb	r3, r3
 80061f0:	3b01      	subs	r3, #1
 80061f2:	425a      	negs	r2, r3
 80061f4:	4153      	adcs	r3, r2
 80061f6:	b2db      	uxtb	r3, r3
 80061f8:	e013      	b.n	8006222 <HAL_TIM_PWM_Start_DMA+0xd2>
 80061fa:	68bb      	ldr	r3, [r7, #8]
 80061fc:	2b08      	cmp	r3, #8
 80061fe:	d108      	bne.n	8006212 <HAL_TIM_PWM_Start_DMA+0xc2>
 8006200:	68fb      	ldr	r3, [r7, #12]
 8006202:	223c      	movs	r2, #60	; 0x3c
 8006204:	5c9b      	ldrb	r3, [r3, r2]
 8006206:	b2db      	uxtb	r3, r3
 8006208:	3b01      	subs	r3, #1
 800620a:	425a      	negs	r2, r3
 800620c:	4153      	adcs	r3, r2
 800620e:	b2db      	uxtb	r3, r3
 8006210:	e007      	b.n	8006222 <HAL_TIM_PWM_Start_DMA+0xd2>
 8006212:	68fb      	ldr	r3, [r7, #12]
 8006214:	223d      	movs	r2, #61	; 0x3d
 8006216:	5c9b      	ldrb	r3, [r3, r2]
 8006218:	b2db      	uxtb	r3, r3
 800621a:	3b01      	subs	r3, #1
 800621c:	425a      	negs	r2, r3
 800621e:	4153      	adcs	r3, r2
 8006220:	b2db      	uxtb	r3, r3
 8006222:	2b00      	cmp	r3, #0
 8006224:	d025      	beq.n	8006272 <HAL_TIM_PWM_Start_DMA+0x122>
  {
    if ((pData == NULL) || (Length == 0U))
 8006226:	687b      	ldr	r3, [r7, #4]
 8006228:	2b00      	cmp	r3, #0
 800622a:	d003      	beq.n	8006234 <HAL_TIM_PWM_Start_DMA+0xe4>
 800622c:	1cbb      	adds	r3, r7, #2
 800622e:	881b      	ldrh	r3, [r3, #0]
 8006230:	2b00      	cmp	r3, #0
 8006232:	d101      	bne.n	8006238 <HAL_TIM_PWM_Start_DMA+0xe8>
    {
      return HAL_ERROR;
 8006234:	2301      	movs	r3, #1
 8006236:	e106      	b.n	8006446 <HAL_TIM_PWM_Start_DMA+0x2f6>
    }
    else
    {
      TIM_CHANNEL_STATE_SET(htim, Channel, HAL_TIM_CHANNEL_STATE_BUSY);
 8006238:	68bb      	ldr	r3, [r7, #8]
 800623a:	2b00      	cmp	r3, #0
 800623c:	d104      	bne.n	8006248 <HAL_TIM_PWM_Start_DMA+0xf8>
 800623e:	68fb      	ldr	r3, [r7, #12]
 8006240:	223a      	movs	r2, #58	; 0x3a
 8006242:	2102      	movs	r1, #2
 8006244:	5499      	strb	r1, [r3, r2]
 8006246:	e016      	b.n	8006276 <HAL_TIM_PWM_Start_DMA+0x126>
 8006248:	68bb      	ldr	r3, [r7, #8]
 800624a:	2b04      	cmp	r3, #4
 800624c:	d104      	bne.n	8006258 <HAL_TIM_PWM_Start_DMA+0x108>
 800624e:	68fb      	ldr	r3, [r7, #12]
 8006250:	223b      	movs	r2, #59	; 0x3b
 8006252:	2102      	movs	r1, #2
 8006254:	5499      	strb	r1, [r3, r2]
 8006256:	e00e      	b.n	8006276 <HAL_TIM_PWM_Start_DMA+0x126>
 8006258:	68bb      	ldr	r3, [r7, #8]
 800625a:	2b08      	cmp	r3, #8
 800625c:	d104      	bne.n	8006268 <HAL_TIM_PWM_Start_DMA+0x118>
 800625e:	68fb      	ldr	r3, [r7, #12]
 8006260:	223c      	movs	r2, #60	; 0x3c
 8006262:	2102      	movs	r1, #2
 8006264:	5499      	strb	r1, [r3, r2]
 8006266:	e006      	b.n	8006276 <HAL_TIM_PWM_Start_DMA+0x126>
 8006268:	68fb      	ldr	r3, [r7, #12]
 800626a:	223d      	movs	r2, #61	; 0x3d
 800626c:	2102      	movs	r1, #2
 800626e:	5499      	strb	r1, [r3, r2]
 8006270:	e001      	b.n	8006276 <HAL_TIM_PWM_Start_DMA+0x126>
    }
  }
  else
  {
    return HAL_ERROR;
 8006272:	2301      	movs	r3, #1
 8006274:	e0e7      	b.n	8006446 <HAL_TIM_PWM_Start_DMA+0x2f6>
  }

  switch (Channel)
 8006276:	68bb      	ldr	r3, [r7, #8]
 8006278:	2b0c      	cmp	r3, #12
 800627a:	d100      	bne.n	800627e <HAL_TIM_PWM_Start_DMA+0x12e>
 800627c:	e080      	b.n	8006380 <HAL_TIM_PWM_Start_DMA+0x230>
 800627e:	68bb      	ldr	r3, [r7, #8]
 8006280:	2b0c      	cmp	r3, #12
 8006282:	d900      	bls.n	8006286 <HAL_TIM_PWM_Start_DMA+0x136>
 8006284:	e0a1      	b.n	80063ca <HAL_TIM_PWM_Start_DMA+0x27a>
 8006286:	68bb      	ldr	r3, [r7, #8]
 8006288:	2b08      	cmp	r3, #8
 800628a:	d054      	beq.n	8006336 <HAL_TIM_PWM_Start_DMA+0x1e6>
 800628c:	68bb      	ldr	r3, [r7, #8]
 800628e:	2b08      	cmp	r3, #8
 8006290:	d900      	bls.n	8006294 <HAL_TIM_PWM_Start_DMA+0x144>
 8006292:	e09a      	b.n	80063ca <HAL_TIM_PWM_Start_DMA+0x27a>
 8006294:	68bb      	ldr	r3, [r7, #8]
 8006296:	2b00      	cmp	r3, #0
 8006298:	d003      	beq.n	80062a2 <HAL_TIM_PWM_Start_DMA+0x152>
 800629a:	68bb      	ldr	r3, [r7, #8]
 800629c:	2b04      	cmp	r3, #4
 800629e:	d025      	beq.n	80062ec <HAL_TIM_PWM_Start_DMA+0x19c>
 80062a0:	e093      	b.n	80063ca <HAL_TIM_PWM_Start_DMA+0x27a>
  {
    case TIM_CHANNEL_1:
    {
      /* Set the DMA compare callbacks */
      htim->hdma[TIM_DMA_ID_CC1]->XferCpltCallback = TIM_DMADelayPulseCplt;
 80062a2:	68fb      	ldr	r3, [r7, #12]
 80062a4:	6a1b      	ldr	r3, [r3, #32]
 80062a6:	4a6a      	ldr	r2, [pc, #424]	; (8006450 <HAL_TIM_PWM_Start_DMA+0x300>)
 80062a8:	62da      	str	r2, [r3, #44]	; 0x2c
      htim->hdma[TIM_DMA_ID_CC1]->XferHalfCpltCallback = TIM_DMADelayPulseHalfCplt;
 80062aa:	68fb      	ldr	r3, [r7, #12]
 80062ac:	6a1b      	ldr	r3, [r3, #32]
 80062ae:	4a69      	ldr	r2, [pc, #420]	; (8006454 <HAL_TIM_PWM_Start_DMA+0x304>)
 80062b0:	631a      	str	r2, [r3, #48]	; 0x30

      /* Set the DMA error callback */
      htim->hdma[TIM_DMA_ID_CC1]->XferErrorCallback = TIM_DMAError ;
 80062b2:	68fb      	ldr	r3, [r7, #12]
 80062b4:	6a1b      	ldr	r3, [r3, #32]
 80062b6:	4a68      	ldr	r2, [pc, #416]	; (8006458 <HAL_TIM_PWM_Start_DMA+0x308>)
 80062b8:	635a      	str	r2, [r3, #52]	; 0x34

      /* Enable the DMA channel */
      if (HAL_DMA_Start_IT(htim->hdma[TIM_DMA_ID_CC1], (uint32_t)pData, (uint32_t)&htim->Instance->CCR1,
 80062ba:	68fb      	ldr	r3, [r7, #12]
 80062bc:	6a18      	ldr	r0, [r3, #32]
 80062be:	6879      	ldr	r1, [r7, #4]
 80062c0:	68fb      	ldr	r3, [r7, #12]
 80062c2:	681b      	ldr	r3, [r3, #0]
 80062c4:	3334      	adds	r3, #52	; 0x34
 80062c6:	001a      	movs	r2, r3
 80062c8:	1cbb      	adds	r3, r7, #2
 80062ca:	881b      	ldrh	r3, [r3, #0]
 80062cc:	f7fd f986 	bl	80035dc <HAL_DMA_Start_IT>
 80062d0:	1e03      	subs	r3, r0, #0
 80062d2:	d001      	beq.n	80062d8 <HAL_TIM_PWM_Start_DMA+0x188>
                           Length) != HAL_OK)
      {
        /* Return error status */
        return HAL_ERROR;
 80062d4:	2301      	movs	r3, #1
 80062d6:	e0b6      	b.n	8006446 <HAL_TIM_PWM_Start_DMA+0x2f6>
      }

      /* Enable the TIM Capture/Compare 1 DMA request */
      __HAL_TIM_ENABLE_DMA(htim, TIM_DMA_CC1);
 80062d8:	68fb      	ldr	r3, [r7, #12]
 80062da:	681b      	ldr	r3, [r3, #0]
 80062dc:	68da      	ldr	r2, [r3, #12]
 80062de:	68fb      	ldr	r3, [r7, #12]
 80062e0:	681b      	ldr	r3, [r3, #0]
 80062e2:	2180      	movs	r1, #128	; 0x80
 80062e4:	0089      	lsls	r1, r1, #2
 80062e6:	430a      	orrs	r2, r1
 80062e8:	60da      	str	r2, [r3, #12]
      break;
 80062ea:	e073      	b.n	80063d4 <HAL_TIM_PWM_Start_DMA+0x284>
    }

    case TIM_CHANNEL_2:
    {
      /* Set the DMA compare callbacks */
      htim->hdma[TIM_DMA_ID_CC2]->XferCpltCallback = TIM_DMADelayPulseCplt;
 80062ec:	68fb      	ldr	r3, [r7, #12]
 80062ee:	6a5b      	ldr	r3, [r3, #36]	; 0x24
 80062f0:	4a57      	ldr	r2, [pc, #348]	; (8006450 <HAL_TIM_PWM_Start_DMA+0x300>)
 80062f2:	62da      	str	r2, [r3, #44]	; 0x2c
      htim->hdma[TIM_DMA_ID_CC2]->XferHalfCpltCallback = TIM_DMADelayPulseHalfCplt;
 80062f4:	68fb      	ldr	r3, [r7, #12]
 80062f6:	6a5b      	ldr	r3, [r3, #36]	; 0x24
 80062f8:	4a56      	ldr	r2, [pc, #344]	; (8006454 <HAL_TIM_PWM_Start_DMA+0x304>)
 80062fa:	631a      	str	r2, [r3, #48]	; 0x30

      /* Set the DMA error callback */
      htim->hdma[TIM_DMA_ID_CC2]->XferErrorCallback = TIM_DMAError ;
 80062fc:	68fb      	ldr	r3, [r7, #12]
 80062fe:	6a5b      	ldr	r3, [r3, #36]	; 0x24
 8006300:	4a55      	ldr	r2, [pc, #340]	; (8006458 <HAL_TIM_PWM_Start_DMA+0x308>)
 8006302:	635a      	str	r2, [r3, #52]	; 0x34

      /* Enable the DMA channel */
      if (HAL_DMA_Start_IT(htim->hdma[TIM_DMA_ID_CC2], (uint32_t)pData, (uint32_t)&htim->Instance->CCR2,
 8006304:	68fb      	ldr	r3, [r7, #12]
 8006306:	6a58      	ldr	r0, [r3, #36]	; 0x24
 8006308:	6879      	ldr	r1, [r7, #4]
 800630a:	68fb      	ldr	r3, [r7, #12]
 800630c:	681b      	ldr	r3, [r3, #0]
 800630e:	3338      	adds	r3, #56	; 0x38
 8006310:	001a      	movs	r2, r3
 8006312:	1cbb      	adds	r3, r7, #2
 8006314:	881b      	ldrh	r3, [r3, #0]
 8006316:	f7fd f961 	bl	80035dc <HAL_DMA_Start_IT>
 800631a:	1e03      	subs	r3, r0, #0
 800631c:	d001      	beq.n	8006322 <HAL_TIM_PWM_Start_DMA+0x1d2>
                           Length) != HAL_OK)
      {
        /* Return error status */
        return HAL_ERROR;
 800631e:	2301      	movs	r3, #1
 8006320:	e091      	b.n	8006446 <HAL_TIM_PWM_Start_DMA+0x2f6>
      }
      /* Enable the TIM Capture/Compare 2 DMA request */
      __HAL_TIM_ENABLE_DMA(htim, TIM_DMA_CC2);
 8006322:	68fb      	ldr	r3, [r7, #12]
 8006324:	681b      	ldr	r3, [r3, #0]
 8006326:	68da      	ldr	r2, [r3, #12]
 8006328:	68fb      	ldr	r3, [r7, #12]
 800632a:	681b      	ldr	r3, [r3, #0]
 800632c:	2180      	movs	r1, #128	; 0x80
 800632e:	00c9      	lsls	r1, r1, #3
 8006330:	430a      	orrs	r2, r1
 8006332:	60da      	str	r2, [r3, #12]
      break;
 8006334:	e04e      	b.n	80063d4 <HAL_TIM_PWM_Start_DMA+0x284>
    }

    case TIM_CHANNEL_3:
    {
      /* Set the DMA compare callbacks */
      htim->hdma[TIM_DMA_ID_CC3]->XferCpltCallback = TIM_DMADelayPulseCplt;
 8006336:	68fb      	ldr	r3, [r7, #12]
 8006338:	6a9b      	ldr	r3, [r3, #40]	; 0x28
 800633a:	4a45      	ldr	r2, [pc, #276]	; (8006450 <HAL_TIM_PWM_Start_DMA+0x300>)
 800633c:	62da      	str	r2, [r3, #44]	; 0x2c
      htim->hdma[TIM_DMA_ID_CC3]->XferHalfCpltCallback = TIM_DMADelayPulseHalfCplt;
 800633e:	68fb      	ldr	r3, [r7, #12]
 8006340:	6a9b      	ldr	r3, [r3, #40]	; 0x28
 8006342:	4a44      	ldr	r2, [pc, #272]	; (8006454 <HAL_TIM_PWM_Start_DMA+0x304>)
 8006344:	631a      	str	r2, [r3, #48]	; 0x30

      /* Set the DMA error callback */
      htim->hdma[TIM_DMA_ID_CC3]->XferErrorCallback = TIM_DMAError ;
 8006346:	68fb      	ldr	r3, [r7, #12]
 8006348:	6a9b      	ldr	r3, [r3, #40]	; 0x28
 800634a:	4a43      	ldr	r2, [pc, #268]	; (8006458 <HAL_TIM_PWM_Start_DMA+0x308>)
 800634c:	635a      	str	r2, [r3, #52]	; 0x34

      /* Enable the DMA channel */
      if (HAL_DMA_Start_IT(htim->hdma[TIM_DMA_ID_CC3], (uint32_t)pData, (uint32_t)&htim->Instance->CCR3,
 800634e:	68fb      	ldr	r3, [r7, #12]
 8006350:	6a98      	ldr	r0, [r3, #40]	; 0x28
 8006352:	6879      	ldr	r1, [r7, #4]
 8006354:	68fb      	ldr	r3, [r7, #12]
 8006356:	681b      	ldr	r3, [r3, #0]
 8006358:	333c      	adds	r3, #60	; 0x3c
 800635a:	001a      	movs	r2, r3
 800635c:	1cbb      	adds	r3, r7, #2
 800635e:	881b      	ldrh	r3, [r3, #0]
 8006360:	f7fd f93c 	bl	80035dc <HAL_DMA_Start_IT>
 8006364:	1e03      	subs	r3, r0, #0
 8006366:	d001      	beq.n	800636c <HAL_TIM_PWM_Start_DMA+0x21c>
                           Length) != HAL_OK)
      {
        /* Return error status */
        return HAL_ERROR;
 8006368:	2301      	movs	r3, #1
 800636a:	e06c      	b.n	8006446 <HAL_TIM_PWM_Start_DMA+0x2f6>
      }
      /* Enable the TIM Output Capture/Compare 3 request */
      __HAL_TIM_ENABLE_DMA(htim, TIM_DMA_CC3);
 800636c:	68fb      	ldr	r3, [r7, #12]
 800636e:	681b      	ldr	r3, [r3, #0]
 8006370:	68da      	ldr	r2, [r3, #12]
 8006372:	68fb      	ldr	r3, [r7, #12]
 8006374:	681b      	ldr	r3, [r3, #0]
 8006376:	2180      	movs	r1, #128	; 0x80
 8006378:	0109      	lsls	r1, r1, #4
 800637a:	430a      	orrs	r2, r1
 800637c:	60da      	str	r2, [r3, #12]
      break;
 800637e:	e029      	b.n	80063d4 <HAL_TIM_PWM_Start_DMA+0x284>
    }

    case TIM_CHANNEL_4:
    {
      /* Set the DMA compare callbacks */
      htim->hdma[TIM_DMA_ID_CC4]->XferCpltCallback = TIM_DMADelayPulseCplt;
 8006380:	68fb      	ldr	r3, [r7, #12]
 8006382:	6adb      	ldr	r3, [r3, #44]	; 0x2c
 8006384:	4a32      	ldr	r2, [pc, #200]	; (8006450 <HAL_TIM_PWM_Start_DMA+0x300>)
 8006386:	62da      	str	r2, [r3, #44]	; 0x2c
      htim->hdma[TIM_DMA_ID_CC4]->XferHalfCpltCallback = TIM_DMADelayPulseHalfCplt;
 8006388:	68fb      	ldr	r3, [r7, #12]
 800638a:	6adb      	ldr	r3, [r3, #44]	; 0x2c
 800638c:	4a31      	ldr	r2, [pc, #196]	; (8006454 <HAL_TIM_PWM_Start_DMA+0x304>)
 800638e:	631a      	str	r2, [r3, #48]	; 0x30

      /* Set the DMA error callback */
      htim->hdma[TIM_DMA_ID_CC4]->XferErrorCallback = TIM_DMAError ;
 8006390:	68fb      	ldr	r3, [r7, #12]
 8006392:	6adb      	ldr	r3, [r3, #44]	; 0x2c
 8006394:	4a30      	ldr	r2, [pc, #192]	; (8006458 <HAL_TIM_PWM_Start_DMA+0x308>)
 8006396:	635a      	str	r2, [r3, #52]	; 0x34

      /* Enable the DMA channel */
      if (HAL_DMA_Start_IT(htim->hdma[TIM_DMA_ID_CC4], (uint32_t)pData, (uint32_t)&htim->Instance->CCR4,
 8006398:	68fb      	ldr	r3, [r7, #12]
 800639a:	6ad8      	ldr	r0, [r3, #44]	; 0x2c
 800639c:	6879      	ldr	r1, [r7, #4]
 800639e:	68fb      	ldr	r3, [r7, #12]
 80063a0:	681b      	ldr	r3, [r3, #0]
 80063a2:	3340      	adds	r3, #64	; 0x40
 80063a4:	001a      	movs	r2, r3
 80063a6:	1cbb      	adds	r3, r7, #2
 80063a8:	881b      	ldrh	r3, [r3, #0]
 80063aa:	f7fd f917 	bl	80035dc <HAL_DMA_Start_IT>
 80063ae:	1e03      	subs	r3, r0, #0
 80063b0:	d001      	beq.n	80063b6 <HAL_TIM_PWM_Start_DMA+0x266>
                           Length) != HAL_OK)
      {
        /* Return error status */
        return HAL_ERROR;
 80063b2:	2301      	movs	r3, #1
 80063b4:	e047      	b.n	8006446 <HAL_TIM_PWM_Start_DMA+0x2f6>
      }
      /* Enable the TIM Capture/Compare 4 DMA request */
      __HAL_TIM_ENABLE_DMA(htim, TIM_DMA_CC4);
 80063b6:	68fb      	ldr	r3, [r7, #12]
 80063b8:	681b      	ldr	r3, [r3, #0]
 80063ba:	68da      	ldr	r2, [r3, #12]
 80063bc:	68fb      	ldr	r3, [r7, #12]
 80063be:	681b      	ldr	r3, [r3, #0]
 80063c0:	2180      	movs	r1, #128	; 0x80
 80063c2:	0149      	lsls	r1, r1, #5
 80063c4:	430a      	orrs	r2, r1
 80063c6:	60da      	str	r2, [r3, #12]
      break;
 80063c8:	e004      	b.n	80063d4 <HAL_TIM_PWM_Start_DMA+0x284>
    }

    default:
      status = HAL_ERROR;
 80063ca:	2317      	movs	r3, #23
 80063cc:	18fb      	adds	r3, r7, r3
 80063ce:	2201      	movs	r2, #1
 80063d0:	701a      	strb	r2, [r3, #0]
      break;
 80063d2:	46c0      	nop			; (mov r8, r8)
  }

  if (status == HAL_OK)
 80063d4:	2317      	movs	r3, #23
 80063d6:	18fb      	adds	r3, r7, r3
 80063d8:	781b      	ldrb	r3, [r3, #0]
 80063da:	2b00      	cmp	r3, #0
 80063dc:	d130      	bne.n	8006440 <HAL_TIM_PWM_Start_DMA+0x2f0>
  {
    /* Enable the Capture compare channel */
    TIM_CCxChannelCmd(htim->Instance, Channel, TIM_CCx_ENABLE);
 80063de:	68fb      	ldr	r3, [r7, #12]
 80063e0:	681b      	ldr	r3, [r3, #0]
 80063e2:	68b9      	ldr	r1, [r7, #8]
 80063e4:	2201      	movs	r2, #1
 80063e6:	0018      	movs	r0, r3
 80063e8:	f000 feac 	bl	8007144 <TIM_CCxChannelCmd>

    /* Enable the Peripheral, except in trigger mode where enable is automatically done with trigger */
    if (IS_TIM_SLAVE_INSTANCE(htim->Instance))
 80063ec:	68fb      	ldr	r3, [r7, #12]
 80063ee:	681a      	ldr	r2, [r3, #0]
 80063f0:	2380      	movs	r3, #128	; 0x80
 80063f2:	05db      	lsls	r3, r3, #23
 80063f4:	429a      	cmp	r2, r3
 80063f6:	d009      	beq.n	800640c <HAL_TIM_PWM_Start_DMA+0x2bc>
 80063f8:	68fb      	ldr	r3, [r7, #12]
 80063fa:	681b      	ldr	r3, [r3, #0]
 80063fc:	4a17      	ldr	r2, [pc, #92]	; (800645c <HAL_TIM_PWM_Start_DMA+0x30c>)
 80063fe:	4293      	cmp	r3, r2
 8006400:	d004      	beq.n	800640c <HAL_TIM_PWM_Start_DMA+0x2bc>
 8006402:	68fb      	ldr	r3, [r7, #12]
 8006404:	681b      	ldr	r3, [r3, #0]
 8006406:	4a16      	ldr	r2, [pc, #88]	; (8006460 <HAL_TIM_PWM_Start_DMA+0x310>)
 8006408:	4293      	cmp	r3, r2
 800640a:	d111      	bne.n	8006430 <HAL_TIM_PWM_Start_DMA+0x2e0>
    {
      tmpsmcr = htim->Instance->SMCR & TIM_SMCR_SMS;
 800640c:	68fb      	ldr	r3, [r7, #12]
 800640e:	681b      	ldr	r3, [r3, #0]
 8006410:	689b      	ldr	r3, [r3, #8]
 8006412:	2207      	movs	r2, #7
 8006414:	4013      	ands	r3, r2
 8006416:	613b      	str	r3, [r7, #16]
      if (!IS_TIM_SLAVEMODE_TRIGGER_ENABLED(tmpsmcr))
 8006418:	693b      	ldr	r3, [r7, #16]
 800641a:	2b06      	cmp	r3, #6
 800641c:	d010      	beq.n	8006440 <HAL_TIM_PWM_Start_DMA+0x2f0>
      {
        __HAL_TIM_ENABLE(htim);
 800641e:	68fb      	ldr	r3, [r7, #12]
 8006420:	681b      	ldr	r3, [r3, #0]
 8006422:	681a      	ldr	r2, [r3, #0]
 8006424:	68fb      	ldr	r3, [r7, #12]
 8006426:	681b      	ldr	r3, [r3, #0]
 8006428:	2101      	movs	r1, #1
 800642a:	430a      	orrs	r2, r1
 800642c:	601a      	str	r2, [r3, #0]
      if (!IS_TIM_SLAVEMODE_TRIGGER_ENABLED(tmpsmcr))
 800642e:	e007      	b.n	8006440 <HAL_TIM_PWM_Start_DMA+0x2f0>
      }
    }
    else
    {
      __HAL_TIM_ENABLE(htim);
 8006430:	68fb      	ldr	r3, [r7, #12]
 8006432:	681b      	ldr	r3, [r3, #0]
 8006434:	681a      	ldr	r2, [r3, #0]
 8006436:	68fb      	ldr	r3, [r7, #12]
 8006438:	681b      	ldr	r3, [r3, #0]
 800643a:	2101      	movs	r1, #1
 800643c:	430a      	orrs	r2, r1
 800643e:	601a      	str	r2, [r3, #0]
    }
  }

  /* Return function status */
  return status;
 8006440:	2317      	movs	r3, #23
 8006442:	18fb      	adds	r3, r7, r3
 8006444:	781b      	ldrb	r3, [r3, #0]
}
 8006446:	0018      	movs	r0, r3
 8006448:	46bd      	mov	sp, r7
 800644a:	b006      	add	sp, #24
 800644c:	bd80      	pop	{r7, pc}
 800644e:	46c0      	nop			; (mov r8, r8)
 8006450:	08006c4d 	.word	0x08006c4d
 8006454:	08006cf7 	.word	0x08006cf7
 8006458:	08006bb9 	.word	0x08006bb9
 800645c:	40010800 	.word	0x40010800
 8006460:	40011400 	.word	0x40011400

08006464 <HAL_TIM_PWM_Stop_DMA>:
  *            @arg TIM_CHANNEL_3: TIM Channel 3 selected
  *            @arg TIM_CHANNEL_4: TIM Channel 4 selected
  * @retval HAL status
  */
HAL_StatusTypeDef HAL_TIM_PWM_Stop_DMA(TIM_HandleTypeDef *htim, uint32_t Channel)
{
 8006464:	b580      	push	{r7, lr}
 8006466:	b084      	sub	sp, #16
 8006468:	af00      	add	r7, sp, #0
 800646a:	6078      	str	r0, [r7, #4]
 800646c:	6039      	str	r1, [r7, #0]
  HAL_StatusTypeDef status = HAL_OK;
 800646e:	230f      	movs	r3, #15
 8006470:	18fb      	adds	r3, r7, r3
 8006472:	2200      	movs	r2, #0
 8006474:	701a      	strb	r2, [r3, #0]

  /* Check the parameters */
  assert_param(IS_TIM_CCX_INSTANCE(htim->Instance, Channel));

  switch (Channel)
 8006476:	683b      	ldr	r3, [r7, #0]
 8006478:	2b0c      	cmp	r3, #12
 800647a:	d039      	beq.n	80064f0 <HAL_TIM_PWM_Stop_DMA+0x8c>
 800647c:	683b      	ldr	r3, [r7, #0]
 800647e:	2b0c      	cmp	r3, #12
 8006480:	d844      	bhi.n	800650c <HAL_TIM_PWM_Stop_DMA+0xa8>
 8006482:	683b      	ldr	r3, [r7, #0]
 8006484:	2b08      	cmp	r3, #8
 8006486:	d025      	beq.n	80064d4 <HAL_TIM_PWM_Stop_DMA+0x70>
 8006488:	683b      	ldr	r3, [r7, #0]
 800648a:	2b08      	cmp	r3, #8
 800648c:	d83e      	bhi.n	800650c <HAL_TIM_PWM_Stop_DMA+0xa8>
 800648e:	683b      	ldr	r3, [r7, #0]
 8006490:	2b00      	cmp	r3, #0
 8006492:	d003      	beq.n	800649c <HAL_TIM_PWM_Stop_DMA+0x38>
 8006494:	683b      	ldr	r3, [r7, #0]
 8006496:	2b04      	cmp	r3, #4
 8006498:	d00e      	beq.n	80064b8 <HAL_TIM_PWM_Stop_DMA+0x54>
 800649a:	e037      	b.n	800650c <HAL_TIM_PWM_Stop_DMA+0xa8>
  {
    case TIM_CHANNEL_1:
    {
      /* Disable the TIM Capture/Compare 1 DMA request */
      __HAL_TIM_DISABLE_DMA(htim, TIM_DMA_CC1);
 800649c:	687b      	ldr	r3, [r7, #4]
 800649e:	681b      	ldr	r3, [r3, #0]
 80064a0:	68da      	ldr	r2, [r3, #12]
 80064a2:	687b      	ldr	r3, [r7, #4]
 80064a4:	681b      	ldr	r3, [r3, #0]
 80064a6:	493a      	ldr	r1, [pc, #232]	; (8006590 <HAL_TIM_PWM_Stop_DMA+0x12c>)
 80064a8:	400a      	ands	r2, r1
 80064aa:	60da      	str	r2, [r3, #12]
      (void)HAL_DMA_Abort_IT(htim->hdma[TIM_DMA_ID_CC1]);
 80064ac:	687b      	ldr	r3, [r7, #4]
 80064ae:	6a1b      	ldr	r3, [r3, #32]
 80064b0:	0018      	movs	r0, r3
 80064b2:	f7fd f8f9 	bl	80036a8 <HAL_DMA_Abort_IT>
      break;
 80064b6:	e02e      	b.n	8006516 <HAL_TIM_PWM_Stop_DMA+0xb2>
    }

    case TIM_CHANNEL_2:
    {
      /* Disable the TIM Capture/Compare 2 DMA request */
      __HAL_TIM_DISABLE_DMA(htim, TIM_DMA_CC2);
 80064b8:	687b      	ldr	r3, [r7, #4]
 80064ba:	681b      	ldr	r3, [r3, #0]
 80064bc:	68da      	ldr	r2, [r3, #12]
 80064be:	687b      	ldr	r3, [r7, #4]
 80064c0:	681b      	ldr	r3, [r3, #0]
 80064c2:	4934      	ldr	r1, [pc, #208]	; (8006594 <HAL_TIM_PWM_Stop_DMA+0x130>)
 80064c4:	400a      	ands	r2, r1
 80064c6:	60da      	str	r2, [r3, #12]
      (void)HAL_DMA_Abort_IT(htim->hdma[TIM_DMA_ID_CC2]);
 80064c8:	687b      	ldr	r3, [r7, #4]
 80064ca:	6a5b      	ldr	r3, [r3, #36]	; 0x24
 80064cc:	0018      	movs	r0, r3
 80064ce:	f7fd f8eb 	bl	80036a8 <HAL_DMA_Abort_IT>
      break;
 80064d2:	e020      	b.n	8006516 <HAL_TIM_PWM_Stop_DMA+0xb2>
    }

    case TIM_CHANNEL_3:
    {
      /* Disable the TIM Capture/Compare 3 DMA request */
      __HAL_TIM_DISABLE_DMA(htim, TIM_DMA_CC3);
 80064d4:	687b      	ldr	r3, [r7, #4]
 80064d6:	681b      	ldr	r3, [r3, #0]
 80064d8:	68da      	ldr	r2, [r3, #12]
 80064da:	687b      	ldr	r3, [r7, #4]
 80064dc:	681b      	ldr	r3, [r3, #0]
 80064de:	492e      	ldr	r1, [pc, #184]	; (8006598 <HAL_TIM_PWM_Stop_DMA+0x134>)
 80064e0:	400a      	ands	r2, r1
 80064e2:	60da      	str	r2, [r3, #12]
      (void)HAL_DMA_Abort_IT(htim->hdma[TIM_DMA_ID_CC3]);
 80064e4:	687b      	ldr	r3, [r7, #4]
 80064e6:	6a9b      	ldr	r3, [r3, #40]	; 0x28
 80064e8:	0018      	movs	r0, r3
 80064ea:	f7fd f8dd 	bl	80036a8 <HAL_DMA_Abort_IT>
      break;
 80064ee:	e012      	b.n	8006516 <HAL_TIM_PWM_Stop_DMA+0xb2>
    }

    case TIM_CHANNEL_4:
    {
      /* Disable the TIM Capture/Compare 4 interrupt */
      __HAL_TIM_DISABLE_DMA(htim, TIM_DMA_CC4);
 80064f0:	687b      	ldr	r3, [r7, #4]
 80064f2:	681b      	ldr	r3, [r3, #0]
 80064f4:	68da      	ldr	r2, [r3, #12]
 80064f6:	687b      	ldr	r3, [r7, #4]
 80064f8:	681b      	ldr	r3, [r3, #0]
 80064fa:	4928      	ldr	r1, [pc, #160]	; (800659c <HAL_TIM_PWM_Stop_DMA+0x138>)
 80064fc:	400a      	ands	r2, r1
 80064fe:	60da      	str	r2, [r3, #12]
      (void)HAL_DMA_Abort_IT(htim->hdma[TIM_DMA_ID_CC4]);
 8006500:	687b      	ldr	r3, [r7, #4]
 8006502:	6adb      	ldr	r3, [r3, #44]	; 0x2c
 8006504:	0018      	movs	r0, r3
 8006506:	f7fd f8cf 	bl	80036a8 <HAL_DMA_Abort_IT>
      break;
 800650a:	e004      	b.n	8006516 <HAL_TIM_PWM_Stop_DMA+0xb2>
    }

    default:
      status = HAL_ERROR;
 800650c:	230f      	movs	r3, #15
 800650e:	18fb      	adds	r3, r7, r3
 8006510:	2201      	movs	r2, #1
 8006512:	701a      	strb	r2, [r3, #0]
      break;
 8006514:	46c0      	nop			; (mov r8, r8)
  }

  if (status == HAL_OK)
 8006516:	230f      	movs	r3, #15
 8006518:	18fb      	adds	r3, r7, r3
 800651a:	781b      	ldrb	r3, [r3, #0]
 800651c:	2b00      	cmp	r3, #0
 800651e:	d130      	bne.n	8006582 <HAL_TIM_PWM_Stop_DMA+0x11e>
  {
    /* Disable the Capture compare channel */
    TIM_CCxChannelCmd(htim->Instance, Channel, TIM_CCx_DISABLE);
 8006520:	687b      	ldr	r3, [r7, #4]
 8006522:	681b      	ldr	r3, [r3, #0]
 8006524:	6839      	ldr	r1, [r7, #0]
 8006526:	2200      	movs	r2, #0
 8006528:	0018      	movs	r0, r3
 800652a:	f000 fe0b 	bl	8007144 <TIM_CCxChannelCmd>

    /* Disable the Peripheral */
    __HAL_TIM_DISABLE(htim);
 800652e:	687b      	ldr	r3, [r7, #4]
 8006530:	681b      	ldr	r3, [r3, #0]
 8006532:	6a1b      	ldr	r3, [r3, #32]
 8006534:	4a1a      	ldr	r2, [pc, #104]	; (80065a0 <HAL_TIM_PWM_Stop_DMA+0x13c>)
 8006536:	4013      	ands	r3, r2
 8006538:	d107      	bne.n	800654a <HAL_TIM_PWM_Stop_DMA+0xe6>
 800653a:	687b      	ldr	r3, [r7, #4]
 800653c:	681b      	ldr	r3, [r3, #0]
 800653e:	681a      	ldr	r2, [r3, #0]
 8006540:	687b      	ldr	r3, [r7, #4]
 8006542:	681b      	ldr	r3, [r3, #0]
 8006544:	2101      	movs	r1, #1
 8006546:	438a      	bics	r2, r1
 8006548:	601a      	str	r2, [r3, #0]

    /* Set the TIM channel state */
    TIM_CHANNEL_STATE_SET(htim, Channel, HAL_TIM_CHANNEL_STATE_READY);
 800654a:	683b      	ldr	r3, [r7, #0]
 800654c:	2b00      	cmp	r3, #0
 800654e:	d104      	bne.n	800655a <HAL_TIM_PWM_Stop_DMA+0xf6>
 8006550:	687b      	ldr	r3, [r7, #4]
 8006552:	223a      	movs	r2, #58	; 0x3a
 8006554:	2101      	movs	r1, #1
 8006556:	5499      	strb	r1, [r3, r2]
 8006558:	e013      	b.n	8006582 <HAL_TIM_PWM_Stop_DMA+0x11e>
 800655a:	683b      	ldr	r3, [r7, #0]
 800655c:	2b04      	cmp	r3, #4
 800655e:	d104      	bne.n	800656a <HAL_TIM_PWM_Stop_DMA+0x106>
 8006560:	687b      	ldr	r3, [r7, #4]
 8006562:	223b      	movs	r2, #59	; 0x3b
 8006564:	2101      	movs	r1, #1
 8006566:	5499      	strb	r1, [r3, r2]
 8006568:	e00b      	b.n	8006582 <HAL_TIM_PWM_Stop_DMA+0x11e>
 800656a:	683b      	ldr	r3, [r7, #0]
 800656c:	2b08      	cmp	r3, #8
 800656e:	d104      	bne.n	800657a <HAL_TIM_PWM_Stop_DMA+0x116>
 8006570:	687b      	ldr	r3, [r7, #4]
 8006572:	223c      	movs	r2, #60	; 0x3c
 8006574:	2101      	movs	r1, #1
 8006576:	5499      	strb	r1, [r3, r2]
 8006578:	e003      	b.n	8006582 <HAL_TIM_PWM_Stop_DMA+0x11e>
 800657a:	687b      	ldr	r3, [r7, #4]
 800657c:	223d      	movs	r2, #61	; 0x3d
 800657e:	2101      	movs	r1, #1
 8006580:	5499      	strb	r1, [r3, r2]
  }

  /* Return function status */
  return status;
 8006582:	230f      	movs	r3, #15
 8006584:	18fb      	adds	r3, r7, r3
 8006586:	781b      	ldrb	r3, [r3, #0]
}
 8006588:	0018      	movs	r0, r3
 800658a:	46bd      	mov	sp, r7
 800658c:	b004      	add	sp, #16
 800658e:	bd80      	pop	{r7, pc}
 8006590:	fffffdff 	.word	0xfffffdff
 8006594:	fffffbff 	.word	0xfffffbff
 8006598:	fffff7ff 	.word	0xfffff7ff
 800659c:	ffffefff 	.word	0xffffefff
 80065a0:	00001111 	.word	0x00001111

080065a4 <HAL_TIM_IRQHandler>:
  * @brief  This function handles TIM interrupts requests.
  * @param  htim TIM  handle
  * @retval None
  */
void HAL_TIM_IRQHandler(TIM_HandleTypeDef *htim)
{
 80065a4:	b580      	push	{r7, lr}
 80065a6:	b082      	sub	sp, #8
 80065a8:	af00      	add	r7, sp, #0
 80065aa:	6078      	str	r0, [r7, #4]
  /* Capture compare 1 event */
  if (__HAL_TIM_GET_FLAG(htim, TIM_FLAG_CC1) != RESET)
 80065ac:	687b      	ldr	r3, [r7, #4]
 80065ae:	681b      	ldr	r3, [r3, #0]
 80065b0:	691b      	ldr	r3, [r3, #16]
 80065b2:	2202      	movs	r2, #2
 80065b4:	4013      	ands	r3, r2
 80065b6:	2b02      	cmp	r3, #2
 80065b8:	d124      	bne.n	8006604 <HAL_TIM_IRQHandler+0x60>
  {
    if (__HAL_TIM_GET_IT_SOURCE(htim, TIM_IT_CC1) != RESET)
 80065ba:	687b      	ldr	r3, [r7, #4]
 80065bc:	681b      	ldr	r3, [r3, #0]
 80065be:	68db      	ldr	r3, [r3, #12]
 80065c0:	2202      	movs	r2, #2
 80065c2:	4013      	ands	r3, r2
 80065c4:	2b02      	cmp	r3, #2
 80065c6:	d11d      	bne.n	8006604 <HAL_TIM_IRQHandler+0x60>
    {
      {
        __HAL_TIM_CLEAR_IT(htim, TIM_IT_CC1);
 80065c8:	687b      	ldr	r3, [r7, #4]
 80065ca:	681b      	ldr	r3, [r3, #0]
 80065cc:	2203      	movs	r2, #3
 80065ce:	4252      	negs	r2, r2
 80065d0:	611a      	str	r2, [r3, #16]
        htim->Channel = HAL_TIM_ACTIVE_CHANNEL_1;
 80065d2:	687b      	ldr	r3, [r7, #4]
 80065d4:	2201      	movs	r2, #1
 80065d6:	761a      	strb	r2, [r3, #24]

        /* Input capture event */
        if ((htim->Instance->CCMR1 & TIM_CCMR1_CC1S) != 0x00U)
 80065d8:	687b      	ldr	r3, [r7, #4]
 80065da:	681b      	ldr	r3, [r3, #0]
 80065dc:	699b      	ldr	r3, [r3, #24]
 80065de:	2203      	movs	r2, #3
 80065e0:	4013      	ands	r3, r2
 80065e2:	d004      	beq.n	80065ee <HAL_TIM_IRQHandler+0x4a>
        {
#if (USE_HAL_TIM_REGISTER_CALLBACKS == 1)
          htim->IC_CaptureCallback(htim);
#else
          HAL_TIM_IC_CaptureCallback(htim);
 80065e4:	687b      	ldr	r3, [r7, #4]
 80065e6:	0018      	movs	r0, r3
 80065e8:	f000 fac6 	bl	8006b78 <HAL_TIM_IC_CaptureCallback>
 80065ec:	e007      	b.n	80065fe <HAL_TIM_IRQHandler+0x5a>
        {
#if (USE_HAL_TIM_REGISTER_CALLBACKS == 1)
          htim->OC_DelayElapsedCallback(htim);
          htim->PWM_PulseFinishedCallback(htim);
#else
          HAL_TIM_OC_DelayElapsedCallback(htim);
 80065ee:	687b      	ldr	r3, [r7, #4]
 80065f0:	0018      	movs	r0, r3
 80065f2:	f000 fab9 	bl	8006b68 <HAL_TIM_OC_DelayElapsedCallback>
          HAL_TIM_PWM_PulseFinishedCallback(htim);
 80065f6:	687b      	ldr	r3, [r7, #4]
 80065f8:	0018      	movs	r0, r3
 80065fa:	f7fa fb2d 	bl	8000c58 <HAL_TIM_PWM_PulseFinishedCallback>
#endif /* USE_HAL_TIM_REGISTER_CALLBACKS */
        }
        htim->Channel = HAL_TIM_ACTIVE_CHANNEL_CLEARED;
 80065fe:	687b      	ldr	r3, [r7, #4]
 8006600:	2200      	movs	r2, #0
 8006602:	761a      	strb	r2, [r3, #24]
      }
    }
  }
  /* Capture compare 2 event */
  if (__HAL_TIM_GET_FLAG(htim, TIM_FLAG_CC2) != RESET)
 8006604:	687b      	ldr	r3, [r7, #4]
 8006606:	681b      	ldr	r3, [r3, #0]
 8006608:	691b      	ldr	r3, [r3, #16]
 800660a:	2204      	movs	r2, #4
 800660c:	4013      	ands	r3, r2
 800660e:	2b04      	cmp	r3, #4
 8006610:	d125      	bne.n	800665e <HAL_TIM_IRQHandler+0xba>
  {
    if (__HAL_TIM_GET_IT_SOURCE(htim, TIM_IT_CC2) != RESET)
 8006612:	687b      	ldr	r3, [r7, #4]
 8006614:	681b      	ldr	r3, [r3, #0]
 8006616:	68db      	ldr	r3, [r3, #12]
 8006618:	2204      	movs	r2, #4
 800661a:	4013      	ands	r3, r2
 800661c:	2b04      	cmp	r3, #4
 800661e:	d11e      	bne.n	800665e <HAL_TIM_IRQHandler+0xba>
    {
      __HAL_TIM_CLEAR_IT(htim, TIM_IT_CC2);
 8006620:	687b      	ldr	r3, [r7, #4]
 8006622:	681b      	ldr	r3, [r3, #0]
 8006624:	2205      	movs	r2, #5
 8006626:	4252      	negs	r2, r2
 8006628:	611a      	str	r2, [r3, #16]
      htim->Channel = HAL_TIM_ACTIVE_CHANNEL_2;
 800662a:	687b      	ldr	r3, [r7, #4]
 800662c:	2202      	movs	r2, #2
 800662e:	761a      	strb	r2, [r3, #24]
      /* Input capture event */
      if ((htim->Instance->CCMR1 & TIM_CCMR1_CC2S) != 0x00U)
 8006630:	687b      	ldr	r3, [r7, #4]
 8006632:	681b      	ldr	r3, [r3, #0]
 8006634:	699a      	ldr	r2, [r3, #24]
 8006636:	23c0      	movs	r3, #192	; 0xc0
 8006638:	009b      	lsls	r3, r3, #2
 800663a:	4013      	ands	r3, r2
 800663c:	d004      	beq.n	8006648 <HAL_TIM_IRQHandler+0xa4>
      {
#if (USE_HAL_TIM_REGISTER_CALLBACKS == 1)
        htim->IC_CaptureCallback(htim);
#else
        HAL_TIM_IC_CaptureCallback(htim);
 800663e:	687b      	ldr	r3, [r7, #4]
 8006640:	0018      	movs	r0, r3
 8006642:	f000 fa99 	bl	8006b78 <HAL_TIM_IC_CaptureCallback>
 8006646:	e007      	b.n	8006658 <HAL_TIM_IRQHandler+0xb4>
      {
#if (USE_HAL_TIM_REGISTER_CALLBACKS == 1)
        htim->OC_DelayElapsedCallback(htim);
        htim->PWM_PulseFinishedCallback(htim);
#else
        HAL_TIM_OC_DelayElapsedCallback(htim);
 8006648:	687b      	ldr	r3, [r7, #4]
 800664a:	0018      	movs	r0, r3
 800664c:	f000 fa8c 	bl	8006b68 <HAL_TIM_OC_DelayElapsedCallback>
        HAL_TIM_PWM_PulseFinishedCallback(htim);
 8006650:	687b      	ldr	r3, [r7, #4]
 8006652:	0018      	movs	r0, r3
 8006654:	f7fa fb00 	bl	8000c58 <HAL_TIM_PWM_PulseFinishedCallback>
#endif /* USE_HAL_TIM_REGISTER_CALLBACKS */
      }
      htim->Channel = HAL_TIM_ACTIVE_CHANNEL_CLEARED;
 8006658:	687b      	ldr	r3, [r7, #4]
 800665a:	2200      	movs	r2, #0
 800665c:	761a      	strb	r2, [r3, #24]
    }
  }
  /* Capture compare 3 event */
  if (__HAL_TIM_GET_FLAG(htim, TIM_FLAG_CC3) != RESET)
 800665e:	687b      	ldr	r3, [r7, #4]
 8006660:	681b      	ldr	r3, [r3, #0]
 8006662:	691b      	ldr	r3, [r3, #16]
 8006664:	2208      	movs	r2, #8
 8006666:	4013      	ands	r3, r2
 8006668:	2b08      	cmp	r3, #8
 800666a:	d124      	bne.n	80066b6 <HAL_TIM_IRQHandler+0x112>
  {
    if (__HAL_TIM_GET_IT_SOURCE(htim, TIM_IT_CC3) != RESET)
 800666c:	687b      	ldr	r3, [r7, #4]
 800666e:	681b      	ldr	r3, [r3, #0]
 8006670:	68db      	ldr	r3, [r3, #12]
 8006672:	2208      	movs	r2, #8
 8006674:	4013      	ands	r3, r2
 8006676:	2b08      	cmp	r3, #8
 8006678:	d11d      	bne.n	80066b6 <HAL_TIM_IRQHandler+0x112>
    {
      __HAL_TIM_CLEAR_IT(htim, TIM_IT_CC3);
 800667a:	687b      	ldr	r3, [r7, #4]
 800667c:	681b      	ldr	r3, [r3, #0]
 800667e:	2209      	movs	r2, #9
 8006680:	4252      	negs	r2, r2
 8006682:	611a      	str	r2, [r3, #16]
      htim->Channel = HAL_TIM_ACTIVE_CHANNEL_3;
 8006684:	687b      	ldr	r3, [r7, #4]
 8006686:	2204      	movs	r2, #4
 8006688:	761a      	strb	r2, [r3, #24]
      /* Input capture event */
      if ((htim->Instance->CCMR2 & TIM_CCMR2_CC3S) != 0x00U)
 800668a:	687b      	ldr	r3, [r7, #4]
 800668c:	681b      	ldr	r3, [r3, #0]
 800668e:	69db      	ldr	r3, [r3, #28]
 8006690:	2203      	movs	r2, #3
 8006692:	4013      	ands	r3, r2
 8006694:	d004      	beq.n	80066a0 <HAL_TIM_IRQHandler+0xfc>
      {
#if (USE_HAL_TIM_REGISTER_CALLBACKS == 1)
        htim->IC_CaptureCallback(htim);
#else
        HAL_TIM_IC_CaptureCallback(htim);
 8006696:	687b      	ldr	r3, [r7, #4]
 8006698:	0018      	movs	r0, r3
 800669a:	f000 fa6d 	bl	8006b78 <HAL_TIM_IC_CaptureCallback>
 800669e:	e007      	b.n	80066b0 <HAL_TIM_IRQHandler+0x10c>
      {
#if (USE_HAL_TIM_REGISTER_CALLBACKS == 1)
        htim->OC_DelayElapsedCallback(htim);
        htim->PWM_PulseFinishedCallback(htim);
#else
        HAL_TIM_OC_DelayElapsedCallback(htim);
 80066a0:	687b      	ldr	r3, [r7, #4]
 80066a2:	0018      	movs	r0, r3
 80066a4:	f000 fa60 	bl	8006b68 <HAL_TIM_OC_DelayElapsedCallback>
        HAL_TIM_PWM_PulseFinishedCallback(htim);
 80066a8:	687b      	ldr	r3, [r7, #4]
 80066aa:	0018      	movs	r0, r3
 80066ac:	f7fa fad4 	bl	8000c58 <HAL_TIM_PWM_PulseFinishedCallback>
#endif /* USE_HAL_TIM_REGISTER_CALLBACKS */
      }
      htim->Channel = HAL_TIM_ACTIVE_CHANNEL_CLEARED;
 80066b0:	687b      	ldr	r3, [r7, #4]
 80066b2:	2200      	movs	r2, #0
 80066b4:	761a      	strb	r2, [r3, #24]
    }
  }
  /* Capture compare 4 event */
  if (__HAL_TIM_GET_FLAG(htim, TIM_FLAG_CC4) != RESET)
 80066b6:	687b      	ldr	r3, [r7, #4]
 80066b8:	681b      	ldr	r3, [r3, #0]
 80066ba:	691b      	ldr	r3, [r3, #16]
 80066bc:	2210      	movs	r2, #16
 80066be:	4013      	ands	r3, r2
 80066c0:	2b10      	cmp	r3, #16
 80066c2:	d125      	bne.n	8006710 <HAL_TIM_IRQHandler+0x16c>
  {
    if (__HAL_TIM_GET_IT_SOURCE(htim, TIM_IT_CC4) != RESET)
 80066c4:	687b      	ldr	r3, [r7, #4]
 80066c6:	681b      	ldr	r3, [r3, #0]
 80066c8:	68db      	ldr	r3, [r3, #12]
 80066ca:	2210      	movs	r2, #16
 80066cc:	4013      	ands	r3, r2
 80066ce:	2b10      	cmp	r3, #16
 80066d0:	d11e      	bne.n	8006710 <HAL_TIM_IRQHandler+0x16c>
    {
      __HAL_TIM_CLEAR_IT(htim, TIM_IT_CC4);
 80066d2:	687b      	ldr	r3, [r7, #4]
 80066d4:	681b      	ldr	r3, [r3, #0]
 80066d6:	2211      	movs	r2, #17
 80066d8:	4252      	negs	r2, r2
 80066da:	611a      	str	r2, [r3, #16]
      htim->Channel = HAL_TIM_ACTIVE_CHANNEL_4;
 80066dc:	687b      	ldr	r3, [r7, #4]
 80066de:	2208      	movs	r2, #8
 80066e0:	761a      	strb	r2, [r3, #24]
      /* Input capture event */
      if ((htim->Instance->CCMR2 & TIM_CCMR2_CC4S) != 0x00U)
 80066e2:	687b      	ldr	r3, [r7, #4]
 80066e4:	681b      	ldr	r3, [r3, #0]
 80066e6:	69da      	ldr	r2, [r3, #28]
 80066e8:	23c0      	movs	r3, #192	; 0xc0
 80066ea:	009b      	lsls	r3, r3, #2
 80066ec:	4013      	ands	r3, r2
 80066ee:	d004      	beq.n	80066fa <HAL_TIM_IRQHandler+0x156>
      {
#if (USE_HAL_TIM_REGISTER_CALLBACKS == 1)
        htim->IC_CaptureCallback(htim);
#else
        HAL_TIM_IC_CaptureCallback(htim);
 80066f0:	687b      	ldr	r3, [r7, #4]
 80066f2:	0018      	movs	r0, r3
 80066f4:	f000 fa40 	bl	8006b78 <HAL_TIM_IC_CaptureCallback>
 80066f8:	e007      	b.n	800670a <HAL_TIM_IRQHandler+0x166>
      {
#if (USE_HAL_TIM_REGISTER_CALLBACKS == 1)
        htim->OC_DelayElapsedCallback(htim);
        htim->PWM_PulseFinishedCallback(htim);
#else
        HAL_TIM_OC_DelayElapsedCallback(htim);
 80066fa:	687b      	ldr	r3, [r7, #4]
 80066fc:	0018      	movs	r0, r3
 80066fe:	f000 fa33 	bl	8006b68 <HAL_TIM_OC_DelayElapsedCallback>
        HAL_TIM_PWM_PulseFinishedCallback(htim);
 8006702:	687b      	ldr	r3, [r7, #4]
 8006704:	0018      	movs	r0, r3
 8006706:	f7fa faa7 	bl	8000c58 <HAL_TIM_PWM_PulseFinishedCallback>
#endif /* USE_HAL_TIM_REGISTER_CALLBACKS */
      }
      htim->Channel = HAL_TIM_ACTIVE_CHANNEL_CLEARED;
 800670a:	687b      	ldr	r3, [r7, #4]
 800670c:	2200      	movs	r2, #0
 800670e:	761a      	strb	r2, [r3, #24]
    }
  }
  /* TIM Update event */
  if (__HAL_TIM_GET_FLAG(htim, TIM_FLAG_UPDATE) != RESET)
 8006710:	687b      	ldr	r3, [r7, #4]
 8006712:	681b      	ldr	r3, [r3, #0]
 8006714:	691b      	ldr	r3, [r3, #16]
 8006716:	2201      	movs	r2, #1
 8006718:	4013      	ands	r3, r2
 800671a:	2b01      	cmp	r3, #1
 800671c:	d10f      	bne.n	800673e <HAL_TIM_IRQHandler+0x19a>
  {
    if (__HAL_TIM_GET_IT_SOURCE(htim, TIM_IT_UPDATE) != RESET)
 800671e:	687b      	ldr	r3, [r7, #4]
 8006720:	681b      	ldr	r3, [r3, #0]
 8006722:	68db      	ldr	r3, [r3, #12]
 8006724:	2201      	movs	r2, #1
 8006726:	4013      	ands	r3, r2
 8006728:	2b01      	cmp	r3, #1
 800672a:	d108      	bne.n	800673e <HAL_TIM_IRQHandler+0x19a>
    {
      __HAL_TIM_CLEAR_IT(htim, TIM_IT_UPDATE);
 800672c:	687b      	ldr	r3, [r7, #4]
 800672e:	681b      	ldr	r3, [r3, #0]
 8006730:	2202      	movs	r2, #2
 8006732:	4252      	negs	r2, r2
 8006734:	611a      	str	r2, [r3, #16]
#if (USE_HAL_TIM_REGISTER_CALLBACKS == 1)
      htim->PeriodElapsedCallback(htim);
#else
      HAL_TIM_PeriodElapsedCallback(htim);
 8006736:	687b      	ldr	r3, [r7, #4]
 8006738:	0018      	movs	r0, r3
 800673a:	f000 fa0d 	bl	8006b58 <HAL_TIM_PeriodElapsedCallback>
#endif /* USE_HAL_TIM_REGISTER_CALLBACKS */
    }
  }
  /* TIM Trigger detection event */
  if (__HAL_TIM_GET_FLAG(htim, TIM_FLAG_TRIGGER) != RESET)
 800673e:	687b      	ldr	r3, [r7, #4]
 8006740:	681b      	ldr	r3, [r3, #0]
 8006742:	691b      	ldr	r3, [r3, #16]
 8006744:	2240      	movs	r2, #64	; 0x40
 8006746:	4013      	ands	r3, r2
 8006748:	2b40      	cmp	r3, #64	; 0x40
 800674a:	d10f      	bne.n	800676c <HAL_TIM_IRQHandler+0x1c8>
  {
    if (__HAL_TIM_GET_IT_SOURCE(htim, TIM_IT_TRIGGER) != RESET)
 800674c:	687b      	ldr	r3, [r7, #4]
 800674e:	681b      	ldr	r3, [r3, #0]
 8006750:	68db      	ldr	r3, [r3, #12]
 8006752:	2240      	movs	r2, #64	; 0x40
 8006754:	4013      	ands	r3, r2
 8006756:	2b40      	cmp	r3, #64	; 0x40
 8006758:	d108      	bne.n	800676c <HAL_TIM_IRQHandler+0x1c8>
    {
      __HAL_TIM_CLEAR_IT(htim, TIM_IT_TRIGGER);
 800675a:	687b      	ldr	r3, [r7, #4]
 800675c:	681b      	ldr	r3, [r3, #0]
 800675e:	2241      	movs	r2, #65	; 0x41
 8006760:	4252      	negs	r2, r2
 8006762:	611a      	str	r2, [r3, #16]
#if (USE_HAL_TIM_REGISTER_CALLBACKS == 1)
      htim->TriggerCallback(htim);
#else
      HAL_TIM_TriggerCallback(htim);
 8006764:	687b      	ldr	r3, [r7, #4]
 8006766:	0018      	movs	r0, r3
 8006768:	f000 fa16 	bl	8006b98 <HAL_TIM_TriggerCallback>
#endif /* USE_HAL_TIM_REGISTER_CALLBACKS */
    }
  }
}
 800676c:	46c0      	nop			; (mov r8, r8)
 800676e:	46bd      	mov	sp, r7
 8006770:	b002      	add	sp, #8
 8006772:	bd80      	pop	{r7, pc}

08006774 <HAL_TIM_OC_ConfigChannel>:
  * @retval HAL status
  */
HAL_StatusTypeDef HAL_TIM_OC_ConfigChannel(TIM_HandleTypeDef *htim,
                                           const TIM_OC_InitTypeDef *sConfig,
                                           uint32_t Channel)
{
 8006774:	b580      	push	{r7, lr}
 8006776:	b086      	sub	sp, #24
 8006778:	af00      	add	r7, sp, #0
 800677a:	60f8      	str	r0, [r7, #12]
 800677c:	60b9      	str	r1, [r7, #8]
 800677e:	607a      	str	r2, [r7, #4]
  HAL_StatusTypeDef status = HAL_OK;
 8006780:	2317      	movs	r3, #23
 8006782:	18fb      	adds	r3, r7, r3
 8006784:	2200      	movs	r2, #0
 8006786:	701a      	strb	r2, [r3, #0]
  assert_param(IS_TIM_CHANNELS(Channel));
  assert_param(IS_TIM_OC_MODE(sConfig->OCMode));
  assert_param(IS_TIM_OC_POLARITY(sConfig->OCPolarity));

  /* Process Locked */
  __HAL_LOCK(htim);
 8006788:	68fb      	ldr	r3, [r7, #12]
 800678a:	2238      	movs	r2, #56	; 0x38
 800678c:	5c9b      	ldrb	r3, [r3, r2]
 800678e:	2b01      	cmp	r3, #1
 8006790:	d101      	bne.n	8006796 <HAL_TIM_OC_ConfigChannel+0x22>
 8006792:	2302      	movs	r3, #2
 8006794:	e042      	b.n	800681c <HAL_TIM_OC_ConfigChannel+0xa8>
 8006796:	68fb      	ldr	r3, [r7, #12]
 8006798:	2238      	movs	r2, #56	; 0x38
 800679a:	2101      	movs	r1, #1
 800679c:	5499      	strb	r1, [r3, r2]

  switch (Channel)
 800679e:	687b      	ldr	r3, [r7, #4]
 80067a0:	2b0c      	cmp	r3, #12
 80067a2:	d027      	beq.n	80067f4 <HAL_TIM_OC_ConfigChannel+0x80>
 80067a4:	687b      	ldr	r3, [r7, #4]
 80067a6:	2b0c      	cmp	r3, #12
 80067a8:	d82c      	bhi.n	8006804 <HAL_TIM_OC_ConfigChannel+0x90>
 80067aa:	687b      	ldr	r3, [r7, #4]
 80067ac:	2b08      	cmp	r3, #8
 80067ae:	d019      	beq.n	80067e4 <HAL_TIM_OC_ConfigChannel+0x70>
 80067b0:	687b      	ldr	r3, [r7, #4]
 80067b2:	2b08      	cmp	r3, #8
 80067b4:	d826      	bhi.n	8006804 <HAL_TIM_OC_ConfigChannel+0x90>
 80067b6:	687b      	ldr	r3, [r7, #4]
 80067b8:	2b00      	cmp	r3, #0
 80067ba:	d003      	beq.n	80067c4 <HAL_TIM_OC_ConfigChannel+0x50>
 80067bc:	687b      	ldr	r3, [r7, #4]
 80067be:	2b04      	cmp	r3, #4
 80067c0:	d008      	beq.n	80067d4 <HAL_TIM_OC_ConfigChannel+0x60>
 80067c2:	e01f      	b.n	8006804 <HAL_TIM_OC_ConfigChannel+0x90>
    {
      /* Check the parameters */
      assert_param(IS_TIM_CC1_INSTANCE(htim->Instance));

      /* Configure the TIM Channel 1 in Output Compare */
      TIM_OC1_SetConfig(htim->Instance, sConfig);
 80067c4:	68fb      	ldr	r3, [r7, #12]
 80067c6:	681b      	ldr	r3, [r3, #0]
 80067c8:	68ba      	ldr	r2, [r7, #8]
 80067ca:	0011      	movs	r1, r2
 80067cc:	0018      	movs	r0, r3
 80067ce:	f000 fb1b 	bl	8006e08 <TIM_OC1_SetConfig>
      break;
 80067d2:	e01c      	b.n	800680e <HAL_TIM_OC_ConfigChannel+0x9a>
    {
      /* Check the parameters */
      assert_param(IS_TIM_CC2_INSTANCE(htim->Instance));

      /* Configure the TIM Channel 2 in Output Compare */
      TIM_OC2_SetConfig(htim->Instance, sConfig);
 80067d4:	68fb      	ldr	r3, [r7, #12]
 80067d6:	681b      	ldr	r3, [r3, #0]
 80067d8:	68ba      	ldr	r2, [r7, #8]
 80067da:	0011      	movs	r1, r2
 80067dc:	0018      	movs	r0, r3
 80067de:	f000 fb4f 	bl	8006e80 <TIM_OC2_SetConfig>
      break;
 80067e2:	e014      	b.n	800680e <HAL_TIM_OC_ConfigChannel+0x9a>
    {
      /* Check the parameters */
      assert_param(IS_TIM_CC3_INSTANCE(htim->Instance));

      /* Configure the TIM Channel 3 in Output Compare */
      TIM_OC3_SetConfig(htim->Instance, sConfig);
 80067e4:	68fb      	ldr	r3, [r7, #12]
 80067e6:	681b      	ldr	r3, [r3, #0]
 80067e8:	68ba      	ldr	r2, [r7, #8]
 80067ea:	0011      	movs	r1, r2
 80067ec:	0018      	movs	r0, r3
 80067ee:	f000 fb89 	bl	8006f04 <TIM_OC3_SetConfig>
      break;
 80067f2:	e00c      	b.n	800680e <HAL_TIM_OC_ConfigChannel+0x9a>
    {
      /* Check the parameters */
      assert_param(IS_TIM_CC4_INSTANCE(htim->Instance));

      /* Configure the TIM Channel 4 in Output Compare */
      TIM_OC4_SetConfig(htim->Instance, sConfig);
 80067f4:	68fb      	ldr	r3, [r7, #12]
 80067f6:	681b      	ldr	r3, [r3, #0]
 80067f8:	68ba      	ldr	r2, [r7, #8]
 80067fa:	0011      	movs	r1, r2
 80067fc:	0018      	movs	r0, r3
 80067fe:	f000 fbc1 	bl	8006f84 <TIM_OC4_SetConfig>
      break;
 8006802:	e004      	b.n	800680e <HAL_TIM_OC_ConfigChannel+0x9a>
    }

    default:
      status = HAL_ERROR;
 8006804:	2317      	movs	r3, #23
 8006806:	18fb      	adds	r3, r7, r3
 8006808:	2201      	movs	r2, #1
 800680a:	701a      	strb	r2, [r3, #0]
      break;
 800680c:	46c0      	nop			; (mov r8, r8)
  }

  __HAL_UNLOCK(htim);
 800680e:	68fb      	ldr	r3, [r7, #12]
 8006810:	2238      	movs	r2, #56	; 0x38
 8006812:	2100      	movs	r1, #0
 8006814:	5499      	strb	r1, [r3, r2]

  return status;
 8006816:	2317      	movs	r3, #23
 8006818:	18fb      	adds	r3, r7, r3
 800681a:	781b      	ldrb	r3, [r3, #0]
}
 800681c:	0018      	movs	r0, r3
 800681e:	46bd      	mov	sp, r7
 8006820:	b006      	add	sp, #24
 8006822:	bd80      	pop	{r7, pc}

08006824 <HAL_TIM_PWM_ConfigChannel>:
  * @retval HAL status
  */
HAL_StatusTypeDef HAL_TIM_PWM_ConfigChannel(TIM_HandleTypeDef *htim,
                                            const TIM_OC_InitTypeDef *sConfig,
                                            uint32_t Channel)
{
 8006824:	b580      	push	{r7, lr}
 8006826:	b086      	sub	sp, #24
 8006828:	af00      	add	r7, sp, #0
 800682a:	60f8      	str	r0, [r7, #12]
 800682c:	60b9      	str	r1, [r7, #8]
 800682e:	607a      	str	r2, [r7, #4]
  HAL_StatusTypeDef status = HAL_OK;
 8006830:	2317      	movs	r3, #23
 8006832:	18fb      	adds	r3, r7, r3
 8006834:	2200      	movs	r2, #0
 8006836:	701a      	strb	r2, [r3, #0]
  assert_param(IS_TIM_PWM_MODE(sConfig->OCMode));
  assert_param(IS_TIM_OC_POLARITY(sConfig->OCPolarity));
  assert_param(IS_TIM_FAST_STATE(sConfig->OCFastMode));

  /* Process Locked */
  __HAL_LOCK(htim);
 8006838:	68fb      	ldr	r3, [r7, #12]
 800683a:	2238      	movs	r2, #56	; 0x38
 800683c:	5c9b      	ldrb	r3, [r3, r2]
 800683e:	2b01      	cmp	r3, #1
 8006840:	d101      	bne.n	8006846 <HAL_TIM_PWM_ConfigChannel+0x22>
 8006842:	2302      	movs	r3, #2
 8006844:	e0ad      	b.n	80069a2 <HAL_TIM_PWM_ConfigChannel+0x17e>
 8006846:	68fb      	ldr	r3, [r7, #12]
 8006848:	2238      	movs	r2, #56	; 0x38
 800684a:	2101      	movs	r1, #1
 800684c:	5499      	strb	r1, [r3, r2]

  switch (Channel)
 800684e:	687b      	ldr	r3, [r7, #4]
 8006850:	2b0c      	cmp	r3, #12
 8006852:	d100      	bne.n	8006856 <HAL_TIM_PWM_ConfigChannel+0x32>
 8006854:	e076      	b.n	8006944 <HAL_TIM_PWM_ConfigChannel+0x120>
 8006856:	687b      	ldr	r3, [r7, #4]
 8006858:	2b0c      	cmp	r3, #12
 800685a:	d900      	bls.n	800685e <HAL_TIM_PWM_ConfigChannel+0x3a>
 800685c:	e095      	b.n	800698a <HAL_TIM_PWM_ConfigChannel+0x166>
 800685e:	687b      	ldr	r3, [r7, #4]
 8006860:	2b08      	cmp	r3, #8
 8006862:	d04e      	beq.n	8006902 <HAL_TIM_PWM_ConfigChannel+0xde>
 8006864:	687b      	ldr	r3, [r7, #4]
 8006866:	2b08      	cmp	r3, #8
 8006868:	d900      	bls.n	800686c <HAL_TIM_PWM_ConfigChannel+0x48>
 800686a:	e08e      	b.n	800698a <HAL_TIM_PWM_ConfigChannel+0x166>
 800686c:	687b      	ldr	r3, [r7, #4]
 800686e:	2b00      	cmp	r3, #0
 8006870:	d003      	beq.n	800687a <HAL_TIM_PWM_ConfigChannel+0x56>
 8006872:	687b      	ldr	r3, [r7, #4]
 8006874:	2b04      	cmp	r3, #4
 8006876:	d021      	beq.n	80068bc <HAL_TIM_PWM_ConfigChannel+0x98>
 8006878:	e087      	b.n	800698a <HAL_TIM_PWM_ConfigChannel+0x166>
    {
      /* Check the parameters */
      assert_param(IS_TIM_CC1_INSTANCE(htim->Instance));

      /* Configure the Channel 1 in PWM mode */
      TIM_OC1_SetConfig(htim->Instance, sConfig);
 800687a:	68fb      	ldr	r3, [r7, #12]
 800687c:	681b      	ldr	r3, [r3, #0]
 800687e:	68ba      	ldr	r2, [r7, #8]
 8006880:	0011      	movs	r1, r2
 8006882:	0018      	movs	r0, r3
 8006884:	f000 fac0 	bl	8006e08 <TIM_OC1_SetConfig>

      /* Set the Preload enable bit for channel1 */
      htim->Instance->CCMR1 |= TIM_CCMR1_OC1PE;
 8006888:	68fb      	ldr	r3, [r7, #12]
 800688a:	681b      	ldr	r3, [r3, #0]
 800688c:	699a      	ldr	r2, [r3, #24]
 800688e:	68fb      	ldr	r3, [r7, #12]
 8006890:	681b      	ldr	r3, [r3, #0]
 8006892:	2108      	movs	r1, #8
 8006894:	430a      	orrs	r2, r1
 8006896:	619a      	str	r2, [r3, #24]

      /* Configure the Output Fast mode */
      htim->Instance->CCMR1 &= ~TIM_CCMR1_OC1FE;
 8006898:	68fb      	ldr	r3, [r7, #12]
 800689a:	681b      	ldr	r3, [r3, #0]
 800689c:	699a      	ldr	r2, [r3, #24]
 800689e:	68fb      	ldr	r3, [r7, #12]
 80068a0:	681b      	ldr	r3, [r3, #0]
 80068a2:	2104      	movs	r1, #4
 80068a4:	438a      	bics	r2, r1
 80068a6:	619a      	str	r2, [r3, #24]
      htim->Instance->CCMR1 |= sConfig->OCFastMode;
 80068a8:	68fb      	ldr	r3, [r7, #12]
 80068aa:	681b      	ldr	r3, [r3, #0]
 80068ac:	6999      	ldr	r1, [r3, #24]
 80068ae:	68bb      	ldr	r3, [r7, #8]
 80068b0:	68da      	ldr	r2, [r3, #12]
 80068b2:	68fb      	ldr	r3, [r7, #12]
 80068b4:	681b      	ldr	r3, [r3, #0]
 80068b6:	430a      	orrs	r2, r1
 80068b8:	619a      	str	r2, [r3, #24]
      break;
 80068ba:	e06b      	b.n	8006994 <HAL_TIM_PWM_ConfigChannel+0x170>
    {
      /* Check the parameters */
      assert_param(IS_TIM_CC2_INSTANCE(htim->Instance));

      /* Configure the Channel 2 in PWM mode */
      TIM_OC2_SetConfig(htim->Instance, sConfig);
 80068bc:	68fb      	ldr	r3, [r7, #12]
 80068be:	681b      	ldr	r3, [r3, #0]
 80068c0:	68ba      	ldr	r2, [r7, #8]
 80068c2:	0011      	movs	r1, r2
 80068c4:	0018      	movs	r0, r3
 80068c6:	f000 fadb 	bl	8006e80 <TIM_OC2_SetConfig>

      /* Set the Preload enable bit for channel2 */
      htim->Instance->CCMR1 |= TIM_CCMR1_OC2PE;
 80068ca:	68fb      	ldr	r3, [r7, #12]
 80068cc:	681b      	ldr	r3, [r3, #0]
 80068ce:	699a      	ldr	r2, [r3, #24]
 80068d0:	68fb      	ldr	r3, [r7, #12]
 80068d2:	681b      	ldr	r3, [r3, #0]
 80068d4:	2180      	movs	r1, #128	; 0x80
 80068d6:	0109      	lsls	r1, r1, #4
 80068d8:	430a      	orrs	r2, r1
 80068da:	619a      	str	r2, [r3, #24]

      /* Configure the Output Fast mode */
      htim->Instance->CCMR1 &= ~TIM_CCMR1_OC2FE;
 80068dc:	68fb      	ldr	r3, [r7, #12]
 80068de:	681b      	ldr	r3, [r3, #0]
 80068e0:	699a      	ldr	r2, [r3, #24]
 80068e2:	68fb      	ldr	r3, [r7, #12]
 80068e4:	681b      	ldr	r3, [r3, #0]
 80068e6:	4931      	ldr	r1, [pc, #196]	; (80069ac <HAL_TIM_PWM_ConfigChannel+0x188>)
 80068e8:	400a      	ands	r2, r1
 80068ea:	619a      	str	r2, [r3, #24]
      htim->Instance->CCMR1 |= sConfig->OCFastMode << 8U;
 80068ec:	68fb      	ldr	r3, [r7, #12]
 80068ee:	681b      	ldr	r3, [r3, #0]
 80068f0:	6999      	ldr	r1, [r3, #24]
 80068f2:	68bb      	ldr	r3, [r7, #8]
 80068f4:	68db      	ldr	r3, [r3, #12]
 80068f6:	021a      	lsls	r2, r3, #8
 80068f8:	68fb      	ldr	r3, [r7, #12]
 80068fa:	681b      	ldr	r3, [r3, #0]
 80068fc:	430a      	orrs	r2, r1
 80068fe:	619a      	str	r2, [r3, #24]
      break;
 8006900:	e048      	b.n	8006994 <HAL_TIM_PWM_ConfigChannel+0x170>
    {
      /* Check the parameters */
      assert_param(IS_TIM_CC3_INSTANCE(htim->Instance));

      /* Configure the Channel 3 in PWM mode */
      TIM_OC3_SetConfig(htim->Instance, sConfig);
 8006902:	68fb      	ldr	r3, [r7, #12]
 8006904:	681b      	ldr	r3, [r3, #0]
 8006906:	68ba      	ldr	r2, [r7, #8]
 8006908:	0011      	movs	r1, r2
 800690a:	0018      	movs	r0, r3
 800690c:	f000 fafa 	bl	8006f04 <TIM_OC3_SetConfig>

      /* Set the Preload enable bit for channel3 */
      htim->Instance->CCMR2 |= TIM_CCMR2_OC3PE;
 8006910:	68fb      	ldr	r3, [r7, #12]
 8006912:	681b      	ldr	r3, [r3, #0]
 8006914:	69da      	ldr	r2, [r3, #28]
 8006916:	68fb      	ldr	r3, [r7, #12]
 8006918:	681b      	ldr	r3, [r3, #0]
 800691a:	2108      	movs	r1, #8
 800691c:	430a      	orrs	r2, r1
 800691e:	61da      	str	r2, [r3, #28]

      /* Configure the Output Fast mode */
      htim->Instance->CCMR2 &= ~TIM_CCMR2_OC3FE;
 8006920:	68fb      	ldr	r3, [r7, #12]
 8006922:	681b      	ldr	r3, [r3, #0]
 8006924:	69da      	ldr	r2, [r3, #28]
 8006926:	68fb      	ldr	r3, [r7, #12]
 8006928:	681b      	ldr	r3, [r3, #0]
 800692a:	2104      	movs	r1, #4
 800692c:	438a      	bics	r2, r1
 800692e:	61da      	str	r2, [r3, #28]
      htim->Instance->CCMR2 |= sConfig->OCFastMode;
 8006930:	68fb      	ldr	r3, [r7, #12]
 8006932:	681b      	ldr	r3, [r3, #0]
 8006934:	69d9      	ldr	r1, [r3, #28]
 8006936:	68bb      	ldr	r3, [r7, #8]
 8006938:	68da      	ldr	r2, [r3, #12]
 800693a:	68fb      	ldr	r3, [r7, #12]
 800693c:	681b      	ldr	r3, [r3, #0]
 800693e:	430a      	orrs	r2, r1
 8006940:	61da      	str	r2, [r3, #28]
      break;
 8006942:	e027      	b.n	8006994 <HAL_TIM_PWM_ConfigChannel+0x170>
    {
      /* Check the parameters */
      assert_param(IS_TIM_CC4_INSTANCE(htim->Instance));

      /* Configure the Channel 4 in PWM mode */
      TIM_OC4_SetConfig(htim->Instance, sConfig);
 8006944:	68fb      	ldr	r3, [r7, #12]
 8006946:	681b      	ldr	r3, [r3, #0]
 8006948:	68ba      	ldr	r2, [r7, #8]
 800694a:	0011      	movs	r1, r2
 800694c:	0018      	movs	r0, r3
 800694e:	f000 fb19 	bl	8006f84 <TIM_OC4_SetConfig>

      /* Set the Preload enable bit for channel4 */
      htim->Instance->CCMR2 |= TIM_CCMR2_OC4PE;
 8006952:	68fb      	ldr	r3, [r7, #12]
 8006954:	681b      	ldr	r3, [r3, #0]
 8006956:	69da      	ldr	r2, [r3, #28]
 8006958:	68fb      	ldr	r3, [r7, #12]
 800695a:	681b      	ldr	r3, [r3, #0]
 800695c:	2180      	movs	r1, #128	; 0x80
 800695e:	0109      	lsls	r1, r1, #4
 8006960:	430a      	orrs	r2, r1
 8006962:	61da      	str	r2, [r3, #28]

      /* Configure the Output Fast mode */
      htim->Instance->CCMR2 &= ~TIM_CCMR2_OC4FE;
 8006964:	68fb      	ldr	r3, [r7, #12]
 8006966:	681b      	ldr	r3, [r3, #0]
 8006968:	69da      	ldr	r2, [r3, #28]
 800696a:	68fb      	ldr	r3, [r7, #12]
 800696c:	681b      	ldr	r3, [r3, #0]
 800696e:	490f      	ldr	r1, [pc, #60]	; (80069ac <HAL_TIM_PWM_ConfigChannel+0x188>)
 8006970:	400a      	ands	r2, r1
 8006972:	61da      	str	r2, [r3, #28]
      htim->Instance->CCMR2 |= sConfig->OCFastMode << 8U;
 8006974:	68fb      	ldr	r3, [r7, #12]
 8006976:	681b      	ldr	r3, [r3, #0]
 8006978:	69d9      	ldr	r1, [r3, #28]
 800697a:	68bb      	ldr	r3, [r7, #8]
 800697c:	68db      	ldr	r3, [r3, #12]
 800697e:	021a      	lsls	r2, r3, #8
 8006980:	68fb      	ldr	r3, [r7, #12]
 8006982:	681b      	ldr	r3, [r3, #0]
 8006984:	430a      	orrs	r2, r1
 8006986:	61da      	str	r2, [r3, #28]
      break;
 8006988:	e004      	b.n	8006994 <HAL_TIM_PWM_ConfigChannel+0x170>
    }

    default:
      status = HAL_ERROR;
 800698a:	2317      	movs	r3, #23
 800698c:	18fb      	adds	r3, r7, r3
 800698e:	2201      	movs	r2, #1
 8006990:	701a      	strb	r2, [r3, #0]
      break;
 8006992:	46c0      	nop			; (mov r8, r8)
  }

  __HAL_UNLOCK(htim);
 8006994:	68fb      	ldr	r3, [r7, #12]
 8006996:	2238      	movs	r2, #56	; 0x38
 8006998:	2100      	movs	r1, #0
 800699a:	5499      	strb	r1, [r3, r2]

  return status;
 800699c:	2317      	movs	r3, #23
 800699e:	18fb      	adds	r3, r7, r3
 80069a0:	781b      	ldrb	r3, [r3, #0]
}
 80069a2:	0018      	movs	r0, r3
 80069a4:	46bd      	mov	sp, r7
 80069a6:	b006      	add	sp, #24
 80069a8:	bd80      	pop	{r7, pc}
 80069aa:	46c0      	nop			; (mov r8, r8)
 80069ac:	fffffbff 	.word	0xfffffbff

080069b0 <HAL_TIM_ConfigClockSource>:
  * @param  sClockSourceConfig pointer to a TIM_ClockConfigTypeDef structure that
  *         contains the clock source information for the TIM peripheral.
  * @retval HAL status
  */
HAL_StatusTypeDef HAL_TIM_ConfigClockSource(TIM_HandleTypeDef *htim, const TIM_ClockConfigTypeDef *sClockSourceConfig)
{
 80069b0:	b580      	push	{r7, lr}
 80069b2:	b084      	sub	sp, #16
 80069b4:	af00      	add	r7, sp, #0
 80069b6:	6078      	str	r0, [r7, #4]
 80069b8:	6039      	str	r1, [r7, #0]
  HAL_StatusTypeDef status = HAL_OK;
 80069ba:	230f      	movs	r3, #15
 80069bc:	18fb      	adds	r3, r7, r3
 80069be:	2200      	movs	r2, #0
 80069c0:	701a      	strb	r2, [r3, #0]
  uint32_t tmpsmcr;

  /* Process Locked */
  __HAL_LOCK(htim);
 80069c2:	687b      	ldr	r3, [r7, #4]
 80069c4:	2238      	movs	r2, #56	; 0x38
 80069c6:	5c9b      	ldrb	r3, [r3, r2]
 80069c8:	2b01      	cmp	r3, #1
 80069ca:	d101      	bne.n	80069d0 <HAL_TIM_ConfigClockSource+0x20>
 80069cc:	2302      	movs	r3, #2
 80069ce:	e0bc      	b.n	8006b4a <HAL_TIM_ConfigClockSource+0x19a>
 80069d0:	687b      	ldr	r3, [r7, #4]
 80069d2:	2238      	movs	r2, #56	; 0x38
 80069d4:	2101      	movs	r1, #1
 80069d6:	5499      	strb	r1, [r3, r2]

  htim->State = HAL_TIM_STATE_BUSY;
 80069d8:	687b      	ldr	r3, [r7, #4]
 80069da:	2239      	movs	r2, #57	; 0x39
 80069dc:	2102      	movs	r1, #2
 80069de:	5499      	strb	r1, [r3, r2]

  /* Check the parameters */
  assert_param(IS_TIM_CLOCKSOURCE(sClockSourceConfig->ClockSource));

  /* Reset the SMS, TS, ECE, ETPS and ETRF bits */
  tmpsmcr = htim->Instance->SMCR;
 80069e0:	687b      	ldr	r3, [r7, #4]
 80069e2:	681b      	ldr	r3, [r3, #0]
 80069e4:	689b      	ldr	r3, [r3, #8]
 80069e6:	60bb      	str	r3, [r7, #8]
  tmpsmcr &= ~(TIM_SMCR_SMS | TIM_SMCR_TS);
 80069e8:	68bb      	ldr	r3, [r7, #8]
 80069ea:	2277      	movs	r2, #119	; 0x77
 80069ec:	4393      	bics	r3, r2
 80069ee:	60bb      	str	r3, [r7, #8]
  tmpsmcr &= ~(TIM_SMCR_ETF | TIM_SMCR_ETPS | TIM_SMCR_ECE | TIM_SMCR_ETP);
 80069f0:	68bb      	ldr	r3, [r7, #8]
 80069f2:	4a58      	ldr	r2, [pc, #352]	; (8006b54 <HAL_TIM_ConfigClockSource+0x1a4>)
 80069f4:	4013      	ands	r3, r2
 80069f6:	60bb      	str	r3, [r7, #8]
  htim->Instance->SMCR = tmpsmcr;
 80069f8:	687b      	ldr	r3, [r7, #4]
 80069fa:	681b      	ldr	r3, [r3, #0]
 80069fc:	68ba      	ldr	r2, [r7, #8]
 80069fe:	609a      	str	r2, [r3, #8]

  switch (sClockSourceConfig->ClockSource)
 8006a00:	683b      	ldr	r3, [r7, #0]
 8006a02:	681b      	ldr	r3, [r3, #0]
 8006a04:	2280      	movs	r2, #128	; 0x80
 8006a06:	0192      	lsls	r2, r2, #6
 8006a08:	4293      	cmp	r3, r2
 8006a0a:	d040      	beq.n	8006a8e <HAL_TIM_ConfigClockSource+0xde>
 8006a0c:	2280      	movs	r2, #128	; 0x80
 8006a0e:	0192      	lsls	r2, r2, #6
 8006a10:	4293      	cmp	r3, r2
 8006a12:	d900      	bls.n	8006a16 <HAL_TIM_ConfigClockSource+0x66>
 8006a14:	e088      	b.n	8006b28 <HAL_TIM_ConfigClockSource+0x178>
 8006a16:	2280      	movs	r2, #128	; 0x80
 8006a18:	0152      	lsls	r2, r2, #5
 8006a1a:	4293      	cmp	r3, r2
 8006a1c:	d100      	bne.n	8006a20 <HAL_TIM_ConfigClockSource+0x70>
 8006a1e:	e088      	b.n	8006b32 <HAL_TIM_ConfigClockSource+0x182>
 8006a20:	2280      	movs	r2, #128	; 0x80
 8006a22:	0152      	lsls	r2, r2, #5
 8006a24:	4293      	cmp	r3, r2
 8006a26:	d900      	bls.n	8006a2a <HAL_TIM_ConfigClockSource+0x7a>
 8006a28:	e07e      	b.n	8006b28 <HAL_TIM_ConfigClockSource+0x178>
 8006a2a:	2b70      	cmp	r3, #112	; 0x70
 8006a2c:	d018      	beq.n	8006a60 <HAL_TIM_ConfigClockSource+0xb0>
 8006a2e:	d900      	bls.n	8006a32 <HAL_TIM_ConfigClockSource+0x82>
 8006a30:	e07a      	b.n	8006b28 <HAL_TIM_ConfigClockSource+0x178>
 8006a32:	2b60      	cmp	r3, #96	; 0x60
 8006a34:	d04f      	beq.n	8006ad6 <HAL_TIM_ConfigClockSource+0x126>
 8006a36:	d900      	bls.n	8006a3a <HAL_TIM_ConfigClockSource+0x8a>
 8006a38:	e076      	b.n	8006b28 <HAL_TIM_ConfigClockSource+0x178>
 8006a3a:	2b50      	cmp	r3, #80	; 0x50
 8006a3c:	d03b      	beq.n	8006ab6 <HAL_TIM_ConfigClockSource+0x106>
 8006a3e:	d900      	bls.n	8006a42 <HAL_TIM_ConfigClockSource+0x92>
 8006a40:	e072      	b.n	8006b28 <HAL_TIM_ConfigClockSource+0x178>
 8006a42:	2b40      	cmp	r3, #64	; 0x40
 8006a44:	d057      	beq.n	8006af6 <HAL_TIM_ConfigClockSource+0x146>
 8006a46:	d900      	bls.n	8006a4a <HAL_TIM_ConfigClockSource+0x9a>
 8006a48:	e06e      	b.n	8006b28 <HAL_TIM_ConfigClockSource+0x178>
 8006a4a:	2b30      	cmp	r3, #48	; 0x30
 8006a4c:	d063      	beq.n	8006b16 <HAL_TIM_ConfigClockSource+0x166>
 8006a4e:	d86b      	bhi.n	8006b28 <HAL_TIM_ConfigClockSource+0x178>
 8006a50:	2b20      	cmp	r3, #32
 8006a52:	d060      	beq.n	8006b16 <HAL_TIM_ConfigClockSource+0x166>
 8006a54:	d868      	bhi.n	8006b28 <HAL_TIM_ConfigClockSource+0x178>
 8006a56:	2b00      	cmp	r3, #0
 8006a58:	d05d      	beq.n	8006b16 <HAL_TIM_ConfigClockSource+0x166>
 8006a5a:	2b10      	cmp	r3, #16
 8006a5c:	d05b      	beq.n	8006b16 <HAL_TIM_ConfigClockSource+0x166>
 8006a5e:	e063      	b.n	8006b28 <HAL_TIM_ConfigClockSource+0x178>
      assert_param(IS_TIM_CLOCKPRESCALER(sClockSourceConfig->ClockPrescaler));
      assert_param(IS_TIM_CLOCKPOLARITY(sClockSourceConfig->ClockPolarity));
      assert_param(IS_TIM_CLOCKFILTER(sClockSourceConfig->ClockFilter));

      /* Configure the ETR Clock source */
      TIM_ETR_SetConfig(htim->Instance,
 8006a60:	687b      	ldr	r3, [r7, #4]
 8006a62:	6818      	ldr	r0, [r3, #0]
                        sClockSourceConfig->ClockPrescaler,
 8006a64:	683b      	ldr	r3, [r7, #0]
 8006a66:	6899      	ldr	r1, [r3, #8]
                        sClockSourceConfig->ClockPolarity,
 8006a68:	683b      	ldr	r3, [r7, #0]
 8006a6a:	685a      	ldr	r2, [r3, #4]
                        sClockSourceConfig->ClockFilter);
 8006a6c:	683b      	ldr	r3, [r7, #0]
 8006a6e:	68db      	ldr	r3, [r3, #12]
      TIM_ETR_SetConfig(htim->Instance,
 8006a70:	f000 fb48 	bl	8007104 <TIM_ETR_SetConfig>

      /* Select the External clock mode1 and the ETRF trigger */
      tmpsmcr = htim->Instance->SMCR;
 8006a74:	687b      	ldr	r3, [r7, #4]
 8006a76:	681b      	ldr	r3, [r3, #0]
 8006a78:	689b      	ldr	r3, [r3, #8]
 8006a7a:	60bb      	str	r3, [r7, #8]
      tmpsmcr |= (TIM_SLAVEMODE_EXTERNAL1 | TIM_CLOCKSOURCE_ETRMODE1);
 8006a7c:	68bb      	ldr	r3, [r7, #8]
 8006a7e:	2277      	movs	r2, #119	; 0x77
 8006a80:	4313      	orrs	r3, r2
 8006a82:	60bb      	str	r3, [r7, #8]
      /* Write to TIMx SMCR */
      htim->Instance->SMCR = tmpsmcr;
 8006a84:	687b      	ldr	r3, [r7, #4]
 8006a86:	681b      	ldr	r3, [r3, #0]
 8006a88:	68ba      	ldr	r2, [r7, #8]
 8006a8a:	609a      	str	r2, [r3, #8]
      break;
 8006a8c:	e052      	b.n	8006b34 <HAL_TIM_ConfigClockSource+0x184>
      assert_param(IS_TIM_CLOCKPRESCALER(sClockSourceConfig->ClockPrescaler));
      assert_param(IS_TIM_CLOCKPOLARITY(sClockSourceConfig->ClockPolarity));
      assert_param(IS_TIM_CLOCKFILTER(sClockSourceConfig->ClockFilter));

      /* Configure the ETR Clock source */
      TIM_ETR_SetConfig(htim->Instance,
 8006a8e:	687b      	ldr	r3, [r7, #4]
 8006a90:	6818      	ldr	r0, [r3, #0]
                        sClockSourceConfig->ClockPrescaler,
 8006a92:	683b      	ldr	r3, [r7, #0]
 8006a94:	6899      	ldr	r1, [r3, #8]
                        sClockSourceConfig->ClockPolarity,
 8006a96:	683b      	ldr	r3, [r7, #0]
 8006a98:	685a      	ldr	r2, [r3, #4]
                        sClockSourceConfig->ClockFilter);
 8006a9a:	683b      	ldr	r3, [r7, #0]
 8006a9c:	68db      	ldr	r3, [r3, #12]
      TIM_ETR_SetConfig(htim->Instance,
 8006a9e:	f000 fb31 	bl	8007104 <TIM_ETR_SetConfig>
      /* Enable the External clock mode2 */
      htim->Instance->SMCR |= TIM_SMCR_ECE;
 8006aa2:	687b      	ldr	r3, [r7, #4]
 8006aa4:	681b      	ldr	r3, [r3, #0]
 8006aa6:	689a      	ldr	r2, [r3, #8]
 8006aa8:	687b      	ldr	r3, [r7, #4]
 8006aaa:	681b      	ldr	r3, [r3, #0]
 8006aac:	2180      	movs	r1, #128	; 0x80
 8006aae:	01c9      	lsls	r1, r1, #7
 8006ab0:	430a      	orrs	r2, r1
 8006ab2:	609a      	str	r2, [r3, #8]
      break;
 8006ab4:	e03e      	b.n	8006b34 <HAL_TIM_ConfigClockSource+0x184>

      /* Check TI1 input conditioning related parameters */
      assert_param(IS_TIM_CLOCKPOLARITY(sClockSourceConfig->ClockPolarity));
      assert_param(IS_TIM_CLOCKFILTER(sClockSourceConfig->ClockFilter));

      TIM_TI1_ConfigInputStage(htim->Instance,
 8006ab6:	687b      	ldr	r3, [r7, #4]
 8006ab8:	6818      	ldr	r0, [r3, #0]
                               sClockSourceConfig->ClockPolarity,
 8006aba:	683b      	ldr	r3, [r7, #0]
 8006abc:	6859      	ldr	r1, [r3, #4]
                               sClockSourceConfig->ClockFilter);
 8006abe:	683b      	ldr	r3, [r7, #0]
 8006ac0:	68db      	ldr	r3, [r3, #12]
      TIM_TI1_ConfigInputStage(htim->Instance,
 8006ac2:	001a      	movs	r2, r3
 8006ac4:	f000 faa4 	bl	8007010 <TIM_TI1_ConfigInputStage>
      TIM_ITRx_SetConfig(htim->Instance, TIM_CLOCKSOURCE_TI1);
 8006ac8:	687b      	ldr	r3, [r7, #4]
 8006aca:	681b      	ldr	r3, [r3, #0]
 8006acc:	2150      	movs	r1, #80	; 0x50
 8006ace:	0018      	movs	r0, r3
 8006ad0:	f000 fafe 	bl	80070d0 <TIM_ITRx_SetConfig>
      break;
 8006ad4:	e02e      	b.n	8006b34 <HAL_TIM_ConfigClockSource+0x184>

      /* Check TI2 input conditioning related parameters */
      assert_param(IS_TIM_CLOCKPOLARITY(sClockSourceConfig->ClockPolarity));
      assert_param(IS_TIM_CLOCKFILTER(sClockSourceConfig->ClockFilter));

      TIM_TI2_ConfigInputStage(htim->Instance,
 8006ad6:	687b      	ldr	r3, [r7, #4]
 8006ad8:	6818      	ldr	r0, [r3, #0]
                               sClockSourceConfig->ClockPolarity,
 8006ada:	683b      	ldr	r3, [r7, #0]
 8006adc:	6859      	ldr	r1, [r3, #4]
                               sClockSourceConfig->ClockFilter);
 8006ade:	683b      	ldr	r3, [r7, #0]
 8006ae0:	68db      	ldr	r3, [r3, #12]
      TIM_TI2_ConfigInputStage(htim->Instance,
 8006ae2:	001a      	movs	r2, r3
 8006ae4:	f000 fac2 	bl	800706c <TIM_TI2_ConfigInputStage>
      TIM_ITRx_SetConfig(htim->Instance, TIM_CLOCKSOURCE_TI2);
 8006ae8:	687b      	ldr	r3, [r7, #4]
 8006aea:	681b      	ldr	r3, [r3, #0]
 8006aec:	2160      	movs	r1, #96	; 0x60
 8006aee:	0018      	movs	r0, r3
 8006af0:	f000 faee 	bl	80070d0 <TIM_ITRx_SetConfig>
      break;
 8006af4:	e01e      	b.n	8006b34 <HAL_TIM_ConfigClockSource+0x184>

      /* Check TI1 input conditioning related parameters */
      assert_param(IS_TIM_CLOCKPOLARITY(sClockSourceConfig->ClockPolarity));
      assert_param(IS_TIM_CLOCKFILTER(sClockSourceConfig->ClockFilter));

      TIM_TI1_ConfigInputStage(htim->Instance,
 8006af6:	687b      	ldr	r3, [r7, #4]
 8006af8:	6818      	ldr	r0, [r3, #0]
                               sClockSourceConfig->ClockPolarity,
 8006afa:	683b      	ldr	r3, [r7, #0]
 8006afc:	6859      	ldr	r1, [r3, #4]
                               sClockSourceConfig->ClockFilter);
 8006afe:	683b      	ldr	r3, [r7, #0]
 8006b00:	68db      	ldr	r3, [r3, #12]
      TIM_TI1_ConfigInputStage(htim->Instance,
 8006b02:	001a      	movs	r2, r3
 8006b04:	f000 fa84 	bl	8007010 <TIM_TI1_ConfigInputStage>
      TIM_ITRx_SetConfig(htim->Instance, TIM_CLOCKSOURCE_TI1ED);
 8006b08:	687b      	ldr	r3, [r7, #4]
 8006b0a:	681b      	ldr	r3, [r3, #0]
 8006b0c:	2140      	movs	r1, #64	; 0x40
 8006b0e:	0018      	movs	r0, r3
 8006b10:	f000 fade 	bl	80070d0 <TIM_ITRx_SetConfig>
      break;
 8006b14:	e00e      	b.n	8006b34 <HAL_TIM_ConfigClockSource+0x184>
    case TIM_CLOCKSOURCE_ITR3:
    {
      /* Check whether or not the timer instance supports internal trigger input */
      assert_param(IS_TIM_CLOCKSOURCE_ITRX_INSTANCE(htim->Instance));

      TIM_ITRx_SetConfig(htim->Instance, sClockSourceConfig->ClockSource);
 8006b16:	687b      	ldr	r3, [r7, #4]
 8006b18:	681a      	ldr	r2, [r3, #0]
 8006b1a:	683b      	ldr	r3, [r7, #0]
 8006b1c:	681b      	ldr	r3, [r3, #0]
 8006b1e:	0019      	movs	r1, r3
 8006b20:	0010      	movs	r0, r2
 8006b22:	f000 fad5 	bl	80070d0 <TIM_ITRx_SetConfig>
      break;
 8006b26:	e005      	b.n	8006b34 <HAL_TIM_ConfigClockSource+0x184>
    }

    default:
      status = HAL_ERROR;
 8006b28:	230f      	movs	r3, #15
 8006b2a:	18fb      	adds	r3, r7, r3
 8006b2c:	2201      	movs	r2, #1
 8006b2e:	701a      	strb	r2, [r3, #0]
      break;
 8006b30:	e000      	b.n	8006b34 <HAL_TIM_ConfigClockSource+0x184>
      break;
 8006b32:	46c0      	nop			; (mov r8, r8)
  }
  htim->State = HAL_TIM_STATE_READY;
 8006b34:	687b      	ldr	r3, [r7, #4]
 8006b36:	2239      	movs	r2, #57	; 0x39
 8006b38:	2101      	movs	r1, #1
 8006b3a:	5499      	strb	r1, [r3, r2]

  __HAL_UNLOCK(htim);
 8006b3c:	687b      	ldr	r3, [r7, #4]
 8006b3e:	2238      	movs	r2, #56	; 0x38
 8006b40:	2100      	movs	r1, #0
 8006b42:	5499      	strb	r1, [r3, r2]

  return status;
 8006b44:	230f      	movs	r3, #15
 8006b46:	18fb      	adds	r3, r7, r3
 8006b48:	781b      	ldrb	r3, [r3, #0]
}
 8006b4a:	0018      	movs	r0, r3
 8006b4c:	46bd      	mov	sp, r7
 8006b4e:	b004      	add	sp, #16
 8006b50:	bd80      	pop	{r7, pc}
 8006b52:	46c0      	nop			; (mov r8, r8)
 8006b54:	ffff00ff 	.word	0xffff00ff

08006b58 <HAL_TIM_PeriodElapsedCallback>:
  * @brief  Period elapsed callback in non-blocking mode
  * @param  htim TIM handle
  * @retval None
  */
__weak void HAL_TIM_PeriodElapsedCallback(TIM_HandleTypeDef *htim)
{
 8006b58:	b580      	push	{r7, lr}
 8006b5a:	b082      	sub	sp, #8
 8006b5c:	af00      	add	r7, sp, #0
 8006b5e:	6078      	str	r0, [r7, #4]
  UNUSED(htim);

  /* NOTE : This function should not be modified, when the callback is needed,
            the HAL_TIM_PeriodElapsedCallback could be implemented in the user file
   */
}
 8006b60:	46c0      	nop			; (mov r8, r8)
 8006b62:	46bd      	mov	sp, r7
 8006b64:	b002      	add	sp, #8
 8006b66:	bd80      	pop	{r7, pc}

08006b68 <HAL_TIM_OC_DelayElapsedCallback>:
  * @brief  Output Compare callback in non-blocking mode
  * @param  htim TIM OC handle
  * @retval None
  */
__weak void HAL_TIM_OC_DelayElapsedCallback(TIM_HandleTypeDef *htim)
{
 8006b68:	b580      	push	{r7, lr}
 8006b6a:	b082      	sub	sp, #8
 8006b6c:	af00      	add	r7, sp, #0
 8006b6e:	6078      	str	r0, [r7, #4]
  UNUSED(htim);

  /* NOTE : This function should not be modified, when the callback is needed,
            the HAL_TIM_OC_DelayElapsedCallback could be implemented in the user file
   */
}
 8006b70:	46c0      	nop			; (mov r8, r8)
 8006b72:	46bd      	mov	sp, r7
 8006b74:	b002      	add	sp, #8
 8006b76:	bd80      	pop	{r7, pc}

08006b78 <HAL_TIM_IC_CaptureCallback>:
  * @brief  Input Capture callback in non-blocking mode
  * @param  htim TIM IC handle
  * @retval None
  */
__weak void HAL_TIM_IC_CaptureCallback(TIM_HandleTypeDef *htim)
{
 8006b78:	b580      	push	{r7, lr}
 8006b7a:	b082      	sub	sp, #8
 8006b7c:	af00      	add	r7, sp, #0
 8006b7e:	6078      	str	r0, [r7, #4]
  UNUSED(htim);

  /* NOTE : This function should not be modified, when the callback is needed,
            the HAL_TIM_IC_CaptureCallback could be implemented in the user file
   */
}
 8006b80:	46c0      	nop			; (mov r8, r8)
 8006b82:	46bd      	mov	sp, r7
 8006b84:	b002      	add	sp, #8
 8006b86:	bd80      	pop	{r7, pc}

08006b88 <HAL_TIM_PWM_PulseFinishedHalfCpltCallback>:
  * @brief  PWM Pulse finished half complete callback in non-blocking mode
  * @param  htim TIM handle
  * @retval None
  */
__weak void HAL_TIM_PWM_PulseFinishedHalfCpltCallback(TIM_HandleTypeDef *htim)
{
 8006b88:	b580      	push	{r7, lr}
 8006b8a:	b082      	sub	sp, #8
 8006b8c:	af00      	add	r7, sp, #0
 8006b8e:	6078      	str	r0, [r7, #4]
  UNUSED(htim);

  /* NOTE : This function should not be modified, when the callback is needed,
            the HAL_TIM_PWM_PulseFinishedHalfCpltCallback could be implemented in the user file
   */
}
 8006b90:	46c0      	nop			; (mov r8, r8)
 8006b92:	46bd      	mov	sp, r7
 8006b94:	b002      	add	sp, #8
 8006b96:	bd80      	pop	{r7, pc}

08006b98 <HAL_TIM_TriggerCallback>:
  * @brief  Hall Trigger detection callback in non-blocking mode
  * @param  htim TIM handle
  * @retval None
  */
__weak void HAL_TIM_TriggerCallback(TIM_HandleTypeDef *htim)
{
 8006b98:	b580      	push	{r7, lr}
 8006b9a:	b082      	sub	sp, #8
 8006b9c:	af00      	add	r7, sp, #0
 8006b9e:	6078      	str	r0, [r7, #4]
  UNUSED(htim);

  /* NOTE : This function should not be modified, when the callback is needed,
            the HAL_TIM_TriggerCallback could be implemented in the user file
   */
}
 8006ba0:	46c0      	nop			; (mov r8, r8)
 8006ba2:	46bd      	mov	sp, r7
 8006ba4:	b002      	add	sp, #8
 8006ba6:	bd80      	pop	{r7, pc}

08006ba8 <HAL_TIM_ErrorCallback>:
  * @brief  Timer error callback in non-blocking mode
  * @param  htim TIM handle
  * @retval None
  */
__weak void HAL_TIM_ErrorCallback(TIM_HandleTypeDef *htim)
{
 8006ba8:	b580      	push	{r7, lr}
 8006baa:	b082      	sub	sp, #8
 8006bac:	af00      	add	r7, sp, #0
 8006bae:	6078      	str	r0, [r7, #4]
  UNUSED(htim);

  /* NOTE : This function should not be modified, when the callback is needed,
            the HAL_TIM_ErrorCallback could be implemented in the user file
   */
}
 8006bb0:	46c0      	nop			; (mov r8, r8)
 8006bb2:	46bd      	mov	sp, r7
 8006bb4:	b002      	add	sp, #8
 8006bb6:	bd80      	pop	{r7, pc}

08006bb8 <TIM_DMAError>:
  * @brief  TIM DMA error callback
  * @param  hdma pointer to DMA handle.
  * @retval None
  */
void TIM_DMAError(DMA_HandleTypeDef *hdma)
{
 8006bb8:	b580      	push	{r7, lr}
 8006bba:	b084      	sub	sp, #16
 8006bbc:	af00      	add	r7, sp, #0
 8006bbe:	6078      	str	r0, [r7, #4]
  TIM_HandleTypeDef *htim = (TIM_HandleTypeDef *)((DMA_HandleTypeDef *)hdma)->Parent;
 8006bc0:	687b      	ldr	r3, [r7, #4]
 8006bc2:	6a9b      	ldr	r3, [r3, #40]	; 0x28
 8006bc4:	60fb      	str	r3, [r7, #12]

  if (hdma == htim->hdma[TIM_DMA_ID_CC1])
 8006bc6:	68fb      	ldr	r3, [r7, #12]
 8006bc8:	6a1b      	ldr	r3, [r3, #32]
 8006bca:	687a      	ldr	r2, [r7, #4]
 8006bcc:	429a      	cmp	r2, r3
 8006bce:	d107      	bne.n	8006be0 <TIM_DMAError+0x28>
  {
    htim->Channel = HAL_TIM_ACTIVE_CHANNEL_1;
 8006bd0:	68fb      	ldr	r3, [r7, #12]
 8006bd2:	2201      	movs	r2, #1
 8006bd4:	761a      	strb	r2, [r3, #24]
    TIM_CHANNEL_STATE_SET(htim, TIM_CHANNEL_1, HAL_TIM_CHANNEL_STATE_READY);
 8006bd6:	68fb      	ldr	r3, [r7, #12]
 8006bd8:	223a      	movs	r2, #58	; 0x3a
 8006bda:	2101      	movs	r1, #1
 8006bdc:	5499      	strb	r1, [r3, r2]
 8006bde:	e02a      	b.n	8006c36 <TIM_DMAError+0x7e>
  }
  else if (hdma == htim->hdma[TIM_DMA_ID_CC2])
 8006be0:	68fb      	ldr	r3, [r7, #12]
 8006be2:	6a5b      	ldr	r3, [r3, #36]	; 0x24
 8006be4:	687a      	ldr	r2, [r7, #4]
 8006be6:	429a      	cmp	r2, r3
 8006be8:	d107      	bne.n	8006bfa <TIM_DMAError+0x42>
  {
    htim->Channel = HAL_TIM_ACTIVE_CHANNEL_2;
 8006bea:	68fb      	ldr	r3, [r7, #12]
 8006bec:	2202      	movs	r2, #2
 8006bee:	761a      	strb	r2, [r3, #24]
    TIM_CHANNEL_STATE_SET(htim, TIM_CHANNEL_2, HAL_TIM_CHANNEL_STATE_READY);
 8006bf0:	68fb      	ldr	r3, [r7, #12]
 8006bf2:	223b      	movs	r2, #59	; 0x3b
 8006bf4:	2101      	movs	r1, #1
 8006bf6:	5499      	strb	r1, [r3, r2]
 8006bf8:	e01d      	b.n	8006c36 <TIM_DMAError+0x7e>
  }
  else if (hdma == htim->hdma[TIM_DMA_ID_CC3])
 8006bfa:	68fb      	ldr	r3, [r7, #12]
 8006bfc:	6a9b      	ldr	r3, [r3, #40]	; 0x28
 8006bfe:	687a      	ldr	r2, [r7, #4]
 8006c00:	429a      	cmp	r2, r3
 8006c02:	d107      	bne.n	8006c14 <TIM_DMAError+0x5c>
  {
    htim->Channel = HAL_TIM_ACTIVE_CHANNEL_3;
 8006c04:	68fb      	ldr	r3, [r7, #12]
 8006c06:	2204      	movs	r2, #4
 8006c08:	761a      	strb	r2, [r3, #24]
    TIM_CHANNEL_STATE_SET(htim, TIM_CHANNEL_3, HAL_TIM_CHANNEL_STATE_READY);
 8006c0a:	68fb      	ldr	r3, [r7, #12]
 8006c0c:	223c      	movs	r2, #60	; 0x3c
 8006c0e:	2101      	movs	r1, #1
 8006c10:	5499      	strb	r1, [r3, r2]
 8006c12:	e010      	b.n	8006c36 <TIM_DMAError+0x7e>
  }
  else if (hdma == htim->hdma[TIM_DMA_ID_CC4])
 8006c14:	68fb      	ldr	r3, [r7, #12]
 8006c16:	6adb      	ldr	r3, [r3, #44]	; 0x2c
 8006c18:	687a      	ldr	r2, [r7, #4]
 8006c1a:	429a      	cmp	r2, r3
 8006c1c:	d107      	bne.n	8006c2e <TIM_DMAError+0x76>
  {
    htim->Channel = HAL_TIM_ACTIVE_CHANNEL_4;
 8006c1e:	68fb      	ldr	r3, [r7, #12]
 8006c20:	2208      	movs	r2, #8
 8006c22:	761a      	strb	r2, [r3, #24]
    TIM_CHANNEL_STATE_SET(htim, TIM_CHANNEL_4, HAL_TIM_CHANNEL_STATE_READY);
 8006c24:	68fb      	ldr	r3, [r7, #12]
 8006c26:	223d      	movs	r2, #61	; 0x3d
 8006c28:	2101      	movs	r1, #1
 8006c2a:	5499      	strb	r1, [r3, r2]
 8006c2c:	e003      	b.n	8006c36 <TIM_DMAError+0x7e>
  }
  else
  {
    htim->State = HAL_TIM_STATE_READY;
 8006c2e:	68fb      	ldr	r3, [r7, #12]
 8006c30:	2239      	movs	r2, #57	; 0x39
 8006c32:	2101      	movs	r1, #1
 8006c34:	5499      	strb	r1, [r3, r2]
  }

#if (USE_HAL_TIM_REGISTER_CALLBACKS == 1)
  htim->ErrorCallback(htim);
#else
  HAL_TIM_ErrorCallback(htim);
 8006c36:	68fb      	ldr	r3, [r7, #12]
 8006c38:	0018      	movs	r0, r3
 8006c3a:	f7ff ffb5 	bl	8006ba8 <HAL_TIM_ErrorCallback>
#endif /* USE_HAL_TIM_REGISTER_CALLBACKS */

  htim->Channel = HAL_TIM_ACTIVE_CHANNEL_CLEARED;
 8006c3e:	68fb      	ldr	r3, [r7, #12]
 8006c40:	2200      	movs	r2, #0
 8006c42:	761a      	strb	r2, [r3, #24]
}
 8006c44:	46c0      	nop			; (mov r8, r8)
 8006c46:	46bd      	mov	sp, r7
 8006c48:	b004      	add	sp, #16
 8006c4a:	bd80      	pop	{r7, pc}

08006c4c <TIM_DMADelayPulseCplt>:
  * @brief  TIM DMA Delay Pulse complete callback.
  * @param  hdma pointer to DMA handle.
  * @retval None
  */
static void TIM_DMADelayPulseCplt(DMA_HandleTypeDef *hdma)
{
 8006c4c:	b580      	push	{r7, lr}
 8006c4e:	b084      	sub	sp, #16
 8006c50:	af00      	add	r7, sp, #0
 8006c52:	6078      	str	r0, [r7, #4]
  TIM_HandleTypeDef *htim = (TIM_HandleTypeDef *)((DMA_HandleTypeDef *)hdma)->Parent;
 8006c54:	687b      	ldr	r3, [r7, #4]
 8006c56:	6a9b      	ldr	r3, [r3, #40]	; 0x28
 8006c58:	60fb      	str	r3, [r7, #12]

  if (hdma == htim->hdma[TIM_DMA_ID_CC1])
 8006c5a:	68fb      	ldr	r3, [r7, #12]
 8006c5c:	6a1b      	ldr	r3, [r3, #32]
 8006c5e:	687a      	ldr	r2, [r7, #4]
 8006c60:	429a      	cmp	r2, r3
 8006c62:	d10b      	bne.n	8006c7c <TIM_DMADelayPulseCplt+0x30>
  {
    htim->Channel = HAL_TIM_ACTIVE_CHANNEL_1;
 8006c64:	68fb      	ldr	r3, [r7, #12]
 8006c66:	2201      	movs	r2, #1
 8006c68:	761a      	strb	r2, [r3, #24]

    if (hdma->Init.Mode == DMA_NORMAL)
 8006c6a:	687b      	ldr	r3, [r7, #4]
 8006c6c:	69db      	ldr	r3, [r3, #28]
 8006c6e:	2b00      	cmp	r3, #0
 8006c70:	d136      	bne.n	8006ce0 <TIM_DMADelayPulseCplt+0x94>
    {
      TIM_CHANNEL_STATE_SET(htim, TIM_CHANNEL_1, HAL_TIM_CHANNEL_STATE_READY);
 8006c72:	68fb      	ldr	r3, [r7, #12]
 8006c74:	223a      	movs	r2, #58	; 0x3a
 8006c76:	2101      	movs	r1, #1
 8006c78:	5499      	strb	r1, [r3, r2]
 8006c7a:	e031      	b.n	8006ce0 <TIM_DMADelayPulseCplt+0x94>
    }
  }
  else if (hdma == htim->hdma[TIM_DMA_ID_CC2])
 8006c7c:	68fb      	ldr	r3, [r7, #12]
 8006c7e:	6a5b      	ldr	r3, [r3, #36]	; 0x24
 8006c80:	687a      	ldr	r2, [r7, #4]
 8006c82:	429a      	cmp	r2, r3
 8006c84:	d10b      	bne.n	8006c9e <TIM_DMADelayPulseCplt+0x52>
  {
    htim->Channel = HAL_TIM_ACTIVE_CHANNEL_2;
 8006c86:	68fb      	ldr	r3, [r7, #12]
 8006c88:	2202      	movs	r2, #2
 8006c8a:	761a      	strb	r2, [r3, #24]

    if (hdma->Init.Mode == DMA_NORMAL)
 8006c8c:	687b      	ldr	r3, [r7, #4]
 8006c8e:	69db      	ldr	r3, [r3, #28]
 8006c90:	2b00      	cmp	r3, #0
 8006c92:	d125      	bne.n	8006ce0 <TIM_DMADelayPulseCplt+0x94>
    {
      TIM_CHANNEL_STATE_SET(htim, TIM_CHANNEL_2, HAL_TIM_CHANNEL_STATE_READY);
 8006c94:	68fb      	ldr	r3, [r7, #12]
 8006c96:	223b      	movs	r2, #59	; 0x3b
 8006c98:	2101      	movs	r1, #1
 8006c9a:	5499      	strb	r1, [r3, r2]
 8006c9c:	e020      	b.n	8006ce0 <TIM_DMADelayPulseCplt+0x94>
    }
  }
  else if (hdma == htim->hdma[TIM_DMA_ID_CC3])
 8006c9e:	68fb      	ldr	r3, [r7, #12]
 8006ca0:	6a9b      	ldr	r3, [r3, #40]	; 0x28
 8006ca2:	687a      	ldr	r2, [r7, #4]
 8006ca4:	429a      	cmp	r2, r3
 8006ca6:	d10b      	bne.n	8006cc0 <TIM_DMADelayPulseCplt+0x74>
  {
    htim->Channel = HAL_TIM_ACTIVE_CHANNEL_3;
 8006ca8:	68fb      	ldr	r3, [r7, #12]
 8006caa:	2204      	movs	r2, #4
 8006cac:	761a      	strb	r2, [r3, #24]

    if (hdma->Init.Mode == DMA_NORMAL)
 8006cae:	687b      	ldr	r3, [r7, #4]
 8006cb0:	69db      	ldr	r3, [r3, #28]
 8006cb2:	2b00      	cmp	r3, #0
 8006cb4:	d114      	bne.n	8006ce0 <TIM_DMADelayPulseCplt+0x94>
    {
      TIM_CHANNEL_STATE_SET(htim, TIM_CHANNEL_3, HAL_TIM_CHANNEL_STATE_READY);
 8006cb6:	68fb      	ldr	r3, [r7, #12]
 8006cb8:	223c      	movs	r2, #60	; 0x3c
 8006cba:	2101      	movs	r1, #1
 8006cbc:	5499      	strb	r1, [r3, r2]
 8006cbe:	e00f      	b.n	8006ce0 <TIM_DMADelayPulseCplt+0x94>
    }
  }
  else if (hdma == htim->hdma[TIM_DMA_ID_CC4])
 8006cc0:	68fb      	ldr	r3, [r7, #12]
 8006cc2:	6adb      	ldr	r3, [r3, #44]	; 0x2c
 8006cc4:	687a      	ldr	r2, [r7, #4]
 8006cc6:	429a      	cmp	r2, r3
 8006cc8:	d10a      	bne.n	8006ce0 <TIM_DMADelayPulseCplt+0x94>
  {
    htim->Channel = HAL_TIM_ACTIVE_CHANNEL_4;
 8006cca:	68fb      	ldr	r3, [r7, #12]
 8006ccc:	2208      	movs	r2, #8
 8006cce:	761a      	strb	r2, [r3, #24]

    if (hdma->Init.Mode == DMA_NORMAL)
 8006cd0:	687b      	ldr	r3, [r7, #4]
 8006cd2:	69db      	ldr	r3, [r3, #28]
 8006cd4:	2b00      	cmp	r3, #0
 8006cd6:	d103      	bne.n	8006ce0 <TIM_DMADelayPulseCplt+0x94>
    {
      TIM_CHANNEL_STATE_SET(htim, TIM_CHANNEL_4, HAL_TIM_CHANNEL_STATE_READY);
 8006cd8:	68fb      	ldr	r3, [r7, #12]
 8006cda:	223d      	movs	r2, #61	; 0x3d
 8006cdc:	2101      	movs	r1, #1
 8006cde:	5499      	strb	r1, [r3, r2]
  }

#if (USE_HAL_TIM_REGISTER_CALLBACKS == 1)
  htim->PWM_PulseFinishedCallback(htim);
#else
  HAL_TIM_PWM_PulseFinishedCallback(htim);
 8006ce0:	68fb      	ldr	r3, [r7, #12]
 8006ce2:	0018      	movs	r0, r3
 8006ce4:	f7f9 ffb8 	bl	8000c58 <HAL_TIM_PWM_PulseFinishedCallback>
#endif /* USE_HAL_TIM_REGISTER_CALLBACKS */

  htim->Channel = HAL_TIM_ACTIVE_CHANNEL_CLEARED;
 8006ce8:	68fb      	ldr	r3, [r7, #12]
 8006cea:	2200      	movs	r2, #0
 8006cec:	761a      	strb	r2, [r3, #24]
}
 8006cee:	46c0      	nop			; (mov r8, r8)
 8006cf0:	46bd      	mov	sp, r7
 8006cf2:	b004      	add	sp, #16
 8006cf4:	bd80      	pop	{r7, pc}

08006cf6 <TIM_DMADelayPulseHalfCplt>:
  * @brief  TIM DMA Delay Pulse half complete callback.
  * @param  hdma pointer to DMA handle.
  * @retval None
  */
static void TIM_DMADelayPulseHalfCplt(DMA_HandleTypeDef *hdma)
{
 8006cf6:	b580      	push	{r7, lr}
 8006cf8:	b084      	sub	sp, #16
 8006cfa:	af00      	add	r7, sp, #0
 8006cfc:	6078      	str	r0, [r7, #4]
  TIM_HandleTypeDef *htim = (TIM_HandleTypeDef *)((DMA_HandleTypeDef *)hdma)->Parent;
 8006cfe:	687b      	ldr	r3, [r7, #4]
 8006d00:	6a9b      	ldr	r3, [r3, #40]	; 0x28
 8006d02:	60fb      	str	r3, [r7, #12]

  if (hdma == htim->hdma[TIM_DMA_ID_CC1])
 8006d04:	68fb      	ldr	r3, [r7, #12]
 8006d06:	6a1b      	ldr	r3, [r3, #32]
 8006d08:	687a      	ldr	r2, [r7, #4]
 8006d0a:	429a      	cmp	r2, r3
 8006d0c:	d103      	bne.n	8006d16 <TIM_DMADelayPulseHalfCplt+0x20>
  {
    htim->Channel = HAL_TIM_ACTIVE_CHANNEL_1;
 8006d0e:	68fb      	ldr	r3, [r7, #12]
 8006d10:	2201      	movs	r2, #1
 8006d12:	761a      	strb	r2, [r3, #24]
 8006d14:	e019      	b.n	8006d4a <TIM_DMADelayPulseHalfCplt+0x54>
  }
  else if (hdma == htim->hdma[TIM_DMA_ID_CC2])
 8006d16:	68fb      	ldr	r3, [r7, #12]
 8006d18:	6a5b      	ldr	r3, [r3, #36]	; 0x24
 8006d1a:	687a      	ldr	r2, [r7, #4]
 8006d1c:	429a      	cmp	r2, r3
 8006d1e:	d103      	bne.n	8006d28 <TIM_DMADelayPulseHalfCplt+0x32>
  {
    htim->Channel = HAL_TIM_ACTIVE_CHANNEL_2;
 8006d20:	68fb      	ldr	r3, [r7, #12]
 8006d22:	2202      	movs	r2, #2
 8006d24:	761a      	strb	r2, [r3, #24]
 8006d26:	e010      	b.n	8006d4a <TIM_DMADelayPulseHalfCplt+0x54>
  }
  else if (hdma == htim->hdma[TIM_DMA_ID_CC3])
 8006d28:	68fb      	ldr	r3, [r7, #12]
 8006d2a:	6a9b      	ldr	r3, [r3, #40]	; 0x28
 8006d2c:	687a      	ldr	r2, [r7, #4]
 8006d2e:	429a      	cmp	r2, r3
 8006d30:	d103      	bne.n	8006d3a <TIM_DMADelayPulseHalfCplt+0x44>
  {
    htim->Channel = HAL_TIM_ACTIVE_CHANNEL_3;
 8006d32:	68fb      	ldr	r3, [r7, #12]
 8006d34:	2204      	movs	r2, #4
 8006d36:	761a      	strb	r2, [r3, #24]
 8006d38:	e007      	b.n	8006d4a <TIM_DMADelayPulseHalfCplt+0x54>
  }
  else if (hdma == htim->hdma[TIM_DMA_ID_CC4])
 8006d3a:	68fb      	ldr	r3, [r7, #12]
 8006d3c:	6adb      	ldr	r3, [r3, #44]	; 0x2c
 8006d3e:	687a      	ldr	r2, [r7, #4]
 8006d40:	429a      	cmp	r2, r3
 8006d42:	d102      	bne.n	8006d4a <TIM_DMADelayPulseHalfCplt+0x54>
  {
    htim->Channel = HAL_TIM_ACTIVE_CHANNEL_4;
 8006d44:	68fb      	ldr	r3, [r7, #12]
 8006d46:	2208      	movs	r2, #8
 8006d48:	761a      	strb	r2, [r3, #24]
  }

#if (USE_HAL_TIM_REGISTER_CALLBACKS == 1)
  htim->PWM_PulseFinishedHalfCpltCallback(htim);
#else
  HAL_TIM_PWM_PulseFinishedHalfCpltCallback(htim);
 8006d4a:	68fb      	ldr	r3, [r7, #12]
 8006d4c:	0018      	movs	r0, r3
 8006d4e:	f7ff ff1b 	bl	8006b88 <HAL_TIM_PWM_PulseFinishedHalfCpltCallback>
#endif /* USE_HAL_TIM_REGISTER_CALLBACKS */

  htim->Channel = HAL_TIM_ACTIVE_CHANNEL_CLEARED;
 8006d52:	68fb      	ldr	r3, [r7, #12]
 8006d54:	2200      	movs	r2, #0
 8006d56:	761a      	strb	r2, [r3, #24]
}
 8006d58:	46c0      	nop			; (mov r8, r8)
 8006d5a:	46bd      	mov	sp, r7
 8006d5c:	b004      	add	sp, #16
 8006d5e:	bd80      	pop	{r7, pc}

08006d60 <TIM_Base_SetConfig>:
  * @param  TIMx TIM peripheral
  * @param  Structure TIM Base configuration structure
  * @retval None
  */
static void TIM_Base_SetConfig(TIM_TypeDef *TIMx, const TIM_Base_InitTypeDef *Structure)
{
 8006d60:	b580      	push	{r7, lr}
 8006d62:	b084      	sub	sp, #16
 8006d64:	af00      	add	r7, sp, #0
 8006d66:	6078      	str	r0, [r7, #4]
 8006d68:	6039      	str	r1, [r7, #0]
  uint32_t tmpcr1;
  tmpcr1 = TIMx->CR1;
 8006d6a:	687b      	ldr	r3, [r7, #4]
 8006d6c:	681b      	ldr	r3, [r3, #0]
 8006d6e:	60fb      	str	r3, [r7, #12]

  /* Set TIM Time Base Unit parameters ---------------------------------------*/
  if (IS_TIM_COUNTER_MODE_SELECT_INSTANCE(TIMx))
 8006d70:	687a      	ldr	r2, [r7, #4]
 8006d72:	2380      	movs	r3, #128	; 0x80
 8006d74:	05db      	lsls	r3, r3, #23
 8006d76:	429a      	cmp	r2, r3
 8006d78:	d007      	beq.n	8006d8a <TIM_Base_SetConfig+0x2a>
 8006d7a:	687b      	ldr	r3, [r7, #4]
 8006d7c:	4a1f      	ldr	r2, [pc, #124]	; (8006dfc <TIM_Base_SetConfig+0x9c>)
 8006d7e:	4293      	cmp	r3, r2
 8006d80:	d003      	beq.n	8006d8a <TIM_Base_SetConfig+0x2a>
 8006d82:	687b      	ldr	r3, [r7, #4]
 8006d84:	4a1e      	ldr	r2, [pc, #120]	; (8006e00 <TIM_Base_SetConfig+0xa0>)
 8006d86:	4293      	cmp	r3, r2
 8006d88:	d108      	bne.n	8006d9c <TIM_Base_SetConfig+0x3c>
  {
    /* Select the Counter Mode */
    tmpcr1 &= ~(TIM_CR1_DIR | TIM_CR1_CMS);
 8006d8a:	68fb      	ldr	r3, [r7, #12]
 8006d8c:	2270      	movs	r2, #112	; 0x70
 8006d8e:	4393      	bics	r3, r2
 8006d90:	60fb      	str	r3, [r7, #12]
    tmpcr1 |= Structure->CounterMode;
 8006d92:	683b      	ldr	r3, [r7, #0]
 8006d94:	685b      	ldr	r3, [r3, #4]
 8006d96:	68fa      	ldr	r2, [r7, #12]
 8006d98:	4313      	orrs	r3, r2
 8006d9a:	60fb      	str	r3, [r7, #12]
  }

  if (IS_TIM_CLOCK_DIVISION_INSTANCE(TIMx))
 8006d9c:	687a      	ldr	r2, [r7, #4]
 8006d9e:	2380      	movs	r3, #128	; 0x80
 8006da0:	05db      	lsls	r3, r3, #23
 8006da2:	429a      	cmp	r2, r3
 8006da4:	d007      	beq.n	8006db6 <TIM_Base_SetConfig+0x56>
 8006da6:	687b      	ldr	r3, [r7, #4]
 8006da8:	4a14      	ldr	r2, [pc, #80]	; (8006dfc <TIM_Base_SetConfig+0x9c>)
 8006daa:	4293      	cmp	r3, r2
 8006dac:	d003      	beq.n	8006db6 <TIM_Base_SetConfig+0x56>
 8006dae:	687b      	ldr	r3, [r7, #4]
 8006db0:	4a13      	ldr	r2, [pc, #76]	; (8006e00 <TIM_Base_SetConfig+0xa0>)
 8006db2:	4293      	cmp	r3, r2
 8006db4:	d108      	bne.n	8006dc8 <TIM_Base_SetConfig+0x68>
  {
    /* Set the clock division */
    tmpcr1 &= ~TIM_CR1_CKD;
 8006db6:	68fb      	ldr	r3, [r7, #12]
 8006db8:	4a12      	ldr	r2, [pc, #72]	; (8006e04 <TIM_Base_SetConfig+0xa4>)
 8006dba:	4013      	ands	r3, r2
 8006dbc:	60fb      	str	r3, [r7, #12]
    tmpcr1 |= (uint32_t)Structure->ClockDivision;
 8006dbe:	683b      	ldr	r3, [r7, #0]
 8006dc0:	68db      	ldr	r3, [r3, #12]
 8006dc2:	68fa      	ldr	r2, [r7, #12]
 8006dc4:	4313      	orrs	r3, r2
 8006dc6:	60fb      	str	r3, [r7, #12]
  }

  /* Set the auto-reload preload */
  MODIFY_REG(tmpcr1, TIM_CR1_ARPE, Structure->AutoReloadPreload);
 8006dc8:	68fb      	ldr	r3, [r7, #12]
 8006dca:	2280      	movs	r2, #128	; 0x80
 8006dcc:	4393      	bics	r3, r2
 8006dce:	001a      	movs	r2, r3
 8006dd0:	683b      	ldr	r3, [r7, #0]
 8006dd2:	691b      	ldr	r3, [r3, #16]
 8006dd4:	4313      	orrs	r3, r2
 8006dd6:	60fb      	str	r3, [r7, #12]

  TIMx->CR1 = tmpcr1;
 8006dd8:	687b      	ldr	r3, [r7, #4]
 8006dda:	68fa      	ldr	r2, [r7, #12]
 8006ddc:	601a      	str	r2, [r3, #0]

  /* Set the Autoreload value */
  TIMx->ARR = (uint32_t)Structure->Period ;
 8006dde:	683b      	ldr	r3, [r7, #0]
 8006de0:	689a      	ldr	r2, [r3, #8]
 8006de2:	687b      	ldr	r3, [r7, #4]
 8006de4:	62da      	str	r2, [r3, #44]	; 0x2c

  /* Set the Prescaler value */
  TIMx->PSC = Structure->Prescaler;
 8006de6:	683b      	ldr	r3, [r7, #0]
 8006de8:	681a      	ldr	r2, [r3, #0]
 8006dea:	687b      	ldr	r3, [r7, #4]
 8006dec:	629a      	str	r2, [r3, #40]	; 0x28

  /* Generate an update event to reload the Prescaler
     and the repetition counter (only for advanced timer) value immediately */
  TIMx->EGR = TIM_EGR_UG;
 8006dee:	687b      	ldr	r3, [r7, #4]
 8006df0:	2201      	movs	r2, #1
 8006df2:	615a      	str	r2, [r3, #20]
}
 8006df4:	46c0      	nop			; (mov r8, r8)
 8006df6:	46bd      	mov	sp, r7
 8006df8:	b004      	add	sp, #16
 8006dfa:	bd80      	pop	{r7, pc}
 8006dfc:	40010800 	.word	0x40010800
 8006e00:	40011400 	.word	0x40011400
 8006e04:	fffffcff 	.word	0xfffffcff

08006e08 <TIM_OC1_SetConfig>:
  * @param  TIMx to select the TIM peripheral
  * @param  OC_Config The output configuration structure
  * @retval None
  */
static void TIM_OC1_SetConfig(TIM_TypeDef *TIMx, const TIM_OC_InitTypeDef *OC_Config)
{
 8006e08:	b580      	push	{r7, lr}
 8006e0a:	b086      	sub	sp, #24
 8006e0c:	af00      	add	r7, sp, #0
 8006e0e:	6078      	str	r0, [r7, #4]
 8006e10:	6039      	str	r1, [r7, #0]
  uint32_t tmpccmrx;
  uint32_t tmpccer;
  uint32_t tmpcr2;

  /* Disable the Channel 1: Reset the CC1E Bit */
  TIMx->CCER &= ~TIM_CCER_CC1E;
 8006e12:	687b      	ldr	r3, [r7, #4]
 8006e14:	6a1b      	ldr	r3, [r3, #32]
 8006e16:	2201      	movs	r2, #1
 8006e18:	4393      	bics	r3, r2
 8006e1a:	001a      	movs	r2, r3
 8006e1c:	687b      	ldr	r3, [r7, #4]
 8006e1e:	621a      	str	r2, [r3, #32]

  /* Get the TIMx CCER register value */
  tmpccer = TIMx->CCER;
 8006e20:	687b      	ldr	r3, [r7, #4]
 8006e22:	6a1b      	ldr	r3, [r3, #32]
 8006e24:	617b      	str	r3, [r7, #20]
  /* Get the TIMx CR2 register value */
  tmpcr2 =  TIMx->CR2;
 8006e26:	687b      	ldr	r3, [r7, #4]
 8006e28:	685b      	ldr	r3, [r3, #4]
 8006e2a:	613b      	str	r3, [r7, #16]

  /* Get the TIMx CCMR1 register value */
  tmpccmrx = TIMx->CCMR1;
 8006e2c:	687b      	ldr	r3, [r7, #4]
 8006e2e:	699b      	ldr	r3, [r3, #24]
 8006e30:	60fb      	str	r3, [r7, #12]

  /* Reset the Output Compare Mode Bits */
  tmpccmrx &= ~TIM_CCMR1_OC1M;
 8006e32:	68fb      	ldr	r3, [r7, #12]
 8006e34:	2270      	movs	r2, #112	; 0x70
 8006e36:	4393      	bics	r3, r2
 8006e38:	60fb      	str	r3, [r7, #12]
  tmpccmrx &= ~TIM_CCMR1_CC1S;
 8006e3a:	68fb      	ldr	r3, [r7, #12]
 8006e3c:	2203      	movs	r2, #3
 8006e3e:	4393      	bics	r3, r2
 8006e40:	60fb      	str	r3, [r7, #12]
  /* Select the Output Compare Mode */
  tmpccmrx |= OC_Config->OCMode;
 8006e42:	683b      	ldr	r3, [r7, #0]
 8006e44:	681b      	ldr	r3, [r3, #0]
 8006e46:	68fa      	ldr	r2, [r7, #12]
 8006e48:	4313      	orrs	r3, r2
 8006e4a:	60fb      	str	r3, [r7, #12]

  /* Reset the Output Polarity level */
  tmpccer &= ~TIM_CCER_CC1P;
 8006e4c:	697b      	ldr	r3, [r7, #20]
 8006e4e:	2202      	movs	r2, #2
 8006e50:	4393      	bics	r3, r2
 8006e52:	617b      	str	r3, [r7, #20]
  /* Set the Output Compare Polarity */
  tmpccer |= OC_Config->OCPolarity;
 8006e54:	683b      	ldr	r3, [r7, #0]
 8006e56:	689b      	ldr	r3, [r3, #8]
 8006e58:	697a      	ldr	r2, [r7, #20]
 8006e5a:	4313      	orrs	r3, r2
 8006e5c:	617b      	str	r3, [r7, #20]

  /* Write to TIMx CR2 */
  TIMx->CR2 = tmpcr2;
 8006e5e:	687b      	ldr	r3, [r7, #4]
 8006e60:	693a      	ldr	r2, [r7, #16]
 8006e62:	605a      	str	r2, [r3, #4]

  /* Write to TIMx CCMR1 */
  TIMx->CCMR1 = tmpccmrx;
 8006e64:	687b      	ldr	r3, [r7, #4]
 8006e66:	68fa      	ldr	r2, [r7, #12]
 8006e68:	619a      	str	r2, [r3, #24]

  /* Set the Capture Compare Register value */
  TIMx->CCR1 = OC_Config->Pulse;
 8006e6a:	683b      	ldr	r3, [r7, #0]
 8006e6c:	685a      	ldr	r2, [r3, #4]
 8006e6e:	687b      	ldr	r3, [r7, #4]
 8006e70:	635a      	str	r2, [r3, #52]	; 0x34

  /* Write to TIMx CCER */
  TIMx->CCER = tmpccer;
 8006e72:	687b      	ldr	r3, [r7, #4]
 8006e74:	697a      	ldr	r2, [r7, #20]
 8006e76:	621a      	str	r2, [r3, #32]
}
 8006e78:	46c0      	nop			; (mov r8, r8)
 8006e7a:	46bd      	mov	sp, r7
 8006e7c:	b006      	add	sp, #24
 8006e7e:	bd80      	pop	{r7, pc}

08006e80 <TIM_OC2_SetConfig>:
  * @param  TIMx to select the TIM peripheral
  * @param  OC_Config The output configuration structure
  * @retval None
  */
static void TIM_OC2_SetConfig(TIM_TypeDef *TIMx, const TIM_OC_InitTypeDef *OC_Config)
{
 8006e80:	b580      	push	{r7, lr}
 8006e82:	b086      	sub	sp, #24
 8006e84:	af00      	add	r7, sp, #0
 8006e86:	6078      	str	r0, [r7, #4]
 8006e88:	6039      	str	r1, [r7, #0]
  uint32_t tmpccmrx;
  uint32_t tmpccer;
  uint32_t tmpcr2;

  /* Disable the Channel 2: Reset the CC2E Bit */
  TIMx->CCER &= ~TIM_CCER_CC2E;
 8006e8a:	687b      	ldr	r3, [r7, #4]
 8006e8c:	6a1b      	ldr	r3, [r3, #32]
 8006e8e:	2210      	movs	r2, #16
 8006e90:	4393      	bics	r3, r2
 8006e92:	001a      	movs	r2, r3
 8006e94:	687b      	ldr	r3, [r7, #4]
 8006e96:	621a      	str	r2, [r3, #32]

  /* Get the TIMx CCER register value */
  tmpccer = TIMx->CCER;
 8006e98:	687b      	ldr	r3, [r7, #4]
 8006e9a:	6a1b      	ldr	r3, [r3, #32]
 8006e9c:	617b      	str	r3, [r7, #20]
  /* Get the TIMx CR2 register value */
  tmpcr2 =  TIMx->CR2;
 8006e9e:	687b      	ldr	r3, [r7, #4]
 8006ea0:	685b      	ldr	r3, [r3, #4]
 8006ea2:	613b      	str	r3, [r7, #16]

  /* Get the TIMx CCMR1 register value */
  tmpccmrx = TIMx->CCMR1;
 8006ea4:	687b      	ldr	r3, [r7, #4]
 8006ea6:	699b      	ldr	r3, [r3, #24]
 8006ea8:	60fb      	str	r3, [r7, #12]

  /* Reset the Output Compare mode and Capture/Compare selection Bits */
  tmpccmrx &= ~TIM_CCMR1_OC2M;
 8006eaa:	68fb      	ldr	r3, [r7, #12]
 8006eac:	4a13      	ldr	r2, [pc, #76]	; (8006efc <TIM_OC2_SetConfig+0x7c>)
 8006eae:	4013      	ands	r3, r2
 8006eb0:	60fb      	str	r3, [r7, #12]
  tmpccmrx &= ~TIM_CCMR1_CC2S;
 8006eb2:	68fb      	ldr	r3, [r7, #12]
 8006eb4:	4a12      	ldr	r2, [pc, #72]	; (8006f00 <TIM_OC2_SetConfig+0x80>)
 8006eb6:	4013      	ands	r3, r2
 8006eb8:	60fb      	str	r3, [r7, #12]

  /* Select the Output Compare Mode */
  tmpccmrx |= (OC_Config->OCMode << 8U);
 8006eba:	683b      	ldr	r3, [r7, #0]
 8006ebc:	681b      	ldr	r3, [r3, #0]
 8006ebe:	021b      	lsls	r3, r3, #8
 8006ec0:	68fa      	ldr	r2, [r7, #12]
 8006ec2:	4313      	orrs	r3, r2
 8006ec4:	60fb      	str	r3, [r7, #12]

  /* Reset the Output Polarity level */
  tmpccer &= ~TIM_CCER_CC2P;
 8006ec6:	697b      	ldr	r3, [r7, #20]
 8006ec8:	2220      	movs	r2, #32
 8006eca:	4393      	bics	r3, r2
 8006ecc:	617b      	str	r3, [r7, #20]
  /* Set the Output Compare Polarity */
  tmpccer |= (OC_Config->OCPolarity << 4U);
 8006ece:	683b      	ldr	r3, [r7, #0]
 8006ed0:	689b      	ldr	r3, [r3, #8]
 8006ed2:	011b      	lsls	r3, r3, #4
 8006ed4:	697a      	ldr	r2, [r7, #20]
 8006ed6:	4313      	orrs	r3, r2
 8006ed8:	617b      	str	r3, [r7, #20]

  /* Write to TIMx CR2 */
  TIMx->CR2 = tmpcr2;
 8006eda:	687b      	ldr	r3, [r7, #4]
 8006edc:	693a      	ldr	r2, [r7, #16]
 8006ede:	605a      	str	r2, [r3, #4]

  /* Write to TIMx CCMR1 */
  TIMx->CCMR1 = tmpccmrx;
 8006ee0:	687b      	ldr	r3, [r7, #4]
 8006ee2:	68fa      	ldr	r2, [r7, #12]
 8006ee4:	619a      	str	r2, [r3, #24]

  /* Set the Capture Compare Register value */
  TIMx->CCR2 = OC_Config->Pulse;
 8006ee6:	683b      	ldr	r3, [r7, #0]
 8006ee8:	685a      	ldr	r2, [r3, #4]
 8006eea:	687b      	ldr	r3, [r7, #4]
 8006eec:	639a      	str	r2, [r3, #56]	; 0x38

  /* Write to TIMx CCER */
  TIMx->CCER = tmpccer;
 8006eee:	687b      	ldr	r3, [r7, #4]
 8006ef0:	697a      	ldr	r2, [r7, #20]
 8006ef2:	621a      	str	r2, [r3, #32]
}
 8006ef4:	46c0      	nop			; (mov r8, r8)
 8006ef6:	46bd      	mov	sp, r7
 8006ef8:	b006      	add	sp, #24
 8006efa:	bd80      	pop	{r7, pc}
 8006efc:	ffff8fff 	.word	0xffff8fff
 8006f00:	fffffcff 	.word	0xfffffcff

08006f04 <TIM_OC3_SetConfig>:
  * @param  TIMx to select the TIM peripheral
  * @param  OC_Config The output configuration structure
  * @retval None
  */
static void TIM_OC3_SetConfig(TIM_TypeDef *TIMx, const TIM_OC_InitTypeDef *OC_Config)
{
 8006f04:	b580      	push	{r7, lr}
 8006f06:	b086      	sub	sp, #24
 8006f08:	af00      	add	r7, sp, #0
 8006f0a:	6078      	str	r0, [r7, #4]
 8006f0c:	6039      	str	r1, [r7, #0]
  uint32_t tmpccmrx;
  uint32_t tmpccer;
  uint32_t tmpcr2;

  /* Disable the Channel 3: Reset the CC2E Bit */
  TIMx->CCER &= ~TIM_CCER_CC3E;
 8006f0e:	687b      	ldr	r3, [r7, #4]
 8006f10:	6a1b      	ldr	r3, [r3, #32]
 8006f12:	4a1a      	ldr	r2, [pc, #104]	; (8006f7c <TIM_OC3_SetConfig+0x78>)
 8006f14:	401a      	ands	r2, r3
 8006f16:	687b      	ldr	r3, [r7, #4]
 8006f18:	621a      	str	r2, [r3, #32]

  /* Get the TIMx CCER register value */
  tmpccer = TIMx->CCER;
 8006f1a:	687b      	ldr	r3, [r7, #4]
 8006f1c:	6a1b      	ldr	r3, [r3, #32]
 8006f1e:	617b      	str	r3, [r7, #20]
  /* Get the TIMx CR2 register value */
  tmpcr2 =  TIMx->CR2;
 8006f20:	687b      	ldr	r3, [r7, #4]
 8006f22:	685b      	ldr	r3, [r3, #4]
 8006f24:	613b      	str	r3, [r7, #16]

  /* Get the TIMx CCMR2 register value */
  tmpccmrx = TIMx->CCMR2;
 8006f26:	687b      	ldr	r3, [r7, #4]
 8006f28:	69db      	ldr	r3, [r3, #28]
 8006f2a:	60fb      	str	r3, [r7, #12]

  /* Reset the Output Compare mode and Capture/Compare selection Bits */
  tmpccmrx &= ~TIM_CCMR2_OC3M;
 8006f2c:	68fb      	ldr	r3, [r7, #12]
 8006f2e:	2270      	movs	r2, #112	; 0x70
 8006f30:	4393      	bics	r3, r2
 8006f32:	60fb      	str	r3, [r7, #12]
  tmpccmrx &= ~TIM_CCMR2_CC3S;
 8006f34:	68fb      	ldr	r3, [r7, #12]
 8006f36:	2203      	movs	r2, #3
 8006f38:	4393      	bics	r3, r2
 8006f3a:	60fb      	str	r3, [r7, #12]
  /* Select the Output Compare Mode */
  tmpccmrx |= OC_Config->OCMode;
 8006f3c:	683b      	ldr	r3, [r7, #0]
 8006f3e:	681b      	ldr	r3, [r3, #0]
 8006f40:	68fa      	ldr	r2, [r7, #12]
 8006f42:	4313      	orrs	r3, r2
 8006f44:	60fb      	str	r3, [r7, #12]

  /* Reset the Output Polarity level */
  tmpccer &= ~TIM_CCER_CC3P;
 8006f46:	697b      	ldr	r3, [r7, #20]
 8006f48:	4a0d      	ldr	r2, [pc, #52]	; (8006f80 <TIM_OC3_SetConfig+0x7c>)
 8006f4a:	4013      	ands	r3, r2
 8006f4c:	617b      	str	r3, [r7, #20]
  /* Set the Output Compare Polarity */
  tmpccer |= (OC_Config->OCPolarity << 8U);
 8006f4e:	683b      	ldr	r3, [r7, #0]
 8006f50:	689b      	ldr	r3, [r3, #8]
 8006f52:	021b      	lsls	r3, r3, #8
 8006f54:	697a      	ldr	r2, [r7, #20]
 8006f56:	4313      	orrs	r3, r2
 8006f58:	617b      	str	r3, [r7, #20]

  /* Write to TIMx CR2 */
  TIMx->CR2 = tmpcr2;
 8006f5a:	687b      	ldr	r3, [r7, #4]
 8006f5c:	693a      	ldr	r2, [r7, #16]
 8006f5e:	605a      	str	r2, [r3, #4]

  /* Write to TIMx CCMR2 */
  TIMx->CCMR2 = tmpccmrx;
 8006f60:	687b      	ldr	r3, [r7, #4]
 8006f62:	68fa      	ldr	r2, [r7, #12]
 8006f64:	61da      	str	r2, [r3, #28]

  /* Set the Capture Compare Register value */
  TIMx->CCR3 = OC_Config->Pulse;
 8006f66:	683b      	ldr	r3, [r7, #0]
 8006f68:	685a      	ldr	r2, [r3, #4]
 8006f6a:	687b      	ldr	r3, [r7, #4]
 8006f6c:	63da      	str	r2, [r3, #60]	; 0x3c

  /* Write to TIMx CCER */
  TIMx->CCER = tmpccer;
 8006f6e:	687b      	ldr	r3, [r7, #4]
 8006f70:	697a      	ldr	r2, [r7, #20]
 8006f72:	621a      	str	r2, [r3, #32]
}
 8006f74:	46c0      	nop			; (mov r8, r8)
 8006f76:	46bd      	mov	sp, r7
 8006f78:	b006      	add	sp, #24
 8006f7a:	bd80      	pop	{r7, pc}
 8006f7c:	fffffeff 	.word	0xfffffeff
 8006f80:	fffffdff 	.word	0xfffffdff

08006f84 <TIM_OC4_SetConfig>:
  * @param  TIMx to select the TIM peripheral
  * @param  OC_Config The output configuration structure
  * @retval None
  */
static void TIM_OC4_SetConfig(TIM_TypeDef *TIMx, const TIM_OC_InitTypeDef *OC_Config)
{
 8006f84:	b580      	push	{r7, lr}
 8006f86:	b086      	sub	sp, #24
 8006f88:	af00      	add	r7, sp, #0
 8006f8a:	6078      	str	r0, [r7, #4]
 8006f8c:	6039      	str	r1, [r7, #0]
  uint32_t tmpccmrx;
  uint32_t tmpccer;
  uint32_t tmpcr2;

  /* Disable the Channel 4: Reset the CC4E Bit */
  TIMx->CCER &= ~TIM_CCER_CC4E;
 8006f8e:	687b      	ldr	r3, [r7, #4]
 8006f90:	6a1b      	ldr	r3, [r3, #32]
 8006f92:	4a1b      	ldr	r2, [pc, #108]	; (8007000 <TIM_OC4_SetConfig+0x7c>)
 8006f94:	401a      	ands	r2, r3
 8006f96:	687b      	ldr	r3, [r7, #4]
 8006f98:	621a      	str	r2, [r3, #32]

  /* Get the TIMx CCER register value */
  tmpccer = TIMx->CCER;
 8006f9a:	687b      	ldr	r3, [r7, #4]
 8006f9c:	6a1b      	ldr	r3, [r3, #32]
 8006f9e:	617b      	str	r3, [r7, #20]
  /* Get the TIMx CR2 register value */
  tmpcr2 =  TIMx->CR2;
 8006fa0:	687b      	ldr	r3, [r7, #4]
 8006fa2:	685b      	ldr	r3, [r3, #4]
 8006fa4:	613b      	str	r3, [r7, #16]

  /* Get the TIMx CCMR2 register value */
  tmpccmrx = TIMx->CCMR2;
 8006fa6:	687b      	ldr	r3, [r7, #4]
 8006fa8:	69db      	ldr	r3, [r3, #28]
 8006faa:	60fb      	str	r3, [r7, #12]

  /* Reset the Output Compare mode and Capture/Compare selection Bits */
  tmpccmrx &= ~TIM_CCMR2_OC4M;
 8006fac:	68fb      	ldr	r3, [r7, #12]
 8006fae:	4a15      	ldr	r2, [pc, #84]	; (8007004 <TIM_OC4_SetConfig+0x80>)
 8006fb0:	4013      	ands	r3, r2
 8006fb2:	60fb      	str	r3, [r7, #12]
  tmpccmrx &= ~TIM_CCMR2_CC4S;
 8006fb4:	68fb      	ldr	r3, [r7, #12]
 8006fb6:	4a14      	ldr	r2, [pc, #80]	; (8007008 <TIM_OC4_SetConfig+0x84>)
 8006fb8:	4013      	ands	r3, r2
 8006fba:	60fb      	str	r3, [r7, #12]

  /* Select the Output Compare Mode */
  tmpccmrx |= (OC_Config->OCMode << 8U);
 8006fbc:	683b      	ldr	r3, [r7, #0]
 8006fbe:	681b      	ldr	r3, [r3, #0]
 8006fc0:	021b      	lsls	r3, r3, #8
 8006fc2:	68fa      	ldr	r2, [r7, #12]
 8006fc4:	4313      	orrs	r3, r2
 8006fc6:	60fb      	str	r3, [r7, #12]

  /* Reset the Output Polarity level */
  tmpccer &= ~TIM_CCER_CC4P;
 8006fc8:	697b      	ldr	r3, [r7, #20]
 8006fca:	4a10      	ldr	r2, [pc, #64]	; (800700c <TIM_OC4_SetConfig+0x88>)
 8006fcc:	4013      	ands	r3, r2
 8006fce:	617b      	str	r3, [r7, #20]
  /* Set the Output Compare Polarity */
  tmpccer |= (OC_Config->OCPolarity << 12U);
 8006fd0:	683b      	ldr	r3, [r7, #0]
 8006fd2:	689b      	ldr	r3, [r3, #8]
 8006fd4:	031b      	lsls	r3, r3, #12
 8006fd6:	697a      	ldr	r2, [r7, #20]
 8006fd8:	4313      	orrs	r3, r2
 8006fda:	617b      	str	r3, [r7, #20]

  /* Write to TIMx CR2 */
  TIMx->CR2 = tmpcr2;
 8006fdc:	687b      	ldr	r3, [r7, #4]
 8006fde:	693a      	ldr	r2, [r7, #16]
 8006fe0:	605a      	str	r2, [r3, #4]

  /* Write to TIMx CCMR2 */
  TIMx->CCMR2 = tmpccmrx;
 8006fe2:	687b      	ldr	r3, [r7, #4]
 8006fe4:	68fa      	ldr	r2, [r7, #12]
 8006fe6:	61da      	str	r2, [r3, #28]

  /* Set the Capture Compare Register value */
  TIMx->CCR4 = OC_Config->Pulse;
 8006fe8:	683b      	ldr	r3, [r7, #0]
 8006fea:	685a      	ldr	r2, [r3, #4]
 8006fec:	687b      	ldr	r3, [r7, #4]
 8006fee:	641a      	str	r2, [r3, #64]	; 0x40

  /* Write to TIMx CCER */
  TIMx->CCER = tmpccer;
 8006ff0:	687b      	ldr	r3, [r7, #4]
 8006ff2:	697a      	ldr	r2, [r7, #20]
 8006ff4:	621a      	str	r2, [r3, #32]
}
 8006ff6:	46c0      	nop			; (mov r8, r8)
 8006ff8:	46bd      	mov	sp, r7
 8006ffa:	b006      	add	sp, #24
 8006ffc:	bd80      	pop	{r7, pc}
 8006ffe:	46c0      	nop			; (mov r8, r8)
 8007000:	ffffefff 	.word	0xffffefff
 8007004:	ffff8fff 	.word	0xffff8fff
 8007008:	fffffcff 	.word	0xfffffcff
 800700c:	ffffdfff 	.word	0xffffdfff

08007010 <TIM_TI1_ConfigInputStage>:
  * @param  TIM_ICFilter Specifies the Input Capture Filter.
  *          This parameter must be a value between 0x00 and 0x0F.
  * @retval None
  */
static void TIM_TI1_ConfigInputStage(TIM_TypeDef *TIMx, uint32_t TIM_ICPolarity, uint32_t TIM_ICFilter)
{
 8007010:	b580      	push	{r7, lr}
 8007012:	b086      	sub	sp, #24
 8007014:	af00      	add	r7, sp, #0
 8007016:	60f8      	str	r0, [r7, #12]
 8007018:	60b9      	str	r1, [r7, #8]
 800701a:	607a      	str	r2, [r7, #4]
  uint32_t tmpccmr1;
  uint32_t tmpccer;

  /* Disable the Channel 1: Reset the CC1E Bit */
  tmpccer = TIMx->CCER;
 800701c:	68fb      	ldr	r3, [r7, #12]
 800701e:	6a1b      	ldr	r3, [r3, #32]
 8007020:	617b      	str	r3, [r7, #20]
  TIMx->CCER &= ~TIM_CCER_CC1E;
 8007022:	68fb      	ldr	r3, [r7, #12]
 8007024:	6a1b      	ldr	r3, [r3, #32]
 8007026:	2201      	movs	r2, #1
 8007028:	4393      	bics	r3, r2
 800702a:	001a      	movs	r2, r3
 800702c:	68fb      	ldr	r3, [r7, #12]
 800702e:	621a      	str	r2, [r3, #32]
  tmpccmr1 = TIMx->CCMR1;
 8007030:	68fb      	ldr	r3, [r7, #12]
 8007032:	699b      	ldr	r3, [r3, #24]
 8007034:	613b      	str	r3, [r7, #16]

  /* Set the filter */
  tmpccmr1 &= ~TIM_CCMR1_IC1F;
 8007036:	693b      	ldr	r3, [r7, #16]
 8007038:	22f0      	movs	r2, #240	; 0xf0
 800703a:	4393      	bics	r3, r2
 800703c:	613b      	str	r3, [r7, #16]
  tmpccmr1 |= (TIM_ICFilter << 4U);
 800703e:	687b      	ldr	r3, [r7, #4]
 8007040:	011b      	lsls	r3, r3, #4
 8007042:	693a      	ldr	r2, [r7, #16]
 8007044:	4313      	orrs	r3, r2
 8007046:	613b      	str	r3, [r7, #16]

  /* Select the Polarity and set the CC1E Bit */
  tmpccer &= ~(TIM_CCER_CC1P | TIM_CCER_CC1NP);
 8007048:	697b      	ldr	r3, [r7, #20]
 800704a:	220a      	movs	r2, #10
 800704c:	4393      	bics	r3, r2
 800704e:	617b      	str	r3, [r7, #20]
  tmpccer |= TIM_ICPolarity;
 8007050:	697a      	ldr	r2, [r7, #20]
 8007052:	68bb      	ldr	r3, [r7, #8]
 8007054:	4313      	orrs	r3, r2
 8007056:	617b      	str	r3, [r7, #20]

  /* Write to TIMx CCMR1 and CCER registers */
  TIMx->CCMR1 = tmpccmr1;
 8007058:	68fb      	ldr	r3, [r7, #12]
 800705a:	693a      	ldr	r2, [r7, #16]
 800705c:	619a      	str	r2, [r3, #24]
  TIMx->CCER = tmpccer;
 800705e:	68fb      	ldr	r3, [r7, #12]
 8007060:	697a      	ldr	r2, [r7, #20]
 8007062:	621a      	str	r2, [r3, #32]
}
 8007064:	46c0      	nop			; (mov r8, r8)
 8007066:	46bd      	mov	sp, r7
 8007068:	b006      	add	sp, #24
 800706a:	bd80      	pop	{r7, pc}

0800706c <TIM_TI2_ConfigInputStage>:
  * @param  TIM_ICFilter Specifies the Input Capture Filter.
  *          This parameter must be a value between 0x00 and 0x0F.
  * @retval None
  */
static void TIM_TI2_ConfigInputStage(TIM_TypeDef *TIMx, uint32_t TIM_ICPolarity, uint32_t TIM_ICFilter)
{
 800706c:	b580      	push	{r7, lr}
 800706e:	b086      	sub	sp, #24
 8007070:	af00      	add	r7, sp, #0
 8007072:	60f8      	str	r0, [r7, #12]
 8007074:	60b9      	str	r1, [r7, #8]
 8007076:	607a      	str	r2, [r7, #4]
  uint32_t tmpccmr1;
  uint32_t tmpccer;

  /* Disable the Channel 2: Reset the CC2E Bit */
  TIMx->CCER &= ~TIM_CCER_CC2E;
 8007078:	68fb      	ldr	r3, [r7, #12]
 800707a:	6a1b      	ldr	r3, [r3, #32]
 800707c:	2210      	movs	r2, #16
 800707e:	4393      	bics	r3, r2
 8007080:	001a      	movs	r2, r3
 8007082:	68fb      	ldr	r3, [r7, #12]
 8007084:	621a      	str	r2, [r3, #32]
  tmpccmr1 = TIMx->CCMR1;
 8007086:	68fb      	ldr	r3, [r7, #12]
 8007088:	699b      	ldr	r3, [r3, #24]
 800708a:	617b      	str	r3, [r7, #20]
  tmpccer = TIMx->CCER;
 800708c:	68fb      	ldr	r3, [r7, #12]
 800708e:	6a1b      	ldr	r3, [r3, #32]
 8007090:	613b      	str	r3, [r7, #16]

  /* Set the filter */
  tmpccmr1 &= ~TIM_CCMR1_IC2F;
 8007092:	697b      	ldr	r3, [r7, #20]
 8007094:	4a0d      	ldr	r2, [pc, #52]	; (80070cc <TIM_TI2_ConfigInputStage+0x60>)
 8007096:	4013      	ands	r3, r2
 8007098:	617b      	str	r3, [r7, #20]
  tmpccmr1 |= (TIM_ICFilter << 12U);
 800709a:	687b      	ldr	r3, [r7, #4]
 800709c:	031b      	lsls	r3, r3, #12
 800709e:	697a      	ldr	r2, [r7, #20]
 80070a0:	4313      	orrs	r3, r2
 80070a2:	617b      	str	r3, [r7, #20]

  /* Select the Polarity and set the CC2E Bit */
  tmpccer &= ~(TIM_CCER_CC2P | TIM_CCER_CC2NP);
 80070a4:	693b      	ldr	r3, [r7, #16]
 80070a6:	22a0      	movs	r2, #160	; 0xa0
 80070a8:	4393      	bics	r3, r2
 80070aa:	613b      	str	r3, [r7, #16]
  tmpccer |= (TIM_ICPolarity << 4U);
 80070ac:	68bb      	ldr	r3, [r7, #8]
 80070ae:	011b      	lsls	r3, r3, #4
 80070b0:	693a      	ldr	r2, [r7, #16]
 80070b2:	4313      	orrs	r3, r2
 80070b4:	613b      	str	r3, [r7, #16]

  /* Write to TIMx CCMR1 and CCER registers */
  TIMx->CCMR1 = tmpccmr1 ;
 80070b6:	68fb      	ldr	r3, [r7, #12]
 80070b8:	697a      	ldr	r2, [r7, #20]
 80070ba:	619a      	str	r2, [r3, #24]
  TIMx->CCER = tmpccer;
 80070bc:	68fb      	ldr	r3, [r7, #12]
 80070be:	693a      	ldr	r2, [r7, #16]
 80070c0:	621a      	str	r2, [r3, #32]
}
 80070c2:	46c0      	nop			; (mov r8, r8)
 80070c4:	46bd      	mov	sp, r7
 80070c6:	b006      	add	sp, #24
 80070c8:	bd80      	pop	{r7, pc}
 80070ca:	46c0      	nop			; (mov r8, r8)
 80070cc:	ffff0fff 	.word	0xffff0fff

080070d0 <TIM_ITRx_SetConfig>:
  *            @arg TIM_TS_TI2FP2: Filtered Timer Input 2
  *            @arg TIM_TS_ETRF: External Trigger input
  * @retval None
  */
static void TIM_ITRx_SetConfig(TIM_TypeDef *TIMx, uint32_t InputTriggerSource)
{
 80070d0:	b580      	push	{r7, lr}
 80070d2:	b084      	sub	sp, #16
 80070d4:	af00      	add	r7, sp, #0
 80070d6:	6078      	str	r0, [r7, #4]
 80070d8:	6039      	str	r1, [r7, #0]
  uint32_t tmpsmcr;

  /* Get the TIMx SMCR register value */
  tmpsmcr = TIMx->SMCR;
 80070da:	687b      	ldr	r3, [r7, #4]
 80070dc:	689b      	ldr	r3, [r3, #8]
 80070de:	60fb      	str	r3, [r7, #12]
  /* Reset the TS Bits */
  tmpsmcr &= ~TIM_SMCR_TS;
 80070e0:	68fb      	ldr	r3, [r7, #12]
 80070e2:	2270      	movs	r2, #112	; 0x70
 80070e4:	4393      	bics	r3, r2
 80070e6:	60fb      	str	r3, [r7, #12]
  /* Set the Input Trigger source and the slave mode*/
  tmpsmcr |= (InputTriggerSource | TIM_SLAVEMODE_EXTERNAL1);
 80070e8:	683a      	ldr	r2, [r7, #0]
 80070ea:	68fb      	ldr	r3, [r7, #12]
 80070ec:	4313      	orrs	r3, r2
 80070ee:	2207      	movs	r2, #7
 80070f0:	4313      	orrs	r3, r2
 80070f2:	60fb      	str	r3, [r7, #12]
  /* Write to TIMx SMCR */
  TIMx->SMCR = tmpsmcr;
 80070f4:	687b      	ldr	r3, [r7, #4]
 80070f6:	68fa      	ldr	r2, [r7, #12]
 80070f8:	609a      	str	r2, [r3, #8]
}
 80070fa:	46c0      	nop			; (mov r8, r8)
 80070fc:	46bd      	mov	sp, r7
 80070fe:	b004      	add	sp, #16
 8007100:	bd80      	pop	{r7, pc}
	...

08007104 <TIM_ETR_SetConfig>:
  *          This parameter must be a value between 0x00 and 0x0F
  * @retval None
  */
static void TIM_ETR_SetConfig(TIM_TypeDef *TIMx, uint32_t TIM_ExtTRGPrescaler,
                              uint32_t TIM_ExtTRGPolarity, uint32_t ExtTRGFilter)
{
 8007104:	b580      	push	{r7, lr}
 8007106:	b086      	sub	sp, #24
 8007108:	af00      	add	r7, sp, #0
 800710a:	60f8      	str	r0, [r7, #12]
 800710c:	60b9      	str	r1, [r7, #8]
 800710e:	607a      	str	r2, [r7, #4]
 8007110:	603b      	str	r3, [r7, #0]
  uint32_t tmpsmcr;

  tmpsmcr = TIMx->SMCR;
 8007112:	68fb      	ldr	r3, [r7, #12]
 8007114:	689b      	ldr	r3, [r3, #8]
 8007116:	617b      	str	r3, [r7, #20]

  /* Reset the ETR Bits */
  tmpsmcr &= ~(TIM_SMCR_ETF | TIM_SMCR_ETPS | TIM_SMCR_ECE | TIM_SMCR_ETP);
 8007118:	697b      	ldr	r3, [r7, #20]
 800711a:	4a09      	ldr	r2, [pc, #36]	; (8007140 <TIM_ETR_SetConfig+0x3c>)
 800711c:	4013      	ands	r3, r2
 800711e:	617b      	str	r3, [r7, #20]

  /* Set the Prescaler, the Filter value and the Polarity */
  tmpsmcr |= (uint32_t)(TIM_ExtTRGPrescaler | (TIM_ExtTRGPolarity | (ExtTRGFilter << 8U)));
 8007120:	683b      	ldr	r3, [r7, #0]
 8007122:	021a      	lsls	r2, r3, #8
 8007124:	687b      	ldr	r3, [r7, #4]
 8007126:	431a      	orrs	r2, r3
 8007128:	68bb      	ldr	r3, [r7, #8]
 800712a:	4313      	orrs	r3, r2
 800712c:	697a      	ldr	r2, [r7, #20]
 800712e:	4313      	orrs	r3, r2
 8007130:	617b      	str	r3, [r7, #20]

  /* Write to TIMx SMCR */
  TIMx->SMCR = tmpsmcr;
 8007132:	68fb      	ldr	r3, [r7, #12]
 8007134:	697a      	ldr	r2, [r7, #20]
 8007136:	609a      	str	r2, [r3, #8]
}
 8007138:	46c0      	nop			; (mov r8, r8)
 800713a:	46bd      	mov	sp, r7
 800713c:	b006      	add	sp, #24
 800713e:	bd80      	pop	{r7, pc}
 8007140:	ffff00ff 	.word	0xffff00ff

08007144 <TIM_CCxChannelCmd>:
  * @param  ChannelState specifies the TIM Channel CCxE bit new state.
  *          This parameter can be: TIM_CCx_ENABLE or TIM_CCx_DISABLE.
  * @retval None
  */
static void TIM_CCxChannelCmd(TIM_TypeDef *TIMx, uint32_t Channel, uint32_t ChannelState)
{
 8007144:	b580      	push	{r7, lr}
 8007146:	b086      	sub	sp, #24
 8007148:	af00      	add	r7, sp, #0
 800714a:	60f8      	str	r0, [r7, #12]
 800714c:	60b9      	str	r1, [r7, #8]
 800714e:	607a      	str	r2, [r7, #4]

  /* Check the parameters */
  assert_param(IS_TIM_CC1_INSTANCE(TIMx));
  assert_param(IS_TIM_CHANNELS(Channel));

  tmp = TIM_CCER_CC1E << (Channel & 0x1FU); /* 0x1FU = 31 bits max shift */
 8007150:	68bb      	ldr	r3, [r7, #8]
 8007152:	221f      	movs	r2, #31
 8007154:	4013      	ands	r3, r2
 8007156:	2201      	movs	r2, #1
 8007158:	409a      	lsls	r2, r3
 800715a:	0013      	movs	r3, r2
 800715c:	617b      	str	r3, [r7, #20]

  /* Reset the CCxE Bit */
  TIMx->CCER &= ~tmp;
 800715e:	68fb      	ldr	r3, [r7, #12]
 8007160:	6a1b      	ldr	r3, [r3, #32]
 8007162:	697a      	ldr	r2, [r7, #20]
 8007164:	43d2      	mvns	r2, r2
 8007166:	401a      	ands	r2, r3
 8007168:	68fb      	ldr	r3, [r7, #12]
 800716a:	621a      	str	r2, [r3, #32]

  /* Set or reset the CCxE Bit */
  TIMx->CCER |= (uint32_t)(ChannelState << (Channel & 0x1FU)); /* 0x1FU = 31 bits max shift */
 800716c:	68fb      	ldr	r3, [r7, #12]
 800716e:	6a1a      	ldr	r2, [r3, #32]
 8007170:	68bb      	ldr	r3, [r7, #8]
 8007172:	211f      	movs	r1, #31
 8007174:	400b      	ands	r3, r1
 8007176:	6879      	ldr	r1, [r7, #4]
 8007178:	4099      	lsls	r1, r3
 800717a:	000b      	movs	r3, r1
 800717c:	431a      	orrs	r2, r3
 800717e:	68fb      	ldr	r3, [r7, #12]
 8007180:	621a      	str	r2, [r3, #32]
}
 8007182:	46c0      	nop			; (mov r8, r8)
 8007184:	46bd      	mov	sp, r7
 8007186:	b006      	add	sp, #24
 8007188:	bd80      	pop	{r7, pc}
	...

0800718c <HAL_TIMEx_MasterConfigSynchronization>:
  *         mode.
  * @retval HAL status
  */
HAL_StatusTypeDef HAL_TIMEx_MasterConfigSynchronization(TIM_HandleTypeDef *htim,
                                                        const TIM_MasterConfigTypeDef *sMasterConfig)
{
 800718c:	b580      	push	{r7, lr}
 800718e:	b084      	sub	sp, #16
 8007190:	af00      	add	r7, sp, #0
 8007192:	6078      	str	r0, [r7, #4]
 8007194:	6039      	str	r1, [r7, #0]
  assert_param(IS_TIM_MASTER_INSTANCE(htim->Instance));
  assert_param(IS_TIM_TRGO_SOURCE(sMasterConfig->MasterOutputTrigger));
  assert_param(IS_TIM_MSM_STATE(sMasterConfig->MasterSlaveMode));

  /* Check input state */
  __HAL_LOCK(htim);
 8007196:	687b      	ldr	r3, [r7, #4]
 8007198:	2238      	movs	r2, #56	; 0x38
 800719a:	5c9b      	ldrb	r3, [r3, r2]
 800719c:	2b01      	cmp	r3, #1
 800719e:	d101      	bne.n	80071a4 <HAL_TIMEx_MasterConfigSynchronization+0x18>
 80071a0:	2302      	movs	r3, #2
 80071a2:	e042      	b.n	800722a <HAL_TIMEx_MasterConfigSynchronization+0x9e>
 80071a4:	687b      	ldr	r3, [r7, #4]
 80071a6:	2238      	movs	r2, #56	; 0x38
 80071a8:	2101      	movs	r1, #1
 80071aa:	5499      	strb	r1, [r3, r2]

  /* Change the handler state */
  htim->State = HAL_TIM_STATE_BUSY;
 80071ac:	687b      	ldr	r3, [r7, #4]
 80071ae:	2239      	movs	r2, #57	; 0x39
 80071b0:	2102      	movs	r1, #2
 80071b2:	5499      	strb	r1, [r3, r2]

  /* Get the TIMx CR2 register value */
  tmpcr2 = htim->Instance->CR2;
 80071b4:	687b      	ldr	r3, [r7, #4]
 80071b6:	681b      	ldr	r3, [r3, #0]
 80071b8:	685b      	ldr	r3, [r3, #4]
 80071ba:	60fb      	str	r3, [r7, #12]

  /* Get the TIMx SMCR register value */
  tmpsmcr = htim->Instance->SMCR;
 80071bc:	687b      	ldr	r3, [r7, #4]
 80071be:	681b      	ldr	r3, [r3, #0]
 80071c0:	689b      	ldr	r3, [r3, #8]
 80071c2:	60bb      	str	r3, [r7, #8]

  /* Reset the MMS Bits */
  tmpcr2 &= ~TIM_CR2_MMS;
 80071c4:	68fb      	ldr	r3, [r7, #12]
 80071c6:	2270      	movs	r2, #112	; 0x70
 80071c8:	4393      	bics	r3, r2
 80071ca:	60fb      	str	r3, [r7, #12]
  /* Select the TRGO source */
  tmpcr2 |=  sMasterConfig->MasterOutputTrigger;
 80071cc:	683b      	ldr	r3, [r7, #0]
 80071ce:	681b      	ldr	r3, [r3, #0]
 80071d0:	68fa      	ldr	r2, [r7, #12]
 80071d2:	4313      	orrs	r3, r2
 80071d4:	60fb      	str	r3, [r7, #12]

  /* Update TIMx CR2 */
  htim->Instance->CR2 = tmpcr2;
 80071d6:	687b      	ldr	r3, [r7, #4]
 80071d8:	681b      	ldr	r3, [r3, #0]
 80071da:	68fa      	ldr	r2, [r7, #12]
 80071dc:	605a      	str	r2, [r3, #4]

  if (IS_TIM_SLAVE_INSTANCE(htim->Instance))
 80071de:	687b      	ldr	r3, [r7, #4]
 80071e0:	681a      	ldr	r2, [r3, #0]
 80071e2:	2380      	movs	r3, #128	; 0x80
 80071e4:	05db      	lsls	r3, r3, #23
 80071e6:	429a      	cmp	r2, r3
 80071e8:	d009      	beq.n	80071fe <HAL_TIMEx_MasterConfigSynchronization+0x72>
 80071ea:	687b      	ldr	r3, [r7, #4]
 80071ec:	681b      	ldr	r3, [r3, #0]
 80071ee:	4a11      	ldr	r2, [pc, #68]	; (8007234 <HAL_TIMEx_MasterConfigSynchronization+0xa8>)
 80071f0:	4293      	cmp	r3, r2
 80071f2:	d004      	beq.n	80071fe <HAL_TIMEx_MasterConfigSynchronization+0x72>
 80071f4:	687b      	ldr	r3, [r7, #4]
 80071f6:	681b      	ldr	r3, [r3, #0]
 80071f8:	4a0f      	ldr	r2, [pc, #60]	; (8007238 <HAL_TIMEx_MasterConfigSynchronization+0xac>)
 80071fa:	4293      	cmp	r3, r2
 80071fc:	d10c      	bne.n	8007218 <HAL_TIMEx_MasterConfigSynchronization+0x8c>
  {
    /* Reset the MSM Bit */
    tmpsmcr &= ~TIM_SMCR_MSM;
 80071fe:	68bb      	ldr	r3, [r7, #8]
 8007200:	2280      	movs	r2, #128	; 0x80
 8007202:	4393      	bics	r3, r2
 8007204:	60bb      	str	r3, [r7, #8]
    /* Set master mode */
    tmpsmcr |= sMasterConfig->MasterSlaveMode;
 8007206:	683b      	ldr	r3, [r7, #0]
 8007208:	685b      	ldr	r3, [r3, #4]
 800720a:	68ba      	ldr	r2, [r7, #8]
 800720c:	4313      	orrs	r3, r2
 800720e:	60bb      	str	r3, [r7, #8]

    /* Update TIMx SMCR */
    htim->Instance->SMCR = tmpsmcr;
 8007210:	687b      	ldr	r3, [r7, #4]
 8007212:	681b      	ldr	r3, [r3, #0]
 8007214:	68ba      	ldr	r2, [r7, #8]
 8007216:	609a      	str	r2, [r3, #8]
  }

  /* Change the htim state */
  htim->State = HAL_TIM_STATE_READY;
 8007218:	687b      	ldr	r3, [r7, #4]
 800721a:	2239      	movs	r2, #57	; 0x39
 800721c:	2101      	movs	r1, #1
 800721e:	5499      	strb	r1, [r3, r2]

  __HAL_UNLOCK(htim);
 8007220:	687b      	ldr	r3, [r7, #4]
 8007222:	2238      	movs	r2, #56	; 0x38
 8007224:	2100      	movs	r1, #0
 8007226:	5499      	strb	r1, [r3, r2]

  return HAL_OK;
 8007228:	2300      	movs	r3, #0
}
 800722a:	0018      	movs	r0, r3
 800722c:	46bd      	mov	sp, r7
 800722e:	b004      	add	sp, #16
 8007230:	bd80      	pop	{r7, pc}
 8007232:	46c0      	nop			; (mov r8, r8)
 8007234:	40010800 	.word	0x40010800
 8007238:	40011400 	.word	0x40011400

0800723c <memset>:
 800723c:	0003      	movs	r3, r0
 800723e:	1882      	adds	r2, r0, r2
 8007240:	4293      	cmp	r3, r2
 8007242:	d100      	bne.n	8007246 <memset+0xa>
 8007244:	4770      	bx	lr
 8007246:	7019      	strb	r1, [r3, #0]
 8007248:	3301      	adds	r3, #1
 800724a:	e7f9      	b.n	8007240 <memset+0x4>

0800724c <__libc_init_array>:
 800724c:	b570      	push	{r4, r5, r6, lr}
 800724e:	2600      	movs	r6, #0
 8007250:	4c0c      	ldr	r4, [pc, #48]	; (8007284 <__libc_init_array+0x38>)
 8007252:	4d0d      	ldr	r5, [pc, #52]	; (8007288 <__libc_init_array+0x3c>)
 8007254:	1b64      	subs	r4, r4, r5
 8007256:	10a4      	asrs	r4, r4, #2
 8007258:	42a6      	cmp	r6, r4
 800725a:	d109      	bne.n	8007270 <__libc_init_array+0x24>
 800725c:	2600      	movs	r6, #0
 800725e:	f000 f819 	bl	8007294 <_init>
 8007262:	4c0a      	ldr	r4, [pc, #40]	; (800728c <__libc_init_array+0x40>)
 8007264:	4d0a      	ldr	r5, [pc, #40]	; (8007290 <__libc_init_array+0x44>)
 8007266:	1b64      	subs	r4, r4, r5
 8007268:	10a4      	asrs	r4, r4, #2
 800726a:	42a6      	cmp	r6, r4
 800726c:	d105      	bne.n	800727a <__libc_init_array+0x2e>
 800726e:	bd70      	pop	{r4, r5, r6, pc}
 8007270:	00b3      	lsls	r3, r6, #2
 8007272:	58eb      	ldr	r3, [r5, r3]
 8007274:	4798      	blx	r3
 8007276:	3601      	adds	r6, #1
 8007278:	e7ee      	b.n	8007258 <__libc_init_array+0xc>
 800727a:	00b3      	lsls	r3, r6, #2
 800727c:	58eb      	ldr	r3, [r5, r3]
 800727e:	4798      	blx	r3
 8007280:	3601      	adds	r6, #1
 8007282:	e7f2      	b.n	800726a <__libc_init_array+0x1e>
 8007284:	080072e8 	.word	0x080072e8
 8007288:	080072e8 	.word	0x080072e8
 800728c:	080072ec 	.word	0x080072ec
 8007290:	080072e8 	.word	0x080072e8

08007294 <_init>:
 8007294:	b5f8      	push	{r3, r4, r5, r6, r7, lr}
 8007296:	46c0      	nop			; (mov r8, r8)
 8007298:	bcf8      	pop	{r3, r4, r5, r6, r7}
 800729a:	bc08      	pop	{r3}
 800729c:	469e      	mov	lr, r3
 800729e:	4770      	bx	lr

080072a0 <_fini>:
 80072a0:	b5f8      	push	{r3, r4, r5, r6, r7, lr}
 80072a2:	46c0      	nop			; (mov r8, r8)
 80072a4:	bcf8      	pop	{r3, r4, r5, r6, r7}
 80072a6:	bc08      	pop	{r3}
 80072a8:	469e      	mov	lr, r3
 80072aa:	4770      	bx	lr
